(lp0
(S'dynamic'
p1
I2
tp2
a(S'cmd'
p3
I2
tp4
a(S'implemented'
p5
I2
tp6
a(S'debuglink'
p7
I2
tp8
a(S'new'
p9
I2
tp10
a(S'ZO'
p11
I2
tp12
a(S'type'
p13
I2
tp14
a(S'isatty'
p15
I2
tp16
a(S'me'
p17
I2
tp18
a(S'md'
p19
I2
tp20
a(S'mf'
p21
I2
tp22
a(S'strerror'
p23
I2
tp24
a(S'smtp'
p25
I2
tp26
a(S'want'
p27
I2
tp28
a(S'end'
p29
I2
tp30
a(S'answer'
p31
I2
tp32
a(S'config'
p33
I2
tp34
a(S'replacing'
p35
I2
tp36
a(S'wrong'
p37
I2
tp38
a(S'strtoul'
p39
I2
tp40
a(S'writing'
p41
I2
tp42
a(S'split'
p43
I2
tp44
a(S'fchown'
p45
I2
tp46
a(S'ADDRESS'
p47
I2
tp48
a(S'debug'
p49
I2
tp50
a(S'array'
p51
I2
tp52
a(S'got'
p53
I2
tp54
a(S'given'
p55
I2
tp56
a(S'free'
p57
I2
tp58
a(S'messages'
p59
I2
tp60
a(S'Please'
p61
I2
tp62
a(S'clear'
p63
I2
tp64
a(S'service'
p65
I2
tp66
a(S'top'
p67
I2
tp68
a(S'too'
p69
I2
tp70
a(S'memcmp'
p71
I2
tp72
a(S'zero'
p73
I2
tp74
a(S'seek'
p75
I2
tp76
a(S'realm'
p77
I2
tp78
a(S'newline'
p79
I2
tp80
a(S'bss'
p81
I2
tp82
a(S'regular'
p83
I2
tp84
a(S'don'
p85
I2
tp86
a(S'dot'
p87
I2
tp88
a(S'ldap'
p89
I2
tp90
a(S'fstat'
p91
I2
tp92
a(S'do'
p93
I2
tp94
a(S'dH'
p95
I2
tp96
a(S'twice'
p97
I2
tp98
a(S'bad'
p99
I2
tp100
a(S'strncmp'
p101
I2
tp102
a(S'num'
p103
I2
tp104
a(S'fail'
p105
I2
tp106
a(S'subject'
p107
I2
tp108
a(S'unable'
p109
I2
tp110
a(S'path'
p111
I2
tp112
a(S'union'
p113
I2
tp114
a(S'basic'
p115
I2
tp116
a(S'NAME'
p117
I2
tp118
a(S'gnu'
p119
I2
tp120
a(S'is'
p121
I2
tp122
a(S'it'
p123
I2
tp124
a(S'in'
p125
I2
tp126
a(S'id'
p127
I2
tp128
a(S'severity'
p129
I2
tp130
a(S'ownership'
p131
I2
tp132
a(S'on'
p133
I2
tp134
a(S'options'
p135
I2
tp136
a(S'client'
p137
I2
tp138
a(S'the'
p139
I2
tp140
a(S'quoted'
p141
I2
tp142
a(S'UID'
p143
I2
tp144
a(S'ctime'
p145
I2
tp146
a(S'interp'
p147
I2
tp148
a(S'for'
p149
I2
tp150
a(S'First'
p151
I2
tp152
a(S'done'
p153
I2
tp154
a(S'gid'
p155
I2
tp156
a(S'rela'
p157
I2
tp158
a(S'rcpt'
p159
I2
tp160
a(S'attempted'
p161
I2
tp162
a(S'true'
p163
I2
tp164
a(S'reset'
p165
I2
tp166
a(S'delete'
p167
I2
tp168
a(S'check'
p169
I2
tp170
a(S'no'
p171
I2
tp172
a(S'node'
p173
I2
tp174
a(S'time'
p175
I2
tp176
a(S'skip'
p177
I2
tp178
a(S'plt'
p179
I2
tp180
a(S'encrypted'
p181
I2
tp182
a(S'string'
p183
I2
tp184
a(S'prog'
p185
I2
tp186
a(S'Failed'
p187
I2
tp188
a(S'port'
p189
I2
tp190
a(S'addr'
p191
I2
tp192
a(S'current'
p193
I2
tp194
a(S'optional'
p195
I2
tp196
a(S'reply'
p197
I2
tp198
a(S'lu'
p199
I2
tp200
a(S'shstrtab'
p201
I2
tp202
a(S'marked'
p203
I2
tp204
a(S'regex'
p205
I2
tp206
a(S'only'
p207
I2
tp208
a(S'memory'
p209
I2
tp210
a(S'encode'
p211
I2
tp212
a(S'strdup'
p213
I2
tp214
a(S'values'
p215
I2
tp216
a(S'attribute'
p217
I2
tp218
a(S'abort'
p219
I2
tp220
a(S'AUATL'
p221
I2
tp222
a(S'write'
p223
I2
tp224
a(S'parameter'
p225
I2
tp226
a(S'information'
p227
I2
tp228
a(S'ioctl'
p229
I2
tp230
a(S'date'
p231
I2
tp232
a(S'such'
p233
I2
tp234
a(S'data'
p235
I2
tp236
a(S'strcasecmp'
p237
I2
tp238
a(S'stdin'
p239
I2
tp240
a(S'so'
p241
I2
tp242
a(S'sa'
p243
I2
tp244
a(S'FILE'
p245
I2
tp246
a(S'disconnect'
p247
I2
tp248
a(S'mail'
p249
I2
tp250
a(S'main'
p251
I2
tp252
a(S'recipients'
p253
I2
tp254
a(S'matches'
p255
I2
tp256
a(S'not'
p257
I2
tp258
a(S'now'
p259
I2
tp260
a(S'permissions'
p261
I2
tp262
a(S'name'
p263
I2
tp264
a(S'address'
p265
I2
tp266
a(S'domain'
p267
I2
tp268
a(S'eh'
p269
I2
tp270
a(S'ed'
p271
I2
tp272
a(S'args'
p273
I2
tp274
a(S'argv'
p275
I2
tp276
a(S'first'
p277
I2
tp278
a(S'one'
p279
I2
tp280
a(S'rodata'
p281
I2
tp282
a(S'message'
p283
I2
tp284
a(S'open'
p285
I2
tp286
a(S'size'
p287
I2
tp288
a(S'filter'
p289
I2
tp290
a(S'copy'
p291
I2
tp292
a(S'AWAVA'
p293
I2
tp294
a(S'LIST'
p295
I2
tp296
a(S'pre'
p297
I2
tp298
a(S'argument'
p299
I2
tp300
a(S'any'
p301
I2
tp302
a(S'note'
p303
I2
tp304
a(S'channel'
p305
I2
tp306
a(S'trace'
p307
I2
tp308
a(S'printable'
p309
I2
tp310
a(S'deregisterTMCloneTable'
p311
I2
tp312
a(S'get'
p313
I2
tp314
a(S'dyn'
p315
I2
tp316
a(S'cannot'
p317
I2
tp318
a(S'fileno'
p319
I2
tp320
a(S'verbosity'
p321
I2
tp322
a(S'ignored'
p323
I2
tp324
a(S'enough'
p325
I2
tp326
a(S'regcomp'
p327
I2
tp328
a(S'reading'
p329
I2
tp330
a(S'many'
p331
I2
tp332
a(S'jO'
p333
I2
tp334
a(S'login'
p335
I2
tp336
a(S'case'
p337
I2
tp338
a(S'hdr'
p339
I2
tp340
a(S'TYPE'
p341
I2
tp342
a(S'Size'
p343
I2
tp344
a(S'URL'
p345
I2
tp346
a(S'authentication'
p347
I2
tp348
a(S'arguments'
p349
I2
tp350
a(S'status'
p351
I2
tp352
a(S'ID'
p353
I2
tp354
a(S'undefined'
p355
I2
tp356
a(S'without'
p357
I2
tp358
a(S'RegisterClasses'
p359
I2
tp360
a(S'libc'
p361
I2
tp362
a(S'recipient'
p363
I2
tp364
a(S'server'
p365
I2
tp366
a(S'strcmp'
p367
I2
tp368
a(S'specified'
p369
I2
tp370
a(S'protocol'
p371
I2
tp372
a(S'exit'
p373
I2
tp374
a(S'PARAM'
p375
I2
tp376
a(S'nohost'
p377
I2
tp378
a(S'of'
p379
I2
tp380
a(S'Message'
p381
I2
tp382
a(S'or'
p383
I2
tp384
a(S'No'
p385
I2
tp386
a(S'log'
p387
I2
tp388
a(S'decode'
p389
I2
tp390
a(S'start'
p391
I2
tp392
a(S'Error'
p393
I2
tp394
a(S'with'
p395
I2
tp396
a(S'default'
p397
I2
tp398
a(S'uid'
p399
I2
tp400
a(S'an'
p401
I2
tp402
a(S'as'
p403
I2
tp404
a(S'at'
p405
I2
tp406
a(S'file'
p407
I2
tp408
a(S'ref'
p409
I2
tp410
a(S'paddr'
p411
I2
tp412
a(S'fxstat'
p413
I2
tp414
a(S'getuid'
p415
I2
tp416
a(S'requires'
p417
I2
tp418
a(S'all'
p419
I2
tp420
a(S'to'
p421
I2
tp422
a(S'program'
p423
I2
tp424
a(S'BODY'
p425
I2
tp426
a(S'GID'
p427
I2
tp428
a(S'and'
p429
I2
tp430
a(S'list'
p431
I2
tp432
a(S'stderr'
p433
I2
tp434
a(S'syslog'
p435
I2
tp436
a(S'USER'
p437
I2
tp438
a(S'pass'
p439
I2
tp440
a(S'canonical'
p441
I2
tp442
a(S'version'
p443
I2
tp444
a(S'hash'
p445
I2
tp446
a(S'search'
p447
I2
tp448
a(S'sender'
p449
I2
tp450
a(S'action'
p451
I2
tp452
a(S'ehlo'
p453
I2
tp454
a(S'via'
p455
I2
tp456
a(S'select'
p457
I2
tp458
a(S'flag'
p459
I2
tp460
a(S'parse'
p461
I2
tp462
a(S'accept'
p463
I2
tp464
a(S'strlen'
p465
I2
tp466
a(S'fd'
p467
I2
tp468
a(S'unlink'
p469
I2
tp470
a(S'response'
p471
I2
tp472
a(S'ALERT'
p473
I2
tp474
a(S'callback'
p475
I2
tp476
a(S'help'
p477
I2
tp478
a(S'filters'
p479
I2
tp480
a(S'register'
p481
I2
tp482
a(S'gmon'
p483
I2
tp484
a(S'yB'
p485
I2
tp486
a(S'found'
p487
I2
tp488
a(S'connect'
p489
I2
tp490
a(S'operation'
p491
I2
tp492
a(S'item'
p493
I2
tp494
a(S'print'
p495
I2
tp496
a(S'strrchr'
p497
I2
tp498
a(S'regexec'
p499
I2
tp500
a(S'base'
p501
I2
tp502
a(S'disposition'
p503
I2
tp504
a(S'Delete'
p505
I2
tp506
a(S'getservbyname'
p507
I2
tp508
a(S'encoding'
p509
I2
tp510
a(S'number'
p511
I2
tp512
a(S'store'
p513
I2
tp514
a(S'TLS'
p515
I2
tp516
a(S'option'
p517
I2
tp518
a(S'level'
p519
I2
tp520
a(S'headers'
p521
I2
tp522
a(S'KEY'
p523
I2
tp524
a(S'interactive'
p525
I2
tp526
a(S'null'
p527
I2
tp528
a(S'generic'
p529
I2
tp530
a(S'lib'
p531
I2
tp532
a(S'output'
p533
I2
tp534
a(S'build'
p535
I2
tp536
a(S'quote'
p537
I2
tp538
a(S'Total'
p539
I2
tp540
a(S'init'
p541
I2
tp542
a(S'fini'
p543
I2
tp544
a(S'session'
p545
I2
tp546
a(S'find'
p547
I2
tp548
a(S'Jv'
p549
I2
tp550
a(S'failed'
p551
I2
tp552
a(S'fchmod'
p553
I2
tp554
a(S'registerTMCloneTable'
p555
I2
tp556
a(S'remove'
p557
I2
tp558
a(S'rfc'
p559
I2
tp560
a(S'set'
p561
I2
tp562
a(S'dump'
p563
I2
tp564
a(S'are'
p565
I2
tp566
a(S'close'
p567
I2
tp568
a(S'strchr'
p569
I2
tp570
a(S'mailbox'
p571
I2
tp572
a(S'both'
p573
I2
tp574
a(S'connection'
p575
I2
tp576
a(S'load'
p577
I2
tp578
a(S'header'
p579
I2
tp580
a(S'create'
p581
I2
tp582
a(S'empty'
p583
I2
tp584
a(S'append'
p585
I2
tp586
a(S'error'
p587
I2
tp588
a(S'authenticated'
p589
I2
tp590
a(S'read'
p591
I2
tp592
a(S'used'
p593
I2
tp594
a(S'temporary'
p595
I2
tp596
a(S'user'
p597
I2
tp598
a(S'stack'
p599
I2
tp600
a(S'database'
p601
I2
tp602
a(S'flags'
p603
I2
tp604
a(S'entry'
p605
I2
tp606
a(S'using'
p607
I2
tp608
a(S'location'
p609
I2
tp610
a(S'str'
p611
I2
tp612
a(S'input'
p613
I2
tp614
a(S'bin'
p615
I2
tp616
a(S'format'
p617
I2
tp618
a(S'unrecognized'
p619
I2
tp620
a(S'be'
p621
I2
tp622
a(S'run'
p623
I2
tp624
a(S'by'
p625
I2
tp626
a(S'errno'
p627
I2
tp628
a(S'msg'
p629
I2
tp630
a(S'link'
p631
I2
tp632
a(S'line'
p633
I2
tp634
a(S'info'
p635
I2
tp636
a(S'defined'
p637
I2
tp638
a(S'To'
p639
I2
tp640
a(S'jcr'
p641
I2
tp642
a(S'invalid'
p643
I2
tp644
a(S'required'
p645
I2
tp646
a(S'GLIBC'
p647
I2
tp648
a(S'query'
p649
I2
tp650
a(S'rset'
p651
I2
tp652
a(S'noop'
p653
I2
tp654
a(S'memset'
p655
I2
tp656
a(S'compat'
p657
I2
tp658
a(S'access'
p659
I2
tp660
a(S'body'
p661
I2
tp662
a(S'conf'
p663
I2
tp664
a(S'len'
p665
I2
tp666
a(S'getgrnam'
p667
I2
tp668
a(S'tNH'
p669
I2
tp670
a(S'realloc'
p671
I2
tp672
a(S'app'
p673
I2
tp674
a(S'FD'
p675
I2
tp676
a(S'frame'
p677
I2
tp678
a(S'use'
p679
I2
tp680
a(S'from'
p681
I2
tp682
a(S'chk'
p683
I2
tp684
a(S'next'
p685
I2
tp686
a(S'usr'
p687
I2
tp688
a(S'this'
p689
I2
tp690
a(S'closing'
p691
I2
tp692
a(S'control'
p693
I2
tp694
a(S'tab'
p695
I2
tp696
a(S'instead'
p697
I2
tp698
a(S'xstat'
p699
I2
tp700
a(S'alloc'
p701
I2
tp702
a(S'lines'
p703
I2
tp704
a(S'charset'
p705
I2
tp706
a(S'parameters'
p707
I2
tp708
a(S'ld'
p709
I2
tp710
a(S'send'
p711
I2
tp712
a(S'auth'
p713
I2
tp714
a(S'SERVER'
p715
I2
tp716
a(S'mode'
p717
I2
tp718
a(S'few'
p719
I2
tp720
a(S'From'
p721
I2
tp722
a(S'configuration'
p723
I2
tp724
a(S'Set'
p725
I2
tp726
a(S'sendmail'
p727
I2
tp728
a(S'dynsym'
p729
I2
tp730
a(S'ABI'
p731
I2
tp732
a(S'length'
p733
I2
tp734
a(S'unsupported'
p735
I2
tp736
a(S'owner'
p737
I2
tp738
a(S'unknown'
p739
I2
tp740
a(S'system'
p741
I2
tp742
a(S'priority'
p743
I2
tp744
a(S'shell'
p745
I2
tp746
a(S'getgrgid'
p747
I2
tp748
a(S'ITM'
p749
I2
tp750
a(S'false'
p751
I2
tp752
a(S'need'
p753
I2
tp754
a(S'mechanism'
p755
I2
tp756
a(S'class'
p757
I2
tp758
a(S'deny'
p759
I2
tp760
a(S'url'
p761
I2
tp762
a(S'request'
p763
I2
tp764
a(S'text'
p765
I2
tp766
a(S'supported'
p767
I2
tp768
a(S'strtol'
p769
I2
tp770
a(S'memcpy'
p771
I2
tp772
a(S'multipart'
p773
I2
tp774
a(S'state'
p775
I2
tp776
a(S'email'
p777
I2
tp778
a(S'group'
p779
I2
tp780
a(S'tls'
p781
I2
tp782
a(S'commands'
p783
I2
tp784
a(S'cxa'
p785
I2
tp786
a(S'table'
p787
I2
tp788
a(S'quit'
p789
I2
tp790
a(S'permanent'
p791
I2
tp792
a(S'username'
p793
I2
tp794
a(S'SMTP'
p795
I2
tp796
a(S'multi'
p797
I2
tp798
a(S'value'
p799
I2
tp800
a(S'rename'
p801
I2
tp802
a(S'Sender'
p803
I2
tp804
a(S'expand'
p805
I2
tp806
a(S'mech'
p807
I2
tp808
a(S'off'
p809
I2
tp810
a(S'command'
p811
I2
tp812
a(S'nouser'
p813
I2
tp814
a(S'starttls'
p815
I2
tp816
a(S'add'
p817
I2
tp818
a(S'edata'
p819
I2
tp820
a(S'match'
p821
I2
tp822
a(S'password'
p823
I2
tp824
a(S'you'
p825
I2
tp826
a(S'insert'
p827
I2
tp828
a(S'dynstr'
p829
I2
tp830
a(S'record'
p831
I2
tp832
a(S'sequence'
p833
I2
tp834
a(S'linux'
p835
I2
tp836
a(S'include'
p837
I2
tp838
a(S'flush'
p839
I2
tp840
a(S'STARTTLS'
p841
I2
tp842
a(S'does'
p843
I2
tp844
a(S'expansion'
p845
I2
tp846
a(S'host'
p847
I2
tp848
a(S'column'
p849
I2
tp850
a(S'Subject'
p851
I2
tp852
a(S'tag'
p853
I2
tp854
a(S'additional'
p855
I2
tp856
a(S'function'
p857
I2
tp858
a(S'mailer'
p859
I2
tp860
a(S'getenv'
p861
I2
tp862
a(S'remote'
p863
I2
tp864
a(S'count'
p865
I2
tp866
a(S'other'
p867
I2
tp868
a(S'lookup'
p869
I2
tp870
a(S'stat'
p871
I2
tp872
a(S'regerror'
p873
I2
tp874
a(S'realms'
p875
I1
tp876
a(S'aliased'
p877
I1
tp878
a(S'INTERMED'
p879
I1
tp880
a(S'dnsrch'
p881
I1
tp882
a(S'DELAY'
p883
I1
tp884
a(S'forwardfileingroupwritabledirpath'
p885
I1
tp886
a(S'tZ'
p887
I1
tp888
a(S'Until'
p889
I1
tp890
a(S'aliases'
p891
I1
tp892
a(S'fnmatch'
p893
I1
tp894
a(S'umask'
p895
I1
tp896
a(S'DontExpandCnames'
p897
I1
tp898
a(S'Host'
p899
I1
tp900
a(S'Unknown'
p901
I1
tp902
a(S'Changing'
p903
I1
tp904
a(S'spec'
p905
I1
tp906
a(S'localtime'
p907
I1
tp908
a(S'started'
p909
I1
tp910
a(S'updated'
p911
I1
tp912
a(S'CurHost'
p913
I1
tp914
a(S'dele'
p915
I1
tp916
a(S'rel'
p917
I1
tp918
a(S'getppid'
p919
I1
tp920
a(S'CLRQUEUE'
p921
I1
tp922
a(S'upA'
p923
I1
tp924
a(S'ident'
p925
I1
tp926
a(S'RDWR'
p927
I1
tp928
a(S'GN'
p929
I1
tp930
a(S'uit'
p931
I1
tp932
a(S'tickets'
p933
I1
tp934
a(S'MAP'
p935
I1
tp936
a(S'AuthMaxBits'
p937
I1
tp938
a(S'bodytype'
p939
I1
tp940
a(S'igntc'
p941
I1
tp942
a(S'cause'
p943
I1
tp944
a(S'upd'
p945
I1
tp946
a(S'AXAY'
p947
I1
tp948
a(S'reg'
p949
I1
tp950
a(S'Unable'
p951
I1
tp952
a(S'WorkListSize'
p953
I1
tp954
a(S'Go'
p955
I1
tp956
a(S'Gh'
p957
I1
tp958
a(S'locus'
p959
I1
tp960
a(S'getla'
p961
I1
tp962
a(S'sgroup'
p963
I1
tp964
a(S'VLc'
p965
I1
tp966
a(S'mno'
p967
I1
tp968
a(S'noconf'
p969
I1
tp970
a(S'ServerKeyFile'
p971
I1
tp972
a(S'second'
p973
I1
tp974
a(S'Version'
p975
I1
tp976
a(S'follow'
p977
I1
tp978
a(S'EVP'
p979
I1
tp980
a(S'ZYtN'
p981
I1
tp982
a(S'even'
p983
I1
tp984
a(S'VRFYONLY'
p985
I1
tp986
a(S'Generating'
p987
I1
tp988
a(S'errors'
p989
I1
tp990
a(S'specification'
p991
I1
tp992
a(S'selected'
p993
I1
tp994
a(S'QBYNDELAY'
p995
I1
tp996
a(S'while'
p997
I1
tp998
a(S'ptr'
p999
I1
tp1000
a(S'Realms'
p1001
I1
tp1002
a(S'Authenticate'
p1003
I1
tp1004
a(S'rscap'
p1005
I1
tp1006
a(S'MBOX'
p1007
I1
tp1008
a(S'PKCS'
p1009
I1
tp1010
a(S'ZI'
p1011
I1
tp1012
a(S'QUNSAFEADDR'
p1013
I1
tp1014
a(S'tISH'
p1015
I1
tp1016
a(S'never'
p1017
I1
tp1018
a(S'xfd'
p1019
I1
tp1020
a(S'AWAVAUATL'
p1021
I1
tp1022
a(S'AWAVAUATI'
p1023
I1
tp1024
a(S'ZY'
p1025
I1
tp1026
a(S'WWFILE'
p1027
I1
tp1028
a(S'QueueFileMode'
p1029
I1
tp1030
a(S'active'
p1031
I1
tp1032
a(S'AWAVAUATD'
p1033
I1
tp1034
a(S'realstdio'
p1035
I1
tp1036
a(S'SIGSETJMP'
p1037
I1
tp1038
a(S'AWAVAUATA'
p1039
I1
tp1040
a(S'mbox'
p1041
I1
tp1042
a(S'changed'
p1043
I1
tp1044
a(S'byname'
p1045
I1
tp1046
a(S'nullv'
p1047
I1
tp1048
a(S'ignoring'
p1049
I1
tp1050
a(S'statfile'
p1051
I1
tp1052
a(S'MaxMimeHeaderLength'
p1053
I1
tp1054
a(S'NOT'
p1055
I1
tp1056
a(S'QHH'
p1057
I1
tp1058
a(S'suitable'
p1059
I1
tp1060
a(S'changes'
p1061
I1
tp1062
a(S'mechs'
p1063
I1
tp1064
a(S'Group'
p1065
I1
tp1066
a(S'worldwritableforwardfile'
p1067
I1
tp1068
a(S'instr'
p1069
I1
tp1070
a(S'ATUSIcE'
p1071
I1
tp1072
a(S'CTX'
p1073
I1
tp1074
a(S'xSdv'
p1075
I1
tp1076
a(S'TEST'
p1077
I1
tp1078
a(S'replace'
p1079
I1
tp1080
a(S'funcall'
p1081
I1
tp1082
a(S'CTE'
p1083
I1
tp1084
a(S'unix'
p1085
I1
tp1086
a(S'printf'
p1087
I1
tp1088
a(S'total'
p1089
I1
tp1090
a(S'byte'
p1091
I1
tp1092
a(S'unit'
p1093
I1
tp1094
a(S'keepalive'
p1095
I1
tp1096
a(S'Fu'
p1097
I1
tp1098
a(S'BINDIF'
p1099
I1
tp1100
a(S'WHO'
p1101
I1
tp1102
a(S'subpath'
p1103
I1
tp1104
a(S'negative'
p1105
I1
tp1106
a(S'Options'
p1107
I1
tp1108
a(S'leaks'
p1109
I1
tp1110
a(S'call'
p1111
I1
tp1112
a(S'dns'
p1113
I1
tp1114
a(S'Removed'
p1115
I1
tp1116
a(S'until'
p1117
I1
tp1118
a(S'tTyY'
p1119
I1
tp1120
a(S'Recent'
p1121
I1
tp1122
a(S'ir'
p1123
I1
tp1124
a(S'th'
p1125
I1
tp1126
a(S'relay'
p1127
I1
tp1128
a(S'successful'
p1129
I1
tp1130
a(S'mL'
p1131
I1
tp1132
a(S'mN'
p1133
I1
tp1134
a(S'sigaddset'
p1135
I1
tp1136
a(S'Rule'
p1137
I1
tp1138
a(S'aware'
p1139
I1
tp1140
a(S'qbuf'
p1141
I1
tp1142
a(S'KTNAME'
p1143
I1
tp1144
a(S'AUATUS'
p1145
I1
tp1146
a(S'NOAUTH'
p1147
I1
tp1148
a(S'ProcListSize'
p1149
I1
tp1150
a(S'hold'
p1151
I1
tp1152
a(S'must'
p1153
I1
tp1154
a(S'locked'
p1155
I1
tp1156
a(S'err'
p1157
I1
tp1158
a(S'setup'
p1159
I1
tp1160
a(S'work'
p1161
I1
tp1162
a(S'StJ'
p1163
I1
tp1164
a(S'needexpnhelo'
p1165
I1
tp1166
a(S'mu'
p1167
I1
tp1168
a(S'mt'
p1169
I1
tp1170
a(S'safeopen'
p1171
I1
tp1172
a(S'gecos'
p1173
I1
tp1174
a(S'MaxRecipientsPerMessage'
p1175
I1
tp1176
a(S'olen'
p1177
I1
tp1178
a(S'fdelt'
p1179
I1
tp1180
a(S'original'
p1181
I1
tp1182
a(S'root'
p1183
I1
tp1184
a(S'mx'
p1185
I1
tp1186
a(S'NOTICE'
p1187
I1
tp1188
a(S'Successfully'
p1189
I1
tp1190
a(S'NETINET'
p1191
I1
tp1192
a(S'NextMacroId'
p1193
I1
tp1194
a(S'give'
p1195
I1
tp1196
a(S'REMOTE'
p1197
I1
tp1198
a(S'Lt'
p1199
I1
tp1200
a(S'includefileinunsafedirpath'
p1201
I1
tp1202
a(S'times'
p1203
I1
tp1204
a(S'absolute'
p1205
I1
tp1206
a(S'UseErrorsTo'
p1207
I1
tp1208
a(S'LE'
p1209
I1
tp1210
a(S'getgroups'
p1211
I1
tp1212
a(S'safefopen'
p1213
I1
tp1214
a(S'LA'
p1215
I1
tp1216
a(S'verify'
p1217
I1
tp1218
a(S'LL'
p1219
I1
tp1220
a(S'OpenSSL'
p1221
I1
tp1222
a(S'LH'
p1223
I1
tp1224
a(S'LI'
p1225
I1
tp1226
a(S'hop'
p1227
I1
tp1228
a(S'rewind'
p1229
I1
tp1230
a(S'NOOP'
p1231
I1
tp1232
a(S'Previous'
p1233
I1
tp1234
a(S'LY'
p1235
I1
tp1236
a(S'FORK'
p1237
I1
tp1238
a(S'PROTOCOL'
p1239
I1
tp1240
a(S'description'
p1241
I1
tp1242
a(S'loginShell'
p1243
I1
tp1244
a(S'after'
p1245
I1
tp1246
a(S'WorkAroundBrokenAAAA'
p1247
I1
tp1248
a(S'simpledrop'
p1249
I1
tp1250
a(S'Will'
p1251
I1
tp1252
a(S'Alias'
p1253
I1
tp1254
a(S'HEAP'
p1255
I1
tp1256
a(S'setgroups'
p1257
I1
tp1258
a(S'DATETIME'
p1259
I1
tp1260
a(S'TLSSrvOptions'
p1261
I1
tp1262
a(S'attempt'
p1263
I1
tp1264
a(S'RealUid'
p1265
I1
tp1266
a(S'effective'
p1267
I1
tp1268
a(S'BIND'
p1269
I1
tp1270
a(S'greet'
p1271
I1
tp1272
a(S'purging'
p1273
I1
tp1274
a(S'alias'
p1275
I1
tp1276
a(S'ACLs'
p1277
I1
tp1278
a(S'algorithms'
p1279
I1
tp1280
a(S'Another'
p1281
I1
tp1282
a(S'order'
p1283
I1
tp1284
a(S'operations'
p1285
I1
tp1286
a(S'makeconnection'
p1287
I1
tp1288
a(S'DMtHH'
p1289
I1
tp1290
a(S'AAAA'
p1291
I1
tp1292
a(S'xi'
p1293
I1
tp1294
a(S'opendaemonsocket'
p1295
I1
tp1296
a(S'wordsplit'
p1297
I1
tp1298
a(S'TRUE'
p1299
I1
tp1300
a(S'digest'
p1301
I1
tp1302
a(S'before'
p1303
I1
tp1304
a(S'cset'
p1305
I1
tp1306
a(S'historyH'
p1307
I1
tp1308
a(S'fwrite'
p1309
I1
tp1310
a(S'fix'
p1311
I1
tp1312
a(S'rLf'
p1313
I1
tp1314
a(S'encapsulated'
p1315
I1
tp1316
a(S'closemaps'
p1317
I1
tp1318
a(S'setgid'
p1319
I1
tp1320
a(S'SAS'
p1321
I1
tp1322
a(S'reentered'
p1323
I1
tp1324
a(S'RCPT'
p1325
I1
tp1326
a(S'BhH'
p1327
I1
tp1328
a(S'MaxQueueAge'
p1329
I1
tp1330
a(S'copying'
p1331
I1
tp1332
a(S'AUTHACT'
p1333
I1
tp1334
a(S'safe'
p1335
I1
tp1336
a(S'runqueue'
p1337
I1
tp1338
a(S'CHR'
p1339
I1
tp1340
a(S'tTH'
p1341
I1
tp1342
a(S'owned'
p1343
I1
tp1344
a(S'aborted'
p1345
I1
tp1346
a(S'interrupt'
p1347
I1
tp1348
a(S'resizing'
p1349
I1
tp1350
a(S'UNSPEC'
p1351
I1
tp1352
a(S'yourself'
p1353
I1
tp1354
a(S'addrcpt'
p1355
I1
tp1356
a(S'DBM'
p1357
I1
tp1358
a(S'AllowBogusHELO'
p1359
I1
tp1360
a(S'queues'
p1361
I1
tp1362
a(S'DBG'
p1363
I1
tp1364
a(S'DtWH'
p1365
I1
tp1366
a(S'RfA'
p1367
I1
tp1368
a(S'dropenvelope'
p1369
I1
tp1370
a(S'CDOH'
p1371
I1
tp1372
a(S'timeout'
p1373
I1
tp1374
a(S'HHcD'
p1375
I1
tp1376
a(S'dnK'
p1377
I1
tp1378
a(S'queued'
p1379
I1
tp1380
a(S'Adding'
p1381
I1
tp1382
a(S'Authenticated'
p1383
I1
tp1384
a(S'BadCertificateContainsNUL'
p1385
I1
tp1386
a(S'dumping'
p1387
I1
tp1388
a(S'obuf'
p1389
I1
tp1390
a(S'overflow'
p1391
I1
tp1392
a(S'Deref'
p1393
I1
tp1394
a(S'QtgI'
p1395
I1
tp1396
a(S'Type'
p1397
I1
tp1398
a(S'ru'
p1399
I1
tp1400
a(S'IDENTPROTO'
p1401
I1
tp1402
a(S'rp'
p1403
I1
tp1404
a(S'rq'
p1405
I1
tp1406
a(S'rr'
p1407
I1
tp1408
a(S'display'
p1409
I1
tp1410
a(S'basedir'
p1411
I1
tp1412
a(S'dsn'
p1413
I1
tp1414
a(S'setnewqueue'
p1415
I1
tp1416
a(S'dsm'
p1417
I1
tp1418
a(S'sprintf'
p1419
I1
tp1420
a(S'rc'
p1421
I1
tp1422
a(S'rl'
p1423
I1
tp1424
a(S'ro'
p1425
I1
tp1426
a(S'rcode'
p1427
I1
tp1428
a(S'uKA'
p1429
I1
tp1430
a(S'strcspn'
p1431
I1
tp1432
a(S'xK'
p1433
I1
tp1434
a(S'hf'
p1435
I1
tp1436
a(S'RefuseLA'
p1437
I1
tp1438
a(S'standard'
p1439
I1
tp1440
a(S'HelpFile'
p1441
I1
tp1442
a(S'logging'
p1443
I1
tp1444
a(S'xL'
p1445
I1
tp1446
a(S'FIFO'
p1447
I1
tp1448
a(S'starts'
p1449
I1
tp1450
a(S'getcanonname'
p1451
I1
tp1452
a(S'SSL'
p1453
I1
tp1454
a(S'QueueDir'
p1455
I1
tp1456
a(S'iso'
p1457
I1
tp1458
a(S'ntO'
p1459
I1
tp1460
a(S'insufficiententropy'
p1461
I1
tp1462
a(S'runall'
p1463
I1
tp1464
a(S'tuATUH'
p1465
I1
tp1466
a(S'QueueDirectory'
p1467
I1
tp1468
a(S'purpose'
p1469
I1
tp1470
a(S'already'
p1471
I1
tp1472
a(S'features'
p1473
I1
tp1474
a(S'mkdir'
p1475
I1
tp1476
a(S'primary'
p1477
I1
tp1478
a(S'helpfileinunsafedirpath'
p1479
I1
tp1480
a(S'toH'
p1481
I1
tp1482
a(S'INQUEUE'
p1483
I1
tp1484
a(S'another'
p1485
I1
tp1486
a(S'nis'
p1487
I1
tp1488
a(S'payload'
p1489
I1
tp1490
a(S'SEG'
p1491
I1
tp1492
a(S'verbose'
p1493
I1
tp1494
a(S'rewritten'
p1495
I1
tp1496
a(S'LogLevel'
p1497
I1
tp1498
a(S'qsort'
p1499
I1
tp1500
a(S'NUL'
p1501
I1
tp1502
a(S'tok'
p1503
I1
tp1504
a(S'vqH'
p1505
I1
tp1506
a(S'LNK'
p1507
I1
tp1508
a(S'listen'
p1509
I1
tp1510
a(S'tool'
p1511
I1
tp1512
a(S'poolsize'
p1513
I1
tp1514
a(S'rejected'
p1515
I1
tp1516
a(S'tokens'
p1517
I1
tp1518
a(S'tBHc'
p1519
I1
tp1520
a(S'PrivacyOptions'
p1521
I1
tp1522
a(S'white'
p1523
I1
tp1524
a(S'BIG'
p1525
I1
tp1526
a(S'XDEBUG'
p1527
I1
tp1528
a(S'FALSE'
p1529
I1
tp1530
a(S'guile'
p1531
I1
tp1532
a(S'keyword'
p1533
I1
tp1534
a(S'queueit'
p1535
I1
tp1536
a(S'Data'
p1537
I1
tp1538
a(S'SOCK'
p1539
I1
tp1540
a(S'AUATUSH'
p1541
I1
tp1542
a(S'AVUH'
p1543
I1
tp1544
a(S'newaliases'
p1545
I1
tp1546
a(S'expn'
p1547
I1
tp1548
a(S'AUATUSA'
p1549
I1
tp1550
a(S'getprop'
p1551
I1
tp1552
a(S'vgH'
p1553
I1
tp1554
a(S'rewrite'
p1555
I1
tp1556
a(S'runner'
p1557
I1
tp1558
a(S'DEAYAZ'
p1559
I1
tp1560
a(S'ForwardPath'
p1561
I1
tp1562
a(S'seed'
p1563
I1
tp1564
a(S'Remote'
p1565
I1
tp1566
a(S'contents'
p1567
I1
tp1568
a(S'udbexpand'
p1569
I1
tp1570
a(S'relayed'
p1571
I1
tp1572
a(S'NEVER'
p1573
I1
tp1574
a(S'POP'
p1575
I1
tp1576
a(S'OperatorChars'
p1577
I1
tp1578
a(S'sendmailMTAAliasGrouping'
p1579
I1
tp1580
a(S'hook'
p1581
I1
tp1582
a(S'committing'
p1583
I1
tp1584
a(S'bigobjectsize'
p1585
I1
tp1586
a(S'Frozen'
p1587
I1
tp1588
a(S'glob'
p1589
I1
tp1590
a(S'noetrn'
p1591
I1
tp1592
a(S'letter'
p1593
I1
tp1594
a(S'phase'
p1595
I1
tp1596
a(S'contain'
p1597
I1
tp1598
a(S'Qm'
p1599
I1
tp1600
a(S'DefaultUser'
p1601
I1
tp1602
a(S'QS'
p1603
I1
tp1604
a(S'tyE'
p1605
I1
tp1606
a(S'alarm'
p1607
I1
tp1608
a(S'Unsafe'
p1609
I1
tp1610
a(S'Draining'
p1611
I1
tp1612
a(S'points'
p1613
I1
tp1614
a(S'wildcard'
p1615
I1
tp1616
a(S'diag'
p1617
I1
tp1618
a(S'QI'
p1619
I1
tp1620
a(S'mailing'
p1621
I1
tp1622
a(S'QHASNOTIFY'
p1623
I1
tp1624
a(S'Illegal'
p1625
I1
tp1626
a(S'random'
p1627
I1
tp1628
a(S'syntax'
p1629
I1
tp1630
a(S'lgsasl'
p1631
I1
tp1632
a(S'LEGACY'
p1633
I1
tp1634
a(S'otherowners'
p1635
I1
tp1636
a(S'authen'
p1637
I1
tp1638
a(S'DirectSubmissionModifiers'
p1639
I1
tp1640
a(S'RestrictExpand'
p1641
I1
tp1642
a(S'BODYSTRUCTURE'
p1643
I1
tp1644
a(S'GpH'
p1645
I1
tp1646
a(S'precedence'
p1647
I1
tp1648
a(S'getreq'
p1649
I1
tp1650
a(S'Deliver'
p1651
I1
tp1652
a(S'AWS'
p1653
I1
tp1654
a(S'discard'
p1655
I1
tp1656
a(S'INIT'
p1657
I1
tp1658
a(S'etype'
p1659
I1
tp1660
a(S'xdelay'
p1661
I1
tp1662
a(S'MATCHGECOS'
p1663
I1
tp1664
a(S'dn'
p1665
I1
tp1666
a(S'tKE'
p1667
I1
tp1668
a(S'DHparams'
p1669
I1
tp1670
a(S'di'
p1671
I1
tp1672
a(S'df'
p1673
I1
tp1674
a(S'de'
p1675
I1
tp1676
a(S'db'
p1677
I1
tp1678
a(S'account'
p1679
I1
tp1680
a(S'RESENT'
p1681
I1
tp1682
a(S'dv'
p1683
I1
tp1684
a(S'dt'
p1685
I1
tp1686
a(S'du'
p1687
I1
tp1688
a(S'ds'
p1689
I1
tp1690
a(S'RESEND'
p1691
I1
tp1692
a(S'assigned'
p1693
I1
tp1694
a(S'dL'
p1695
I1
tp1696
a(S'srandom'
p1697
I1
tp1698
a(S'dI'
p1699
I1
tp1700
a(S'tZHc'
p1701
I1
tp1702
a(S'Agent'
p1703
I1
tp1704
a(S'dA'
p1705
I1
tp1706
a(S'PADDING'
p1707
I1
tp1708
a(S'Dropped'
p1709
I1
tp1710
a(S'carrier'
p1711
I1
tp1712
a(S'require'
p1713
I1
tp1714
a(S'traverse'
p1715
I1
tp1716
a(S'KH'
p1717
I1
tp1718
a(S'reread'
p1719
I1
tp1720
a(S'reference'
p1721
I1
tp1722
a(S'REQUIRE'
p1723
I1
tp1724
a(S'testing'
p1725
I1
tp1726
a(S'strcat'
p1727
I1
tp1728
a(S'module'
p1729
I1
tp1730
a(S'Priority'
p1731
I1
tp1732
a(S'radius'
p1733
I1
tp1734
a(S'result'
p1735
I1
tp1736
a(S'getsockname'
p1737
I1
tp1738
a(S'Reply'
p1739
I1
tp1740
a(S'AWAVI'
p1741
I1
tp1742
a(S'Auto'
p1743
I1
tp1744
a(S'smtpmessage'
p1745
I1
tp1746
a(S'filename'
p1747
I1
tp1748
a(S'finger'
p1749
I1
tp1750
a(S'BUG'
p1751
I1
tp1752
a(S'wg'
p1753
I1
tp1754
a(S'we'
p1755
I1
tp1756
a(S'FSYNC'
p1757
I1
tp1758
a(S'ESMTP'
p1759
I1
tp1760
a(S'wn'
p1761
I1
tp1762
a(S'giveresponse'
p1763
I1
tp1764
a(S'DialDelay'
p1765
I1
tp1766
a(S'Queue'
p1767
I1
tp1768
a(S'wt'
p1769
I1
tp1770
a(S'COMMAND'
p1771
I1
tp1772
a(S'EXTERNAL'
p1773
I1
tp1774
a(S'mpvect'
p1775
I1
tp1776
a(S'fullname'
p1777
I1
tp1778
a(S'setsockopt'
p1779
I1
tp1780
a(S'wE'
p1781
I1
tp1782
a(S'Unsupported'
p1783
I1
tp1784
a(S'wH'
p1785
I1
tp1786
a(S'restarting'
p1787
I1
tp1788
a(S'CLOSED'
p1789
I1
tp1790
a(S'exceeds'
p1791
I1
tp1792
a(S'ZX'
p1793
I1
tp1794
a(S'endmailer'
p1795
I1
tp1796
a(S'con'
p1797
I1
tp1798
a(S'NETUNIX'
p1799
I1
tp1800
a(S'DN'
p1801
I1
tp1802
a(S'kwd'
p1803
I1
tp1804
a(S'STREAM'
p1805
I1
tp1806
a(S'appeared'
p1807
I1
tp1808
a(S'had'
p1809
I1
tp1810
a(S'BCC'
p1811
I1
tp1812
a(S'QBOGUSSHELL'
p1813
I1
tp1814
a(S'nisplus'
p1815
I1
tp1816
a(S'Sorry'
p1817
I1
tp1818
a(S'trust'
p1819
I1
tp1820
a(S'Method'
p1821
I1
tp1822
a(S'MeToo'
p1823
I1
tp1824
a(S'safesasl'
p1825
I1
tp1826
a(S'puts'
p1827
I1
tp1828
a(S'MaxHopCount'
p1829
I1
tp1830
a(S'been'
p1831
I1
tp1832
a(S'maxsize'
p1833
I1
tp1834
a(S'Transient'
p1835
I1
tp1836
a(S'FORWARD'
p1837
I1
tp1838
a(S'expected'
p1839
I1
tp1840
a(S'entered'
p1841
I1
tp1842
a(S'Disabling'
p1843
I1
tp1844
a(S'SEV'
p1845
I1
tp1846
a(S'ATSH'
p1847
I1
tp1848
a(S'getsymlist'
p1849
I1
tp1850
a(S'BlankSub'
p1851
I1
tp1852
a(S'CN'
p1853
I1
tp1854
a(S'mci'
p1855
I1
tp1856
a(S'CC'
p1857
I1
tp1858
a(S'pri'
p1859
I1
tp1860
a(S'CA'
p1861
I1
tp1862
a(S'rgid'
p1863
I1
tp1864
a(S'DC'
p1865
I1
tp1866
a(S'forwardfileinunsafedirpath'
p1867
I1
tp1868
a(S'CX'
p1869
I1
tp1870
a(S'SRV'
p1871
I1
tp1872
a(S'MustQuoteChars'
p1873
I1
tp1874
a(S'vRE'
p1875
I1
tp1876
a(S'child'
p1877
I1
tp1878
a(S'ABCDEF'
p1879
I1
tp1880
a(S'CMDOPTS'
p1881
I1
tp1882
a(S'lpam'
p1883
I1
tp1884
a(S'Ci'
p1885
I1
tp1886
a(S'atgA'
p1887
I1
tp1888
a(S'VERIFIED'
p1889
I1
tp1890
a(S'say'
p1891
I1
tp1892
a(S'wfd'
p1893
I1
tp1894
a(S'Assigned'
p1895
I1
tp1896
a(S'near'
p1897
I1
tp1898
a(S'ATUA'
p1899
I1
tp1900
a(S'ATUL'
p1901
I1
tp1902
a(S'omode'
p1903
I1
tp1904
a(S'ATUH'
p1905
I1
tp1906
a(S'ATUI'
p1907
I1
tp1908
a(S'chgfrom'
p1909
I1
tp1910
a(S'ix'
p1911
I1
tp1912
a(S'deferring'
p1913
I1
tp1914
a(S'LOG'
p1915
I1
tp1916
a(S'dumped'
p1917
I1
tp1918
a(S'HASSETREGID'
p1919
I1
tp1920
a(S'skipping'
p1921
I1
tp1922
a(S'MIME'
p1923
I1
tp1924
a(S'io'
p1925
I1
tp1926
a(S'Last'
p1927
I1
tp1928
a(S'truststickybit'
p1929
I1
tp1930
a(S'trusted'
p1931
I1
tp1932
a(S'if'
p1933
I1
tp1934
a(S'INSERT'
p1935
I1
tp1936
a(S'olderrors'
p1937
I1
tp1938
a(S'noreceipts'
p1939
I1
tp1940
a(S'recursion'
p1941
I1
tp1942
a(S'classfileinunsafedirpath'
p1943
I1
tp1944
a(S'MODE'
p1945
I1
tp1946
a(S'strout'
p1947
I1
tp1948
a(S'waitpid'
p1949
I1
tp1950
a(S'VA'
p1951
I1
tp1952
a(S'sched'
p1953
I1
tp1954
a(S'groupwritableforwardfilesafe'
p1955
I1
tp1956
a(S'VH'
p1957
I1
tp1958
a(S'Deferring'
p1959
I1
tp1960
a(S'conversion'
p1961
I1
tp1962
a(S'CurChildren'
p1963
I1
tp1964
a(S'liblber'
p1965
I1
tp1966
a(S'mstate'
p1967
I1
tp1968
a(S'DAEMON'
p1969
I1
tp1970
a(S'programs'
p1971
I1
tp1972
a(S'failing'
p1973
I1
tp1974
a(S'recurse'
p1975
I1
tp1976
a(S'mapinunsafedirpath'
p1977
I1
tp1978
a(S'smioerr'
p1979
I1
tp1980
a(S'Compiled'
p1981
I1
tp1982
a(S'settimeout'
p1983
I1
tp1984
a(S'Saved'
p1985
I1
tp1986
a(S'left'
p1987
I1
tp1988
a(S'tDH'
p1989
I1
tp1990
a(S'STDBOOL'
p1991
I1
tp1992
a(S'throttling'
p1993
I1
tp1994
a(S'noverb'
p1995
I1
tp1996
a(S'DRI'
p1997
I1
tp1998
a(S'meta'
p1999
I1
tp2000
a(S'CONF'
p2001
I1
tp2002
a(S'tilde'
p2003
I1
tp2004
a(S'yes'
p2005
I1
tp2006
a(S'tNHc'
p2007
I1
tp2008
a(S'previous'
p2009
I1
tp2010
a(S'adding'
p2011
I1
tp2012
a(S'prefix'
p2013
I1
tp2014
a(S'unique'
p2015
I1
tp2016
a(S'character'
p2017
I1
tp2018
a(S'DRt'
p2019
I1
tp2020
a(S'ZYt'
p2021
I1
tp2022
a(S'ZYu'
p2023
I1
tp2024
a(S'tHUSH'
p2025
I1
tp2026
a(S'has'
p2027
I1
tp2028
a(S'memdump'
p2029
I1
tp2030
a(S'take'
p2031
I1
tp2032
a(S'opt'
p2033
I1
tp2034
a(S'postconditions'
p2035
I1
tp2036
a(S'droplocalhost'
p2037
I1
tp2038
a(S'insensitive'
p2039
I1
tp2040
a(S'SxH'
p2041
I1
tp2042
a(S'possible'
p2043
I1
tp2044
a(S'RunAsUid'
p2045
I1
tp2046
a(S'Try'
p2047
I1
tp2048
a(S'Content'
p2049
I1
tp2050
a(S'smiostdout'
p2051
I1
tp2052
a(S'euid'
p2053
I1
tp2054
a(S'background'
p2055
I1
tp2056
a(S'destroy'
p2057
I1
tp2058
a(S'strstr'
p2059
I1
tp2060
a(S'py'
p2061
I1
tp2062
a(S'HASRANDOM'
p2063
I1
tp2064
a(S'capa'
p2065
I1
tp2066
a(S'dpurge'
p2067
I1
tp2068
a(S'daemon'
p2069
I1
tp2070
a(S'scan'
p2071
I1
tp2072
a(S'CRYPTO'
p2073
I1
tp2074
a(S'macid'
p2075
I1
tp2076
a(S'specific'
p2077
I1
tp2078
a(S'changeheader'
p2079
I1
tp2080
a(S'follows'
p2081
I1
tp2082
a(S'writestatstohardlink'
p2083
I1
tp2084
a(S'HASSETSID'
p2085
I1
tp2086
a(S'SmtpGreetingMessage'
p2087
I1
tp2088
a(S'DOMAIN'
p2089
I1
tp2090
a(S'HY'
p2091
I1
tp2092
a(S'old'
p2093
I1
tp2094
a(S'people'
p2095
I1
tp2096
a(S'sendq'
p2097
I1
tp2098
a(S'successfully'
p2099
I1
tp2100
a(S'System'
p2101
I1
tp2102
a(S'dead'
p2103
I1
tp2104
a(S'transaction'
p2105
I1
tp2106
a(S'HJ'
p2107
I1
tp2108
a(S'HH'
p2109
I1
tp2110
a(S'HI'
p2111
I1
tp2112
a(S'SmRpoolMagic'
p2113
I1
tp2114
a(S'HL'
p2115
I1
tp2116
a(S'HM'
p2117
I1
tp2118
a(S'getgid'
p2119
I1
tp2120
a(S'HA'
p2121
I1
tp2122
a(S'HD'
p2123
I1
tp2124
a(S'HE'
p2125
I1
tp2126
a(S'precomputed'
p2127
I1
tp2128
a(S'safedirpath'
p2129
I1
tp2130
a(S'makebuf'
p2131
I1
tp2132
a(S'notification'
p2133
I1
tp2134
a(S'Ht'
p2135
I1
tp2136
a(S'Hu'
p2137
I1
tp2138
a(S'Hh'
p2139
I1
tp2140
a(S'Hi'
p2141
I1
tp2142
a(S'CONNECT'
p2143
I1
tp2144
a(S'denied'
p2145
I1
tp2146
a(S'Hc'
p2147
I1
tp2148
a(S'tempfail'
p2149
I1
tp2150
a(S'sigsetjmp'
p2151
I1
tp2152
a(S'Hf'
p2153
I1
tp2154
a(S'PTR'
p2155
I1
tp2156
a(S'localhost'
p2157
I1
tp2158
a(S'HoldExpensive'
p2159
I1
tp2160
a(S'core'
p2161
I1
tp2162
a(S'Rdv'
p2163
I1
tp2164
a(S'ARUH'
p2165
I1
tp2166
a(S'AYAZf'
p2167
I1
tp2168
a(S'deleted'
p2169
I1
tp2170
a(S'arbitrary'
p2171
I1
tp2172
a(S'rscheck'
p2173
I1
tp2174
a(S'gmtime'
p2175
I1
tp2176
a(S'MaxMessageSize'
p2177
I1
tp2178
a(S'peekbuf'
p2179
I1
tp2180
a(S'tVH'
p2181
I1
tp2182
a(S'peer'
p2183
I1
tp2184
a(S'ISVALIDQDIR'
p2185
I1
tp2186
a(S'permitted'
p2187
I1
tp2188
a(S'DontPruneRoutes'
p2189
I1
tp2190
a(S'AYAZH'
p2191
I1
tp2192
a(S'dollars'
p2193
I1
tp2194
a(S'Argument'
p2195
I1
tp2196
a(S'misleading'
p2197
I1
tp2198
a(S'AVH'
p2199
I1
tp2200
a(S'AVD'
p2201
I1
tp2202
a(S'AVE'
p2203
I1
tp2204
a(S'REMOVED'
p2205
I1
tp2206
a(S'automatically'
p2207
I1
tp2208
a(S'wildcards'
p2209
I1
tp2210
a(S'raised'
p2211
I1
tp2212
a(S'contains'
p2213
I1
tp2214
a(S'subr'
p2215
I1
tp2216
a(S'PfD'
p2217
I1
tp2218
a(S'lied'
p2219
I1
tp2220
a(S'facility'
p2221
I1
tp2222
a(S'lkyotocabinet'
p2223
I1
tp2224
a(S'down'
p2225
I1
tp2226
a(S'sff'
p2227
I1
tp2228
a(S'unspec'
p2229
I1
tp2230
a(S'soml'
p2231
I1
tp2232
a(S'strerr'
p2233
I1
tp2234
a(S'FallbackMX'
p2235
I1
tp2236
a(S'compression'
p2237
I1
tp2238
a(S'transcript'
p2239
I1
tp2240
a(S'support'
p2241
I1
tp2242
a(S'truncated'
p2243
I1
tp2244
a(S'avail'
p2245
I1
tp2246
a(S'HASNICE'
p2247
I1
tp2248
a(S'was'
p2249
I1
tp2250
a(S'fork'
p2251
I1
tp2252
a(S'maildir'
p2253
I1
tp2254
a(S'FuzH'
p2255
I1
tp2256
a(S'setlocale'
p2257
I1
tp2258
a(S'failure'
p2259
I1
tp2260
a(S'heap'
p2261
I1
tp2262
a(S'bestmx'
p2263
I1
tp2264
a(S'QPINGONSUCCESS'
p2265
I1
tp2266
a(S'removed'
p2267
I1
tp2268
a(S'CVT'
p2269
I1
tp2270
a(S'tUATUH'
p2271
I1
tp2272
a(S'STDDEF'
p2273
I1
tp2274
a(S'urgent'
p2275
I1
tp2276
a(S'maximum'
p2277
I1
tp2278
a(S'tell'
p2279
I1
tp2280
a(S'unref'
p2281
I1
tp2282
a(S'Valid'
p2283
I1
tp2284
a(S'mta'
p2285
I1
tp2286
a(S'FOUND'
p2287
I1
tp2288
a(S'RETRY'
p2289
I1
tp2290
a(S'nO'
p2291
I1
tp2292
a(S'AVSH'
p2293
I1
tp2294
a(S'blocksize'
p2295
I1
tp2296
a(S'escape'
p2297
I1
tp2298
a(S'nE'
p2299
I1
tp2300
a(S'SingleLineFromHeader'
p2301
I1
tp2302
a(S'tiE'
p2303
I1
tp2304
a(S'LOGIN'
p2305
I1
tp2306
a(S'descr'
p2307
I1
tp2308
a(S'when'
p2309
I1
tp2310
a(S'Possible'
p2311
I1
tp2312
a(S'RecipientFactor'
p2313
I1
tp2314
a(S'flood'
p2315
I1
tp2316
a(S'Running'
p2317
I1
tp2318
a(S'vwH'
p2319
I1
tp2320
a(S'groupwritableincludefile'
p2321
I1
tp2322
a(S'np'
p2323
I1
tp2324
a(S'nr'
p2325
I1
tp2326
a(S'ns'
p2327
I1
tp2328
a(S'nu'
p2329
I1
tp2330
a(S'lhlo'
p2331
I1
tp2332
a(S'unbalanced'
p2333
I1
tp2334
a(S'filedeliverytosymlink'
p2335
I1
tp2336
a(S'mutool'
p2337
I1
tp2338
a(S'truncate'
p2339
I1
tp2340
a(S'sqr'
p2341
I1
tp2342
a(S'slink'
p2343
I1
tp2344
a(S'ntop'
p2345
I1
tp2346
a(S'KtEH'
p2347
I1
tp2348
a(S'VALUE'
p2349
I1
tp2350
a(S'tNAVL'
p2351
I1
tp2352
a(S'retry'
p2353
I1
tp2354
a(S'getegid'
p2355
I1
tp2356
a(S'sql'
p2357
I1
tp2358
a(S'ntoa'
p2359
I1
tp2360
a(S'unlocking'
p2361
I1
tp2362
a(S'died'
p2363
I1
tp2364
a(S'longer'
p2365
I1
tp2366
a(S'groupreadablesasldbfile'
p2367
I1
tp2368
a(S'interval'
p2369
I1
tp2370
a(S'gidNumber'
p2371
I1
tp2372
a(S'xXHc'
p2373
I1
tp2374
a(S'stripping'
p2375
I1
tp2376
a(S'queuegroup'
p2377
I1
tp2378
a(S'tempfailing'
p2379
I1
tp2380
a(S'ZYtPH'
p2381
I1
tp2382
a(S'EOF'
p2383
I1
tp2384
a(S'chain'
p2385
I1
tp2386
a(S'chompheader'
p2387
I1
tp2388
a(S'datum'
p2389
I1
tp2390
a(S'EOM'
p2391
I1
tp2392
a(S'EOL'
p2393
I1
tp2394
a(S'comments'
p2395
I1
tp2396
a(S'rop'
p2397
I1
tp2398
a(S'unparsable'
p2399
I1
tp2400
a(S'linkedforwardfileinwritabledir'
p2401
I1
tp2402
a(S'honoring'
p2403
I1
tp2404
a(S'sMTP'
p2405
I1
tp2406
a(S'IFNHELO'
p2407
I1
tp2408
a(S'permanently'
p2409
I1
tp2410
a(S'imaps'
p2411
I1
tp2412
a(S'digestbyname'
p2413
I1
tp2414
a(S'allocate'
p2415
I1
tp2416
a(S'ENHANCEDSTATUSCODES'
p2417
I1
tp2418
a(S'FULL'
p2419
I1
tp2420
a(S'NOTLS'
p2421
I1
tp2422
a(S'setoption'
p2423
I1
tp2424
a(S'addheader'
p2425
I1
tp2426
a(S'LHS'
p2427
I1
tp2428
a(S'nesting'
p2429
I1
tp2430
a(S'datainit'
p2431
I1
tp2432
a(S'entries'
p2433
I1
tp2434
a(S'SENDRECEIPT'
p2435
I1
tp2436
a(S'tFH'
p2437
I1
tp2438
a(S'minute'
p2439
I1
tp2440
a(S'Hellman'
p2441
I1
tp2442
a(S'NOQUEUE'
p2443
I1
tp2444
a(S'WRFILE'
p2445
I1
tp2446
a(S'did'
p2447
I1
tp2448
a(S'rulesets'
p2449
I1
tp2450
a(S'suboptions'
p2451
I1
tp2452
a(S'leave'
p2453
I1
tp2454
a(S'QueuePath'
p2455
I1
tp2456
a(S'quick'
p2457
I1
tp2458
a(S'NonRootSafeAddr'
p2459
I1
tp2460
a(S'dir'
p2461
I1
tp2462
a(S'Canonical'
p2463
I1
tp2464
a(S'LONGLONG'
p2465
I1
tp2466
a(S'unexpected'
p2467
I1
tp2468
a(S'peek'
p2469
I1
tp2470
a(S'DEXZt'
p2471
I1
tp2472
a(S'sget'
p2473
I1
tp2474
a(S'IDENT'
p2475
I1
tp2476
a(S'btree'
p2477
I1
tp2478
a(S'sendmailMTAClass'
p2479
I1
tp2480
a(S'Checking'
p2481
I1
tp2482
a(S'openlog'
p2483
I1
tp2484
a(S'tWH'
p2485
I1
tp2486
a(S'template'
p2487
I1
tp2488
a(S'lastrun'
p2489
I1
tp2490
a(S'processing'
p2491
I1
tp2492
a(S'Mc'
p2493
I1
tp2494
a(S'STRCPY'
p2495
I1
tp2496
a(S'DSN'
p2497
I1
tp2498
a(S'Mw'
p2499
I1
tp2500
a(S'setregid'
p2501
I1
tp2502
a(S'DSH'
p2503
I1
tp2504
a(S'SSLeay'
p2505
I1
tp2506
a(S'My'
p2507
I1
tp2508
a(S'change'
p2509
I1
tp2510
a(S'wait'
p2511
I1
tp2512
a(S'sending'
p2513
I1
tp2514
a(S'LtP'
p2515
I1
tp2516
a(S'SENDER'
p2517
I1
tp2518
a(S'INT'
p2519
I1
tp2520
a(S'my'
p2521
I1
tp2522
a(S'DSt'
p2523
I1
tp2524
a(S'nextrun'
p2525
I1
tp2526
a(S'exiting'
p2527
I1
tp2528
a(S'queue'
p2529
I1
tp2530
a(S'hops'
p2531
I1
tp2532
a(S'delimiter'
p2533
I1
tp2534
a(S'AYAZ'
p2535
I1
tp2536
a(S'MS'
p2537
I1
tp2538
a(S'suser'
p2539
I1
tp2540
a(S'Command'
p2541
I1
tp2542
a(S'tempname'
p2543
I1
tp2544
a(S'currHeader'
p2545
I1
tp2546
a(S'tPIcV'
p2547
I1
tp2548
a(S'SSLV'
p2549
I1
tp2550
a(S'getinfo'
p2551
I1
tp2552
a(S'READ'
p2553
I1
tp2554
a(S'dowork'
p2555
I1
tp2556
a(S'ERROR'
p2557
I1
tp2558
a(S'globbing'
p2559
I1
tp2560
a(S'qualified'
p2561
I1
tp2562
a(S'CIPHER'
p2563
I1
tp2564
a(S'fake'
p2565
I1
tp2566
a(S'Lc'
p2567
I1
tp2568
a(S'ENVID'
p2569
I1
tp2570
a(S'SSLv'
p2571
I1
tp2572
a(S'working'
p2573
I1
tp2574
a(S'pref'
p2575
I1
tp2576
a(S'Hello'
p2577
I1
tp2578
a(S'handler'
p2579
I1
tp2580
a(S'includefileinunsafedirpathsafe'
p2581
I1
tp2582
a(S'QPINGONDELAY'
p2583
I1
tp2584
a(S'DOt'
p2585
I1
tp2586
a(S'COMMANDs'
p2587
I1
tp2588
a(S'tkUSH'
p2589
I1
tp2590
a(S'Default'
p2591
I1
tp2592
a(S'finis'
p2593
I1
tp2594
a(S'qdcount'
p2595
I1
tp2596
a(S'envelope'
p2597
I1
tp2598
a(S'OBfK'
p2599
I1
tp2600
a(S'Interrupt'
p2601
I1
tp2602
a(S'gettimeofday'
p2603
I1
tp2604
a(S'Processed'
p2605
I1
tp2606
a(S'Time'
p2607
I1
tp2608
a(S'rKL'
p2609
I1
tp2610
a(S'CCNAME'
p2611
I1
tp2612
a(S'QUIT'
p2613
I1
tp2614
a(S'vexpansion'
p2615
I1
tp2616
a(S'Dump'
p2617
I1
tp2618
a(S'Family'
p2619
I1
tp2620
a(S'privs'
p2621
I1
tp2622
a(S'Transcript'
p2623
I1
tp2624
a(S'SINGLE'
p2625
I1
tp2626
a(S'cleanstrcpy'
p2627
I1
tp2628
a(S'purge'
p2629
I1
tp2630
a(S'gatherq'
p2631
I1
tp2632
a(S'can'
p2633
I1
tp2634
a(S'sSubject'
p2635
I1
tp2636
a(S'following'
p2637
I1
tp2638
a(S'fget'
p2639
I1
tp2640
a(S'Out'
p2641
I1
tp2642
a(S'dfqdir'
p2643
I1
tp2644
a(S'lockf'
p2645
I1
tp2646
a(S'sysconf'
p2647
I1
tp2648
a(S'INHEADER'
p2649
I1
tp2650
a(S'nobodyreturn'
p2651
I1
tp2652
a(S'uidNumber'
p2653
I1
tp2654
a(S'mailboxes'
p2655
I1
tp2656
a(S'uHH'
p2657
I1
tp2658
a(S'topic'
p2659
I1
tp2660
a(S'BAD'
p2661
I1
tp2662
a(S'AUATE'
p2663
I1
tp2664
a(S'CRLFile'
p2665
I1
tp2666
a(S'AUATH'
p2667
I1
tp2668
a(S'AUATI'
p2669
I1
tp2670
a(S'YOUR'
p2671
I1
tp2672
a(S'AUATM'
p2673
I1
tp2674
a(S'XHc'
p2675
I1
tp2676
a(S'chroot'
p2677
I1
tp2678
a(S'requirements'
p2679
I1
tp2680
a(S'maxlen'
p2681
I1
tp2682
a(S'DATA'
p2683
I1
tp2684
a(S'Who'
p2685
I1
tp2686
a(S'defnames'
p2687
I1
tp2688
a(S'foreach'
p2689
I1
tp2690
a(S'ensure'
p2691
I1
tp2692
a(S'LEVEL'
p2693
I1
tp2694
a(S'DelayLA'
p2695
I1
tp2696
a(S'REGEX'
p2697
I1
tp2698
a(S'map'
p2699
I1
tp2700
a(S'may'
p2701
I1
tp2702
a(S'max'
p2703
I1
tp2704
a(S'clone'
p2705
I1
tp2706
a(S'fileclass'
p2707
I1
tp2708
a(S'TimeZoneSpec'
p2709
I1
tp2710
a(S'sM'
p2711
I1
tp2712
a(S'commit'
p2713
I1
tp2714
a(S'sz'
p2715
I1
tp2716
a(S'sy'
p2717
I1
tp2718
a(S'sx'
p2719
I1
tp2720
a(S'succeeded'
p2721
I1
tp2722
a(S'maybe'
p2723
I1
tp2724
a(S'stdio'
p2725
I1
tp2726
a(S'su'
p2727
I1
tp2728
a(S'st'
p2729
I1
tp2730
a(S'sk'
p2731
I1
tp2732
a(S'switch'
p2733
I1
tp2734
a(S'sh'
p2735
I1
tp2736
a(S'obp'
p2737
I1
tp2738
a(S'sm'
p2739
I1
tp2740
a(S'definitions'
p2741
I1
tp2742
a(S'increase'
p2743
I1
tp2744
a(S'remotename'
p2745
I1
tp2746
a(S'sendenvelope'
p2747
I1
tp2748
a(S'RESET'
p2749
I1
tp2750
a(S'cZY'
p2751
I1
tp2752
a(S'Rr'
p2753
I1
tp2754
a(S'tts'
p2755
I1
tp2756
a(S'EightBitMode'
p2757
I1
tp2758
a(S'Use'
p2759
I1
tp2760
a(S'characters'
p2761
I1
tp2762
a(S'feature'
p2763
I1
tp2764
a(S'testselfdestruct'
p2765
I1
tp2766
a(S'DEXZ'
p2767
I1
tp2768
a(S'INITIALIZE'
p2769
I1
tp2770
a(S'IiL'
p2771
I1
tp2772
a(S'still'
p2773
I1
tp2774
a(S'VFS'
p2775
I1
tp2776
a(S'restrictexpand'
p2777
I1
tp2778
a(S'trymx'
p2779
I1
tp2780
a(S'NAMED'
p2781
I1
tp2782
a(S'HAS'
p2783
I1
tp2784
a(S'pipelining'
p2785
I1
tp2786
a(S'ETRNONLY'
p2787
I1
tp2788
a(S'ttL'
p2789
I1
tp2790
a(S'RH'
p2791
I1
tp2792
a(S'RI'
p2793
I1
tp2794
a(S'ttE'
p2795
I1
tp2796
a(S'renaming'
p2797
I1
tp2798
a(S'Received'
p2799
I1
tp2800
a(S'non'
p2801
I1
tp2802
a(S'env'
p2803
I1
tp2804
a(S'tjf'
p2805
I1
tp2806
a(S'RunAsGid'
p2807
I1
tp2808
a(S'unlockqueue'
p2809
I1
tp2810
a(S'undisclosed'
p2811
I1
tp2812
a(S'Maximum'
p2813
I1
tp2814
a(S'introduce'
p2815
I1
tp2816
a(S'records'
p2817
I1
tp2818
a(S'BASE'
p2819
I1
tp2820
a(S'DLVR'
p2821
I1
tp2822
a(S'uVA'
p2823
I1
tp2824
a(S'Closing'
p2825
I1
tp2826
a(S'runners'
p2827
I1
tp2828
a(S'pflags'
p2829
I1
tp2830
a(S'RHS'
p2831
I1
tp2832
a(S'drop'
p2833
I1
tp2834
a(S'srebuilt'
p2835
I1
tp2836
a(S'alter'
p2837
I1
tp2838
a(S'cached'
p2839
I1
tp2840
a(S'sendto'
p2841
I1
tp2842
a(S'Sendq'
p2843
I1
tp2844
a(S'memchr'
p2845
I1
tp2846
a(S'NhE'
p2847
I1
tp2848
a(S'HOSTNAME'
p2849
I1
tp2850
a(S'SASLv'
p2851
I1
tp2852
a(S'GWFILE'
p2853
I1
tp2854
a(S'tFE'
p2855
I1
tp2856
a(S'eg'
p2857
I1
tp2858
a(S'receipt'
p2859
I1
tp2860
a(S'firstkey'
p2861
I1
tp2862
a(S'GPPH'
p2863
I1
tp2864
a(S'unlock'
p2865
I1
tp2866
a(S'fs'
p2867
I1
tp2868
a(S'DONE'
p2869
I1
tp2870
a(S'checkptr'
p2871
I1
tp2872
a(S'entering'
p2873
I1
tp2874
a(S'eu'
p2875
I1
tp2876
a(S'happen'
p2877
I1
tp2878
a(S'DefUser'
p2879
I1
tp2880
a(S'FINAL'
p2881
I1
tp2882
a(S'abcdefghijklmnopqrstuvwxyz'
p2883
I1
tp2884
a(S'eH'
p2885
I1
tp2886
a(S'TEMP'
p2887
I1
tp2888
a(S'space'
p2889
I1
tp2890
a(S'eD'
p2891
I1
tp2892
a(S'authid'
p2893
I1
tp2894
a(S'MAXFILTERS'
p2895
I1
tp2896
a(S'smiostdin'
p2897
I1
tp2898
a(S'trylocaluser'
p2899
I1
tp2900
a(S'worldwritableincludefile'
p2901
I1
tp2902
a(S'nsw'
p2903
I1
tp2904
a(S'REQUIRES'
p2905
I1
tp2906
a(S'showq'
p2907
I1
tp2908
a(S'argp'
p2909
I1
tp2910
a(S'asprintf'
p2911
I1
tp2912
a(S'mechanisms'
p2913
I1
tp2914
a(S'lmu'
p2915
I1
tp2916
a(S'vjH'
p2917
I1
tp2918
a(S'mime'
p2919
I1
tp2920
a(S'org'
p2921
I1
tp2922
a(S'getpeername'
p2923
I1
tp2924
a(S'argc'
p2925
I1
tp2926
a(S'qk'
p2927
I1
tp2928
a(S'sPart'
p2929
I1
tp2930
a(S'Already'
p2931
I1
tp2932
a(S'smstdio'
p2933
I1
tp2934
a(S'couldn'
p2935
I1
tp2936
a(S'language'
p2937
I1
tp2938
a(S'locations'
p2939
I1
tp2940
a(S'rule'
p2941
I1
tp2942
a(S'suid'
p2943
I1
tp2944
a(S'SendMimeErrors'
p2945
I1
tp2946
a(S'SENDMAIL'
p2947
I1
tp2948
a(S'Parsing'
p2949
I1
tp2950
a(S'vmlinux'
p2951
I1
tp2952
a(S'initiate'
p2953
I1
tp2954
a(S'NORECEIPT'
p2955
I1
tp2956
a(S'PIPELINED'
p2957
I1
tp2958
a(S'sIn'
p2959
I1
tp2960
a(S'smtpquit'
p2961
I1
tp2962
a(S'OpMode'
p2963
I1
tp2964
a(S'UnixFromLine'
p2965
I1
tp2966
a(S'Flags'
p2967
I1
tp2968
a(S'cgrp'
p2969
I1
tp2970
a(S'ATE'
p2971
I1
tp2972
a(S'saving'
p2973
I1
tp2974
a(S'UNKNOWN'
p2975
I1
tp2976
a(S'xtrap'
p2977
I1
tp2978
a(S'xg'
p2979
I1
tp2980
a(S'reopen'
p2981
I1
tp2982
a(S'ATU'
p2983
I1
tp2984
a(S'returntosender'
p2985
I1
tp2986
a(S'submit'
p2987
I1
tp2988
a(S'directly'
p2989
I1
tp2990
a(S'impossible'
p2991
I1
tp2992
a(S'forwarding'
p2993
I1
tp2994
a(S'userdb'
p2995
I1
tp2996
a(S'xH'
p2997
I1
tp2998
a(S'xI'
p2999
I1
tp3000
a(S'xN'
p3001
I1
tp3002
a(S'exists'
p3003
I1
tp3004
a(S'AliasWait'
p3005
I1
tp3006
a(S'xM'
p3007
I1
tp3008
a(S'libreadline'
p3009
I1
tp3010
a(S'fmt'
p3011
I1
tp3012
a(S'AGENT'
p3013
I1
tp3014
a(S'xE'
p3015
I1
tp3016
a(S'returnq'
p3017
I1
tp3018
a(S'ATUS'
p3019
I1
tp3020
a(S'returns'
p3021
I1
tp3022
a(S'Date'
p3023
I1
tp3024
a(S'SASL'
p3025
I1
tp3026
a(S'SEM'
p3027
I1
tp3028
a(S'bits'
p3029
I1
tp3030
a(S'arith'
p3031
I1
tp3032
a(S'that'
p3033
I1
tp3034
a(S'memfree'
p3035
I1
tp3036
a(S'Client'
p3037
I1
tp3038
a(S'returnable'
p3039
I1
tp3040
a(S'Rejecting'
p3041
I1
tp3042
a(S'rReEdD'
p3043
I1
tp3044
a(S'errorheaderinunsafedirpath'
p3045
I1
tp3046
a(S'than'
p3047
I1
tp3048
a(S'specify'
p3049
I1
tp3050
a(S'Verbose'
p3051
I1
tp3052
a(S'INFO'
p3053
I1
tp3054
a(S'connections'
p3055
I1
tp3056
a(S'AWAVD'
p3057
I1
tp3058
a(S'AWAVE'
p3059
I1
tp3060
a(S'statfs'
p3061
I1
tp3062
a(S'AWAVL'
p3063
I1
tp3064
a(S'AWAVM'
p3065
I1
tp3066
a(S'AWAVH'
p3067
I1
tp3068
a(S'tPH'
p3069
I1
tp3070
a(S'NUMBER'
p3071
I1
tp3072
a(S'loadavg'
p3073
I1
tp3074
a(S'stls'
p3075
I1
tp3076
a(S'XtSH'
p3077
I1
tp3078
a(S'lmap'
p3079
I1
tp3080
a(S'WorkList'
p3081
I1
tp3082
a(S'linkedincludefileinwritabledir'
p3083
I1
tp3084
a(S'DO'
p3085
I1
tp3086
a(S'DL'
p3087
I1
tp3088
a(S'DM'
p3089
I1
tp3090
a(S'DH'
p3091
I1
tp3092
a(S'DI'
p3093
I1
tp3094
a(S'DF'
p3095
I1
tp3096
a(S'DD'
p3097
I1
tp3098
a(S'DE'
p3099
I1
tp3100
a(S'DB'
p3101
I1
tp3102
a(S'rresvport'
p3103
I1
tp3104
a(S'DA'
p3105
I1
tp3106
a(S'getpass'
p3107
I1
tp3108
a(S'insheader'
p3109
I1
tp3110
a(S'CRIT'
p3111
I1
tp3112
a(S'Mail'
p3113
I1
tp3114
a(S'DT'
p3115
I1
tp3116
a(S'DU'
p3117
I1
tp3118
a(S'DR'
p3119
I1
tp3120
a(S'Do'
p3121
I1
tp3122
a(S'msgfree'
p3123
I1
tp3124
a(S'fA'
p3125
I1
tp3126
a(S'offer'
p3127
I1
tp3128
a(S'smtpmailfrom'
p3129
I1
tp3130
a(S'Operating'
p3131
I1
tp3132
a(S'Jgv'
p3133
I1
tp3134
a(S'fpos'
p3135
I1
tp3136
a(S'environ'
p3137
I1
tp3138
a(S'Dt'
p3139
I1
tp3140
a(S'Du'
p3141
I1
tp3142
a(S'NOTSEP'
p3143
I1
tp3144
a(S'postmaster'
p3145
I1
tp3146
a(S'getlogin'
p3147
I1
tp3148
a(S'multiple'
p3149
I1
tp3150
a(S'Name'
p3151
I1
tp3152
a(S'normal'
p3153
I1
tp3154
a(S'Drop'
p3155
I1
tp3156
a(S'orcpt'
p3157
I1
tp3158
a(S'strpbrk'
p3159
I1
tp3160
a(S'retrieve'
p3161
I1
tp3162
a(S'printed'
p3163
I1
tp3164
a(S'opterr'
p3165
I1
tp3166
a(S'KRBTKFILE'
p3167
I1
tp3168
a(S'INCLUDED'
p3169
I1
tp3170
a(S'wqAWAVA'
p3171
I1
tp3172
a(S'Queuing'
p3173
I1
tp3174
a(S'mqueue'
p3175
I1
tp3176
a(S'sType'
p3177
I1
tp3178
a(S'UFROM'
p3179
I1
tp3180
a(S'notifications'
p3181
I1
tp3182
a(S'discarding'
p3183
I1
tp3184
a(S'average'
p3185
I1
tp3186
a(S'later'
p3187
I1
tp3188
a(S'TCPWRAPPERS'
p3189
I1
tp3190
a(S'pattern'
p3191
I1
tp3192
a(S'sendmailMTAMapObject'
p3193
I1
tp3194
a(S'QRELAYED'
p3195
I1
tp3196
a(S'vfprintf'
p3197
I1
tp3198
a(S'FQMAIL'
p3199
I1
tp3200
a(S'WF'
p3201
I1
tp3202
a(S'nls'
p3203
I1
tp3204
a(S'DNS'
p3205
I1
tp3206
a(S'EXTEND'
p3207
I1
tp3208
a(S'show'
p3209
I1
tp3210
a(S'retrans'
p3211
I1
tp3212
a(S'WK'
p3213
I1
tp3214
a(S'regfree'
p3215
I1
tp3216
a(S'WI'
p3217
I1
tp3218
a(S'WH'
p3219
I1
tp3220
a(S'abilities'
p3221
I1
tp3222
a(S'Authentication'
p3223
I1
tp3224
a(S'uUH'
p3225
I1
tp3226
a(S'Test'
p3227
I1
tp3228
a(S'slot'
p3229
I1
tp3230
a(S'xtext'
p3231
I1
tp3232
a(S'pager'
p3233
I1
tp3234
a(S'libpthread'
p3235
I1
tp3236
a(S'EXPANDED'
p3237
I1
tp3238
a(S'BadRcptThrottle'
p3239
I1
tp3240
a(S'authinfo'
p3241
I1
tp3242
a(S'WARNING'
p3243
I1
tp3244
a(S'sendmailMTAClassURL'
p3245
I1
tp3246
a(S'hoststat'
p3247
I1
tp3248
a(S'METOO'
p3249
I1
tp3250
a(S'over'
p3251
I1
tp3252
a(S'closed'
p3253
I1
tp3254
a(S'atexit'
p3255
I1
tp3256
a(S'GSSAPI'
p3257
I1
tp3258
a(S'outlen'
p3259
I1
tp3260
a(S'ssl'
p3261
I1
tp3262
a(S'PASS'
p3263
I1
tp3264
a(S'ssf'
p3265
I1
tp3266
a(S'boundary'
p3267
I1
tp3268
a(S'internaldate'
p3269
I1
tp3270
a(S'vGH'
p3271
I1
tp3272
a(S'CERT'
p3273
I1
tp3274
a(S'held'
p3275
I1
tp3276
a(S'UserDatabaseSpec'
p3277
I1
tp3278
a(S'MU'
p3279
I1
tp3280
a(S'summary'
p3281
I1
tp3282
a(S'SYS'
p3283
I1
tp3284
a(S'subtype'
p3285
I1
tp3286
a(S'homeDirectory'
p3287
I1
tp3288
a(S'sendall'
p3289
I1
tp3290
a(S'YES'
p3291
I1
tp3292
a(S'where'
p3293
I1
tp3294
a(S'HELP'
p3295
I1
tp3296
a(S'kv'
p3297
I1
tp3298
a(S'endp'
p3299
I1
tp3300
a(S'fflags'
p3301
I1
tp3302
a(S'maxrcpts'
p3303
I1
tp3304
a(S'KERBEROS'
p3305
I1
tp3306
a(S'writemaptohardlink'
p3307
I1
tp3308
a(S'relative'
p3309
I1
tp3310
a(S'lmailutils'
p3311
I1
tp3312
a(S'jx'
p3313
I1
tp3314
a(S'HELO'
p3315
I1
tp3316
a(S'tuqA'
p3317
I1
tp3318
a(S'LINE'
p3319
I1
tp3320
a(S'fails'
p3321
I1
tp3322
a(S'invoked'
p3323
I1
tp3324
a(S'deliveryMode'
p3325
I1
tp3326
a(S'openmailer'
p3327
I1
tp3328
a(S'configurations'
p3329
I1
tp3330
a(S'label'
p3331
I1
tp3332
a(S'boundaries'
p3333
I1
tp3334
a(S'SmExcTypeMagic'
p3335
I1
tp3336
a(S'dequote'
p3337
I1
tp3338
a(S'QueueTimeout'
p3339
I1
tp3340
a(S'checks'
p3341
I1
tp3342
a(S'fcntl'
p3343
I1
tp3344
a(S'ECHILD'
p3345
I1
tp3346
a(S'jobs'
p3347
I1
tp3348
a(S'udbx'
p3349
I1
tp3350
a(S'parent'
p3351
I1
tp3352
a(S'tgATUE'
p3353
I1
tp3354
a(S'comp'
p3355
I1
tp3356
a(S'queueing'
p3357
I1
tp3358
a(S'checkfdopen'
p3359
I1
tp3360
a(S'ungetc'
p3361
I1
tp3362
a(S'statdate'
p3363
I1
tp3364
a(S'suppressed'
p3365
I1
tp3366
a(S'jc'
p3367
I1
tp3368
a(S'hostsignature'
p3369
I1
tp3370
a(S'jZ'
p3371
I1
tp3372
a(S'job'
p3373
I1
tp3374
a(S'jH'
p3375
I1
tp3376
a(S'StatusFile'
p3377
I1
tp3378
a(S'wsetup'
p3379
I1
tp3380
a(S'tzset'
p3381
I1
tp3382
a(S'stream'
p3383
I1
tp3384
a(S'terse'
p3385
I1
tp3386
a(S'continuation'
p3387
I1
tp3388
a(S'AXAYu'
p3389
I1
tp3390
a(S'pop'
p3391
I1
tp3392
a(S'XdH'
p3393
I1
tp3394
a(S'PEM'
p3395
I1
tp3396
a(S'colon'
p3397
I1
tp3398
a(S'assertions'
p3399
I1
tp3400
a(S'toupper'
p3401
I1
tp3402
a(S'miscshort'
p3403
I1
tp3404
a(S'AXAYf'
p3405
I1
tp3406
a(S'msgset'
p3407
I1
tp3408
a(S'COL'
p3409
I1
tp3410
a(S'save'
p3411
I1
tp3412
a(S'rcfile'
p3413
I1
tp3414
a(S'quickabort'
p3415
I1
tp3416
a(S'subscribed'
p3417
I1
tp3418
a(S'Milter'
p3419
I1
tp3420
a(S'maxact'
p3421
I1
tp3422
a(S'OPTIONAL'
p3423
I1
tp3424
a(S'rebuild'
p3425
I1
tp3426
a(S'tQH'
p3427
I1
tp3428
a(S'mark'
p3429
I1
tp3430
a(S'gocs'
p3431
I1
tp3432
a(S'syscall'
p3433
I1
tp3434
a(S'AXAYL'
p3435
I1
tp3436
a(S'AXAYH'
p3437
I1
tp3438
a(S'groupwritablesasldbfile'
p3439
I1
tp3440
a(S'setuserenv'
p3441
I1
tp3442
a(S'AXAYD'
p3443
I1
tp3444
a(S'QueueLA'
p3445
I1
tp3446
a(S'INET'
p3447
I1
tp3448
a(S'systems'
p3449
I1
tp3450
a(S'RealHostAddr'
p3451
I1
tp3452
a(S'COMP'
p3453
I1
tp3454
a(S'Establish'
p3455
I1
tp3456
a(S'quarantined'
p3457
I1
tp3458
a(S'HASUNSETENV'
p3459
I1
tp3460
a(S'FAIL'
p3461
I1
tp3462
a(S'tGH'
p3463
I1
tp3464
a(S'tGL'
p3465
I1
tp3466
a(S'hdH'
p3467
I1
tp3468
a(S'char'
p3469
I1
tp3470
a(S'myself'
p3471
I1
tp3472
a(S'MaxDaemonChildren'
p3473
I1
tp3474
a(S'OLDSTYLE'
p3475
I1
tp3476
a(S'compiling'
p3477
I1
tp3478
a(S'premature'
p3479
I1
tp3480
a(S'CHECK'
p3481
I1
tp3482
a(S'compile'
p3483
I1
tp3484
a(S'ssecure'
p3485
I1
tp3486
a(S'QUERY'
p3487
I1
tp3488
a(S'CheckpointInterval'
p3489
I1
tp3490
a(S'setuid'
p3491
I1
tp3492
a(S'finduser'
p3493
I1
tp3494
a(S'ErrorHeader'
p3495
I1
tp3496
a(S'mbdb'
p3497
I1
tp3498
a(S'binding'
p3499
I1
tp3500
a(S'Transfer'
p3501
I1
tp3502
a(S'canon'
p3503
I1
tp3504
a(S'sleeping'
p3505
I1
tp3506
a(S'ASSERT'
p3507
I1
tp3508
a(S'MailboxDatabase'
p3509
I1
tp3510
a(S'sendtolist'
p3511
I1
tp3512
a(S'filesys'
p3513
I1
tp3514
a(S'abcdef'
p3515
I1
tp3516
a(S'DIR'
p3517
I1
tp3518
a(S'binary'
p3519
I1
tp3520
a(S'par'
p3521
I1
tp3522
a(S'Format'
p3523
I1
tp3524
a(S'author'
p3525
I1
tp3526
a(S'Ready'
p3527
I1
tp3528
a(S'locking'
p3529
I1
tp3530
a(S'same'
p3531
I1
tp3532
a(S'uxE'
p3533
I1
tp3534
a(S'vprintf'
p3535
I1
tp3536
a(S'shmdt'
p3537
I1
tp3538
a(S'subdomain'
p3539
I1
tp3540
a(S'pam'
p3541
I1
tp3542
a(S'uxH'
p3543
I1
tp3544
a(S'SOFTWARE'
p3545
I1
tp3546
a(S'IX'
p3547
I1
tp3548
a(S'finish'
p3549
I1
tp3550
a(S'hdrs'
p3551
I1
tp3552
a(S'IP'
p3553
I1
tp3554
a(S'IS'
p3555
I1
tp3556
a(S'tLIc'
p3557
I1
tp3558
a(S'LDAPDefaultSpec'
p3559
I1
tp3560
a(S'IH'
p3561
I1
tp3562
a(S'running'
p3563
I1
tp3564
a(S'IL'
p3565
I1
tp3566
a(S'unqualified'
p3567
I1
tp3568
a(S'calloc'
p3569
I1
tp3570
a(S'changing'
p3571
I1
tp3572
a(S'IC'
p3573
I1
tp3574
a(S'Ignoring'
p3575
I1
tp3576
a(S'DIGEST'
p3577
I1
tp3578
a(S'break'
p3579
I1
tp3580
a(S'EtV'
p3581
I1
tp3582
a(S'SIGLONGJMP'
p3583
I1
tp3584
a(S'macro'
p3585
I1
tp3586
a(S'envrcpt'
p3587
I1
tp3588
a(S'It'
p3589
I1
tp3590
a(S'vnew'
p3591
I1
tp3592
a(S'delrcpt'
p3593
I1
tp3594
a(S'In'
p3595
I1
tp3596
a(S'Ic'
p3597
I1
tp3598
a(S'setalias'
p3599
I1
tp3600
a(S'Id'
p3601
I1
tp3602
a(S'checkMIMEHeaders'
p3603
I1
tp3604
a(S'linkedaliasfileinwritabledir'
p3605
I1
tp3606
a(S'ServerSSLOptions'
p3607
I1
tp3608
a(S'getpwent'
p3609
I1
tp3610
a(S'lsub'
p3611
I1
tp3612
a(S'Service'
p3613
I1
tp3614
a(S'being'
p3615
I1
tp3616
a(S'Envelope'
p3617
I1
tp3618
a(S'rest'
p3619
I1
tp3620
a(S'hfunc'
p3621
I1
tp3622
a(S'kill'
p3623
I1
tp3624
a(S'DELIVERBY'
p3625
I1
tp3626
a(S'ASATH'
p3627
I1
tp3628
a(S'Scope'
p3629
I1
tp3630
a(S'QBYNRELAY'
p3631
I1
tp3632
a(S'libsasl'
p3633
I1
tp3634
a(S'needvrfyhelo'
p3635
I1
tp3636
a(S'Submitted'
p3637
I1
tp3638
a(S'mailnull'
p3639
I1
tp3640
a(S'hint'
p3641
I1
tp3642
a(S'writestatstosymlink'
p3643
I1
tp3644
a(S'MEMFREE'
p3645
I1
tp3646
a(S'param'
p3647
I1
tp3648
a(S'sendmailMTAAliasValue'
p3649
I1
tp3650
a(S'InputFilter'
p3651
I1
tp3652
a(S'eatheader'
p3653
I1
tp3654
a(S'Change'
p3655
I1
tp3656
a(S'AUTHREQ'
p3657
I1
tp3658
a(S'real'
p3659
I1
tp3660
a(S'envid'
p3661
I1
tp3662
a(S'Unimpl'
p3663
I1
tp3664
a(S'undelivered'
p3665
I1
tp3666
a(S'test'
p3667
I1
tp3668
a(S'VfAP'
p3669
I1
tp3670
a(S'traffic'
p3671
I1
tp3672
a(S'world'
p3673
I1
tp3674
a(S'accepted'
p3675
I1
tp3676
a(S'UIDL'
p3677
I1
tp3678
a(S'SIZE'
p3679
I1
tp3680
a(S'Subsystem'
p3681
I1
tp3682
a(S'sendmailMTAKey'
p3683
I1
tp3684
a(S'memmove'
p3685
I1
tp3686
a(S'QALIAS'
p3687
I1
tp3688
a(S'Pid'
p3689
I1
tp3690
a(S'greeting'
p3691
I1
tp3692
a(S'discarded'
p3693
I1
tp3694
a(S'fully'
p3695
I1
tp3696
a(S'HASFCHOWN'
p3697
I1
tp3698
a(S'stringlen'
p3699
I1
tp3700
a(S'Operation'
p3701
I1
tp3702
a(S'nice'
p3703
I1
tp3704
a(S'nest'
p3705
I1
tp3706
a(S'RejectLogInterval'
p3707
I1
tp3708
a(S'uIA'
p3709
I1
tp3710
a(S'Inappropriate'
p3711
I1
tp3712
a(S'readdir'
p3713
I1
tp3714
a(S'srvfeatures'
p3715
I1
tp3716
a(S'unselect'
p3717
I1
tp3718
a(S'qdir'
p3719
I1
tp3720
a(S'COOKIE'
p3721
I1
tp3722
a(S'ProcessTitlePrefix'
p3723
I1
tp3724
a(S'abbreviation'
p3725
I1
tp3726
a(S'ATUSt'
p3727
I1
tp3728
a(S'DISCARD'
p3729
I1
tp3730
a(S'matching'
p3731
I1
tp3732
a(S'MSGSET'
p3733
I1
tp3734
a(S'ATUSH'
p3735
I1
tp3736
a(S'setvbuf'
p3737
I1
tp3738
a(S'loopback'
p3739
I1
tp3740
a(S'needmailhelo'
p3741
I1
tp3742
a(S'ATTACK'
p3743
I1
tp3744
a(S'CDSE'
p3745
I1
tp3746
a(S'tvL'
p3747
I1
tp3748
a(S'wdhms'
p3749
I1
tp3750
a(S'tvH'
p3751
I1
tp3752
a(S'stopped'
p3753
I1
tp3754
a(S'infile'
p3755
I1
tp3756
a(S'oL'
p3757
I1
tp3758
a(S'oI'
p3759
I1
tp3760
a(S'oH'
p3761
I1
tp3762
a(S'seconds'
p3763
I1
tp3764
a(S'noactualrecipient'
p3765
I1
tp3766
a(S'unmask'
p3767
I1
tp3768
a(S'update'
p3769
I1
tp3770
a(S'broken'
p3771
I1
tp3772
a(S'setdefuser'
p3773
I1
tp3774
a(S'OLD'
p3775
I1
tp3776
a(S'getnameinfo'
p3777
I1
tp3778
a(S'shmat'
p3779
I1
tp3780
a(S'SevenBitInput'
p3781
I1
tp3782
a(S'tdH'
p3783
I1
tp3784
a(S'ok'
p3785
I1
tp3786
a(S'findfp'
p3787
I1
tp3788
a(S'acl'
p3789
I1
tp3790
a(S'gfffD'
p3791
I1
tp3792
a(S'srv'
p3793
I1
tp3794
a(S'DELETE'
p3795
I1
tp3796
a(S'os'
p3797
I1
tp3798
a(S'RAND'
p3799
I1
tp3800
a(S'strio'
p3801
I1
tp3802
a(S'strin'
p3803
I1
tp3804
a(S'Duplicate'
p3805
I1
tp3806
a(S'secure'
p3807
I1
tp3808
a(S'accounts'
p3809
I1
tp3810
a(S'operator'
p3811
I1
tp3812
a(S'ORCPT'
p3813
I1
tp3814
a(S'shmsetowner'
p3815
I1
tp3816
a(S'Empty'
p3817
I1
tp3818
a(S'HASSETREUID'
p3819
I1
tp3820
a(S'loc'
p3821
I1
tp3822
a(S'Postmaster'
p3823
I1
tp3824
a(S'NL'
p3825
I1
tp3826
a(S'putenv'
p3827
I1
tp3828
a(S'shells'
p3829
I1
tp3830
a(S'fdopen'
p3831
I1
tp3832
a(S'removing'
p3833
I1
tp3834
a(S'MaxAliasRecursion'
p3835
I1
tp3836
a(S'ND'
p3837
I1
tp3838
a(S'rmdir'
p3839
I1
tp3840
a(S'cflags'
p3841
I1
tp3842
a(S'errstring'
p3843
I1
tp3844
a(S'README'
p3845
I1
tp3846
a(S'AXAYtKL'
p3847
I1
tp3848
a(S'NS'
p3849
I1
tp3850
a(S'NT'
p3851
I1
tp3852
a(S'ClientKeyFile'
p3853
I1
tp3854
a(S'treat'
p3855
I1
tp3856
a(S'ErrorMode'
p3857
I1
tp3858
a(S'dontwarnforwardfileinunsafedirpath'
p3859
I1
tp3860
a(S'delayed'
p3861
I1
tp3862
a(S'cloned'
p3863
I1
tp3864
a(S'BadCertificateUnknown'
p3865
I1
tp3866
a(S'trying'
p3867
I1
tp3868
a(S'rebuilt'
p3869
I1
tp3870
a(S'Mesgs'
p3871
I1
tp3872
a(S'QTHISPASS'
p3873
I1
tp3874
a(S'Truncated'
p3875
I1
tp3876
a(S'HOST'
p3877
I1
tp3878
a(S'QUEUERUN'
p3879
I1
tp3880
a(S'SSLEAY'
p3881
I1
tp3882
a(S'rebuildable'
p3883
I1
tp3884
a(S'urlhint'
p3885
I1
tp3886
a(S'expect'
p3887
I1
tp3888
a(S'USE'
p3889
I1
tp3890
a(S'uif'
p3891
I1
tp3892
a(S'AZA'
p3893
I1
tp3894
a(S'am'
p3895
I1
tp3896
a(S'NAMES'
p3897
I1
tp3898
a(S'deep'
p3899
I1
tp3900
a(S'maxed'
p3901
I1
tp3902
a(S'ap'
p3903
I1
tp3904
a(S'enable'
p3905
I1
tp3906
a(S'au'
p3907
I1
tp3908
a(S'freeresult'
p3909
I1
tp3910
a(S'restrictqrun'
p3911
I1
tp3912
a(S'SEEK'
p3913
I1
tp3914
a(S'CACertFile'
p3915
I1
tp3916
a(S'fill'
p3917
I1
tp3918
a(S'Real'
p3919
I1
tp3920
a(S'again'
p3921
I1
tp3922
a(S'rO'
p3923
I1
tp3924
a(S'seqSEQ'
p3925
I1
tp3926
a(S'extract'
p3927
I1
tp3928
a(S'RtL'
p3929
I1
tp3930
a(S'aJ'
p3931
I1
tp3932
a(S'field'
p3933
I1
tp3934
a(S'valid'
p3935
I1
tp3936
a(S'DmwIfW'
p3937
I1
tp3938
a(S'Password'
p3939
I1
tp3940
a(S'requested'
p3941
I1
tp3942
a(S'USERDB'
p3943
I1
tp3944
a(S'symbol'
p3945
I1
tp3946
a(S'BEGIN'
p3947
I1
tp3948
a(S'includes'
p3949
I1
tp3950
a(S'preconditions'
p3951
I1
tp3952
a(S'opMode'
p3953
I1
tp3954
a(S'unbind'
p3955
I1
tp3956
a(S'Addresses'
p3957
I1
tp3958
a(S'calls'
p3959
I1
tp3960
a(S'curve'
p3961
I1
tp3962
a(S'SYSTEM'
p3963
I1
tp3964
a(S'DefUid'
p3965
I1
tp3966
a(S'exhausting'
p3967
I1
tp3968
a(S'chown'
p3969
I1
tp3970
a(S'Addressee'
p3971
I1
tp3972
a(S'replcode'
p3973
I1
tp3974
a(S'bvLH'
p3975
I1
tp3976
a(S'starting'
p3977
I1
tp3978
a(S'strings'
p3979
I1
tp3980
a(S'gII'
p3981
I1
tp3982
a(S'scm'
p3983
I1
tp3984
a(S'MsgBuf'
p3985
I1
tp3986
a(S'tY'
p3987
I1
tp3988
a(S'CACertPath'
p3989
I1
tp3990
a(S'alg'
p3991
I1
tp3992
a(S'bfread'
p3993
I1
tp3994
a(S'lack'
p3995
I1
tp3996
a(S'splitting'
p3997
I1
tp3998
a(S'tQ'
p3999
I1
tp4000
a(S'Action'
p4001
I1
tp4002
a(S'tL'
p4003
I1
tp4004
a(S'tM'
p4005
I1
tp4006
a(S'forged'
p4007
I1
tp4008
a(S'tH'
p4009
I1
tp4010
a(S'tI'
p4011
I1
tp4012
a(S'tG'
p4013
I1
tp4014
a(S'expressions'
p4015
I1
tp4016
a(S'disk'
p4017
I1
tp4018
a(S'NETSCAPE'
p4019
I1
tp4020
a(S'tA'
p4021
I1
tp4022
a(S'content'
p4023
I1
tp4024
a(S'QSELFREF'
p4025
I1
tp4026
a(S'tx'
p4027
I1
tp4028
a(S'tv'
p4029
I1
tp4030
a(S'tt'
p4031
I1
tp4032
a(S'AVAU'
p4033
I1
tp4034
a(S'qtof'
p4035
I1
tp4036
a(S'RETN'
p4037
I1
tp4038
a(S'good'
p4039
I1
tp4040
a(S'tn'
p4041
I1
tp4042
a(S'tl'
p4043
I1
tp4044
a(S'tj'
p4045
I1
tp4046
a(S'readcf'
p4047
I1
tp4048
a(S'TryNullMXList'
p4049
I1
tp4050
a(S'TEXT'
p4051
I1
tp4052
a(S'Sent'
p4053
I1
tp4054
a(S'streamftime'
p4055
I1
tp4056
a(S'tc'
p4057
I1
tp4058
a(S'ta'
p4059
I1
tp4060
a(S'vers'
p4061
I1
tp4062
a(S'mechlist'
p4063
I1
tp4064
a(S'Couldn'
p4065
I1
tp4066
a(S'returning'
p4067
I1
tp4068
a(S'subcommand'
p4069
I1
tp4070
a(S'util'
p4071
I1
tp4072
a(S'Headers'
p4073
I1
tp4074
a(S'llu'
p4075
I1
tp4076
a(S'Incomplete'
p4077
I1
tp4078
a(S'disconnected'
p4079
I1
tp4080
a(S'forking'
p4081
I1
tp4082
a(S'pbp'
p4083
I1
tp4084
a(S'Testing'
p4085
I1
tp4086
a(S'trydir'
p4087
I1
tp4088
a(S'large'
p4089
I1
tp4090
a(S'opendir'
p4091
I1
tp4092
a(S'AVAUATD'
p4093
I1
tp4094
a(S'lpthread'
p4095
I1
tp4096
a(S'LDAP'
p4097
I1
tp4098
a(S'XscriptFileBufferSize'
p4099
I1
tp4100
a(S'sfailed'
p4101
I1
tp4102
a(S'SharedMemoryKey'
p4103
I1
tp4104
a(S'queueid'
p4105
I1
tp4106
a(S'MAXDAEMONS'
p4107
I1
tp4108
a(S'optind'
p4109
I1
tp4110
a(S'sync'
p4111
I1
tp4112
a(S'past'
p4113
I1
tp4114
a(S'NtK'
p4115
I1
tp4116
a(S'further'
p4117
I1
tp4118
a(S'AuthMechanisms'
p4119
I1
tp4120
a(S'will'
p4121
I1
tp4122
a(S'what'
p4123
I1
tp4124
a(S'stabapply'
p4125
I1
tp4126
a(S'aliaswait'
p4127
I1
tp4128
a(S'clock'
p4129
I1
tp4130
a(S'QUEUEUP'
p4131
I1
tp4132
a(S'sum'
p4133
I1
tp4134
a(S'rval'
p4135
I1
tp4136
a(S'ffff'
p4137
I1
tp4138
a(S'ClassFactor'
p4139
I1
tp4140
a(S'STDIN'
p4141
I1
tp4142
a(S'APOP'
p4143
I1
tp4144
a(S'HUS'
p4145
I1
tp4146
a(S'apply'
p4147
I1
tp4148
a(S'public'
p4149
I1
tp4150
a(S'outgoing'
p4151
I1
tp4152
a(S'full'
p4153
I1
tp4154
a(S'Undefined'
p4155
I1
tp4156
a(S'DontInitGroups'
p4157
I1
tp4158
a(S'Notice'
p4159
I1
tp4160
a(S'POSSIBLE'
p4161
I1
tp4162
a(S'CurrentLA'
p4163
I1
tp4164
a(S'HostStatusDirectory'
p4165
I1
tp4166
a(S'BLK'
p4167
I1
tp4168
a(S'excess'
p4169
I1
tp4170
a(S'method'
p4171
I1
tp4172
a(S'IDENTITY'
p4173
I1
tp4174
a(S'HASSETVBUF'
p4175
I1
tp4176
a(S'PARSE'
p4177
I1
tp4178
a(S'logged'
p4179
I1
tp4180
a(S'qualify'
p4181
I1
tp4182
a(S'prior'
p4183
I1
tp4184
a(S'Conf'
p4185
I1
tp4186
a(S'synonym'
p4187
I1
tp4188
a(S'TLSv'
p4189
I1
tp4190
a(S'exited'
p4191
I1
tp4192
a(S'proxy'
p4193
I1
tp4194
a(S'EHLO'
p4195
I1
tp4196
a(S'UNDEFINED'
p4197
I1
tp4198
a(S'family'
p4199
I1
tp4200
a(S'tryflags'
p4201
I1
tp4202
a(S'FastSplit'
p4203
I1
tp4204
a(S'RET'
p4205
I1
tp4206
a(S'Too'
p4207
I1
tp4208
a(S'expunge'
p4209
I1
tp4210
a(S'AWAVUSH'
p4211
I1
tp4212
a(S'iterator'
p4213
I1
tp4214
a(S'aaonly'
p4215
I1
tp4216
a(S'quarantining'
p4217
I1
tp4218
a(S'destination'
p4219
I1
tp4220
a(S'ECDH'
p4221
I1
tp4222
a(S'SHM'
p4223
I1
tp4224
a(S'HASINITGROUPS'
p4225
I1
tp4226
a(S'comparing'
p4227
I1
tp4228
a(S'Recipient'
p4229
I1
tp4230
a(S'iconnect'
p4231
I1
tp4232
a(S'more'
p4233
I1
tp4234
a(S'CACHE'
p4235
I1
tp4236
a(S'forwardfileinunsafedirpathsafe'
p4237
I1
tp4238
a(S'Ss'
p4239
I1
tp4240
a(S'descriptors'
p4241
I1
tp4242
a(S'marks'
p4243
I1
tp4244
a(S'St'
p4245
I1
tp4246
a(S'Kto'
p4247
I1
tp4248
a(S'mailname'
p4249
I1
tp4250
a(S'errormode'
p4251
I1
tp4252
a(S'particular'
p4253
I1
tp4254
a(S'known'
p4255
I1
tp4256
a(S'verifymsg'
p4257
I1
tp4258
a(S'SSLREF'
p4259
I1
tp4260
a(S'posixAccount'
p4261
I1
tp4262
a(S'none'
p4263
I1
tp4264
a(S'fatal'
p4265
I1
tp4266
a(S'hour'
p4267
I1
tp4268
a(S'SR'
p4269
I1
tp4270
a(S'created'
p4271
I1
tp4272
a(S'EACCES'
p4273
I1
tp4274
a(S'dev'
p4275
I1
tp4276
a(S'lutil'
p4277
I1
tp4278
a(S'SO'
p4279
I1
tp4280
a(S'SM'
p4281
I1
tp4282
a(S'abandon'
p4283
I1
tp4284
a(S'ftruncate'
p4285
I1
tp4286
a(S'history'
p4287
I1
tp4288
a(S'prompt'
p4289
I1
tp4290
a(S'malformed'
p4291
I1
tp4292
a(S'abcdefmci'
p4293
I1
tp4294
a(S'ControlSocketName'
p4295
I1
tp4296
a(S'ssloptions'
p4297
I1
tp4298
a(S'lgnutls'
p4299
I1
tp4300
a(S'FRAGMENTS'
p4301
I1
tp4302
a(S'huge'
p4303
I1
tp4304
a(S'needs'
p4305
I1
tp4306
a(S'filedeliverytohardlink'
p4307
I1
tp4308
a(S'csh'
p4309
I1
tp4310
a(S'tSD'
p4311
I1
tp4312
a(S'ENHSTAT'
p4313
I1
tp4314
a(S'maps'
p4315
I1
tp4316
a(S'Cannot'
p4317
I1
tp4318
a(S'reject'
p4319
I1
tp4320
a(S'tcHc'
p4321
I1
tp4322
a(S'fp'
p4323
I1
tp4324
a(S'Daemon'
p4325
I1
tp4326
a(S'krbv'
p4327
I1
tp4328
a(S'fu'
p4329
I1
tp4330
a(S'replbody'
p4331
I1
tp4332
a(S'UseCompressedIPv'
p4333
I1
tp4334
a(S'MACRO'
p4335
I1
tp4336
a(S'signature'
p4337
I1
tp4338
a(S'List'
p4339
I1
tp4340
a(S'gethostbyname'
p4341
I1
tp4342
a(S'groupwritableforwardfile'
p4343
I1
tp4344
a(S'opening'
p4345
I1
tp4346
a(S'mh'
p4347
I1
tp4348
a(S'hfA'
p4349
I1
tp4350
a(S'DontProbeInterfaces'
p4351
I1
tp4352
a(S'fl'
p4353
I1
tp4354
a(S'fn'
p4355
I1
tp4356
a(S'short'
p4357
I1
tp4358
a(S'ARSA'
p4359
I1
tp4360
a(S'PROC'
p4361
I1
tp4362
a(S'saml'
p4363
I1
tp4364
a(S'children'
p4365
I1
tp4366
a(S'RSA'
p4367
I1
tp4368
a(S'UDB'
p4369
I1
tp4370
a(S'fC'
p4371
I1
tp4372
a(S'fD'
p4373
I1
tp4374
a(S'fE'
p4375
I1
tp4376
a(S'File'
p4377
I1
tp4378
a(S'tempfailed'
p4379
I1
tp4380
a(S'fH'
p4381
I1
tp4382
a(S'inline'
p4383
I1
tp4384
a(S'SmFileMagic'
p4385
I1
tp4386
a(S'XZt'
p4387
I1
tp4388
a(S'What'
p4389
I1
tp4390
a(S'assumesafechown'
p4391
I1
tp4392
a(S'readaliases'
p4393
I1
tp4394
a(S'Same'
p4395
I1
tp4396
a(S'abortmessage'
p4397
I1
tp4398
a(S'disabled'
p4399
I1
tp4400
a(S'uname'
p4401
I1
tp4402
a(S'DUPLICATE'
p4403
I1
tp4404
a(S'HASFCHMOD'
p4405
I1
tp4406
a(S'helo'
p4407
I1
tp4408
a(S'its'
p4409
I1
tp4410
a(S'but'
p4411
I1
tp4412
a(S'uncaching'
p4413
I1
tp4414
a(S'shouldqueue'
p4415
I1
tp4416
a(S'NISPLUS'
p4417
I1
tp4418
a(S'AWAVAUATUSH'
p4419
I1
tp4420
a(S'NOHLINK'
p4421
I1
tp4422
a(S'getpid'
p4423
I1
tp4424
a(S'Losing'
p4425
I1
tp4426
a(S'refill'
p4427
I1
tp4428
a(S'CLIENT'
p4429
I1
tp4430
a(S'XZH'
p4431
I1
tp4432
a(S'SmExcMagic'
p4433
I1
tp4434
a(S'ldapmap'
p4435
I1
tp4436
a(S'ANYCONNECT'
p4437
I1
tp4438
a(S'skipped'
p4439
I1
tp4440
a(S'return'
p4441
I1
tp4442
a(S'FATAL'
p4443
I1
tp4444
a(S'rwg'
p4445
I1
tp4446
a(S'usershellok'
p4447
I1
tp4448
a(S'chkqdir'
p4449
I1
tp4450
a(S'URI'
p4451
I1
tp4452
a(S'yx'
p4453
I1
tp4454
a(S'Bad'
p4455
I1
tp4456
a(S'IPv'
p4457
I1
tp4458
a(S'party'
p4459
I1
tp4460
a(S'yq'
p4461
I1
tp4462
a(S'yp'
p4463
I1
tp4464
a(S'Cracked'
p4465
I1
tp4466
a(S'linkedclassfileinwritabledir'
p4467
I1
tp4468
a(S'yu'
p4469
I1
tp4470
a(S'nrcpts'
p4471
I1
tp4472
a(S'IPC'
p4473
I1
tp4474
a(S'HeloName'
p4475
I1
tp4476
a(S'Saving'
p4477
I1
tp4478
a(S'listmech'
p4479
I1
tp4480
a(S'EtzM'
p4481
I1
tp4482
a(S'always'
p4483
I1
tp4484
a(S'fetch'
p4485
I1
tp4486
a(S'userid'
p4487
I1
tp4488
a(S'SFS'
p4489
I1
tp4490
a(S'noexpn'
p4491
I1
tp4492
a(S'ISSET'
p4493
I1
tp4494
a(S'capability'
p4495
I1
tp4496
a(S'token'
p4497
I1
tp4498
a(S'IPV'
p4499
I1
tp4500
a(S'MSIE'
p4501
I1
tp4502
a(S'SAVH'
p4503
I1
tp4504
a(S'ifc'
p4505
I1
tp4506
a(S'ABCDEFGHIJKLMNOPQRSTUVWXYZabcdefghijklmnopqrstuvwxyz'
p4507
I1
tp4508
a(S'dgettext'
p4509
I1
tp4510
a(S'Defines'
p4511
I1
tp4512
a(S'unquote'
p4513
I1
tp4514
a(S'week'
p4515
I1
tp4516
a(S'Retry'
p4517
I1
tp4518
a(S'End'
p4519
I1
tp4520
a(S'uncache'
p4521
I1
tp4522
a(S'reduce'
p4523
I1
tp4524
a(S'numeric'
p4525
I1
tp4526
a(S'CNAME'
p4527
I1
tp4528
a(S'loops'
p4529
I1
tp4530
a(S'sendmailMTAAliasSearch'
p4531
I1
tp4532
a(S'exitstat'
p4533
I1
tp4534
a(S'More'
p4535
I1
tp4536
a(S'usersmtp'
p4537
I1
tp4538
a(S'Workgroup'
p4539
I1
tp4540
a(S'CHAIN'
p4541
I1
tp4542
a(S'pargc'
p4543
I1
tp4544
a(S'setsid'
p4545
I1
tp4546
a(S'equate'
p4547
I1
tp4548
a(S'Eight'
p4549
I1
tp4550
a(S'EDITOR'
p4551
I1
tp4552
a(S'issue'
p4553
I1
tp4554
a(S'initialization'
p4555
I1
tp4556
a(S'EL'
p4557
I1
tp4558
a(S'LOGSENDER'
p4559
I1
tp4560
a(S'syserr'
p4561
I1
tp4562
a(S'EJ'
p4563
I1
tp4564
a(S'ED'
p4565
I1
tp4566
a(S'EG'
p4567
I1
tp4568
a(S'EF'
p4569
I1
tp4570
a(S'EC'
p4571
I1
tp4572
a(S'mapname'
p4573
I1
tp4574
a(S'dit'
p4575
I1
tp4576
a(S'reason'
p4577
I1
tp4578
a(S'EX'
p4579
I1
tp4580
a(S'put'
p4581
I1
tp4582
a(S'AUAT'
p4583
I1
tp4584
a(S'POST'
p4585
I1
tp4586
a(S'getmxrr'
p4587
I1
tp4588
a(S'generate'
p4589
I1
tp4590
a(S'definition'
p4591
I1
tp4592
a(S'thread'
p4593
I1
tp4594
a(S'MILTER'
p4595
I1
tp4596
a(S'Ee'
p4597
I1
tp4598
a(S'success'
p4599
I1
tp4600
a(S'Ec'
p4601
I1
tp4602
a(S'MaxQueueRunSize'
p4603
I1
tp4604
a(S'expecting'
p4605
I1
tp4606
a(S'InputMailFilters'
p4607
I1
tp4608
a(S'buildaddr'
p4609
I1
tp4610
a(S'Ev'
p4611
I1
tp4612
a(S'assign'
p4613
I1
tp4614
a(S'IO'
p4615
I1
tp4616
a(S'etrn'
p4617
I1
tp4618
a(S'PostmasterCopy'
p4619
I1
tp4620
a(S'comtab'
p4621
I1
tp4622
a(S'Hostname'
p4623
I1
tp4624
a(S'misc'
p4625
I1
tp4626
a(S'AVAUATUI'
p4627
I1
tp4628
a(S'AVAUATUH'
p4629
I1
tp4630
a(S'AVAUATUS'
p4631
I1
tp4632
a(S'notify'
p4633
I1
tp4634
a(S'QPRIMARY'
p4635
I1
tp4636
a(S'dfD'
p4637
I1
tp4638
a(S'spawnvp'
p4639
I1
tp4640
a(S'validate'
p4641
I1
tp4642
a(S'ANSI'
p4643
I1
tp4644
a(S'ADDRCONFIG'
p4645
I1
tp4646
a(S'Reset'
p4647
I1
tp4648
a(S'Hct'
p4649
I1
tp4650
a(S'inchfd'
p4651
I1
tp4652
a(S'RtJH'
p4653
I1
tp4654
a(S'leading'
p4655
I1
tp4656
a(S'dfp'
p4657
I1
tp4658
a(S'least'
p4659
I1
tp4660
a(S'checkpoint'
p4661
I1
tp4662
a(S'DISABLE'
p4663
I1
tp4664
a(S'HasWildcardMX'
p4665
I1
tp4666
a(S'kilobytes'
p4667
I1
tp4668
a(S'nextkey'
p4669
I1
tp4670
a(S'EXPN'
p4671
I1
tp4672
a(S'XH'
p4673
I1
tp4674
a(S'XI'
p4675
I1
tp4676
a(S'stdout'
p4677
I1
tp4678
a(S'XL'
p4679
I1
tp4680
a(S'XM'
p4681
I1
tp4682
a(S'MaxHeadersLength'
p4683
I1
tp4684
a(S'XA'
p4685
I1
tp4686
a(S'XD'
p4687
I1
tp4688
a(S'XE'
p4689
I1
tp4690
a(S'XZ'
p4691
I1
tp4692
a(S'part'
p4693
I1
tp4694
a(S'EMPTY'
p4695
I1
tp4696
a(S'stR'
p4697
I1
tp4698
a(S'TOOBIG'
p4699
I1
tp4700
a(S'tfp'
p4701
I1
tp4702
a(S'grew'
p4703
I1
tp4704
a(S'aaa'
p4705
I1
tp4706
a(S'stb'
p4707
I1
tp4708
a(S'Mailutils'
p4709
I1
tp4710
a(S'Xf'
p4711
I1
tp4712
a(S'PortOptions'
p4713
I1
tp4714
a(S'Ip'
p4715
I1
tp4716
a(S'AliasFile'
p4717
I1
tp4718
a(S'XJ'
p4719
I1
tp4720
a(S'identifiers'
p4721
I1
tp4722
a(S'tBH'
p4723
I1
tp4724
a(S'TIMEOUT'
p4725
I1
tp4726
a(S'wQH'
p4727
I1
tp4728
a(S'opool'
p4729
I1
tp4730
a(S'CRL'
p4731
I1
tp4732
a(S'putheader'
p4733
I1
tp4734
a(S'Arrival'
p4735
I1
tp4736
a(S'paths'
p4737
I1
tp4738
a(S'SUCCESS'
p4739
I1
tp4740
a(S'SingleThreadDelivery'
p4741
I1
tp4742
a(S'geteuid'
p4743
I1
tp4744
a(S'ARRH'
p4745
I1
tp4746
a(S'Sanity'
p4747
I1
tp4748
a(S'directives'
p4749
I1
tp4750
a(S'aliasing'
p4751
I1
tp4752
a(S'eff'
p4753
I1
tp4754
a(S'Sruleset'
p4755
I1
tp4756
a(S'persistentMacros'
p4757
I1
tp4758
a(S'vnf'
p4759
I1
tp4760
a(S'libdb'
p4761
I1
tp4762
a(S'exec'
p4763
I1
tp4764
a(S'passwd'
p4765
I1
tp4766
a(S'chars'
p4767
I1
tp4768
a(S'ARG'
p4769
I1
tp4770
a(S'bounds'
p4771
I1
tp4772
a(S'safefile'
p4773
I1
tp4774
a(S'kQ'
p4775
I1
tp4776
a(S'VERB'
p4777
I1
tp4778
a(S'assoc'
p4779
I1
tp4780
a(S'stJ'
p4781
I1
tp4782
a(S'kZ'
p4783
I1
tp4784
a(S'datablock'
p4785
I1
tp4786
a(S'eatfrom'
p4787
I1
tp4788
a(S'STORE'
p4789
I1
tp4790
a(S'unavailable'
p4791
I1
tp4792
a(S'DISCARDED'
p4793
I1
tp4794
a(S'exc'
p4795
I1
tp4796
a(S'ruleno'
p4797
I1
tp4798
a(S'SATL'
p4799
I1
tp4800
a(S'setsender'
p4801
I1
tp4802
a(S'tzAVAUI'
p4803
I1
tp4804
a(S'Subscribe'
p4805
I1
tp4806
a(S'getmodifiers'
p4807
I1
tp4808
a(S'MEMCHR'
p4809
I1
tp4810
a(S'stripws'
p4811
I1
tp4812
a(S'caching'
p4813
I1
tp4814
a(S'parseaddr'
p4815
I1
tp4816
a(S'nonrootsafeaddr'
p4817
I1
tp4818
a(S'udbmatch'
p4819
I1
tp4820
a(S'strncasecmp'
p4821
I1
tp4822
a(S'rtc'
p4823
I1
tp4824
a(S'lsDFMPEouq'
p4825
I1
tp4826
a(S'JM'
p4827
I1
tp4828
a(S'stdioopen'
p4829
I1
tp4830
a(S'JH'
p4831
I1
tp4832
a(S'JI'
p4833
I1
tp4834
a(S'AXD'
p4835
I1
tp4836
a(S'AXE'
p4837
I1
tp4838
a(S'JD'
p4839
I1
tp4840
a(S'AXH'
p4841
I1
tp4842
a(S'Port'
p4843
I1
tp4844
a(S'ruid'
p4845
I1
tp4846
a(S'AXt'
p4847
I1
tp4848
a(S'less'
p4849
I1
tp4850
a(S'tcUS'
p4851
I1
tp4852
a(S'SAWI'
p4853
I1
tp4854
a(S'Lcd'
p4855
I1
tp4856
a(S'groupwritabledirpathsafe'
p4857
I1
tp4858
a(S'NAK'
p4859
I1
tp4860
a(S'Lcl'
p4861
I1
tp4862
a(S'libmailutils'
p4863
I1
tp4864
a(S'AUPL'
p4865
I1
tp4866
a(S'permission'
p4867
I1
tp4868
a(S'PHc'
p4869
I1
tp4870
a(S'compiled'
p4871
I1
tp4872
a(S'resent'
p4873
I1
tp4874
a(S'Code'
p4875
I1
tp4876
a(S'longest'
p4877
I1
tp4878
a(S'shared'
p4879
I1
tp4880
a(S'SENDALL'
p4881
I1
tp4882
a(S'during'
p4883
I1
tp4884
a(S'SuperSafe'
p4885
I1
tp4886
a(S'restart'
p4887
I1
tp4888
a(S'compiler'
p4889
I1
tp4890
a(S'resolve'
p4891
I1
tp4892
a(S'CLMATCH'
p4893
I1
tp4894
a(S'THIS'
p4895
I1
tp4896
a(S'bytes'
p4897
I1
tp4898
a(S'DEFERRED'
p4899
I1
tp4900
a(S'redefined'
p4901
I1
tp4902
a(S'common'
p4903
I1
tp4904
a(S'rfd'
p4905
I1
tp4906
a(S'crl'
p4907
I1
tp4908
a(S'groupwritablealiasfile'
p4909
I1
tp4910
a(S'pvp'
p4911
I1
tp4912
a(S'GROUP'
p4913
I1
tp4914
a(S'pvt'
p4915
I1
tp4916
a(S'tfA'
p4917
I1
tp4918
a(S'Create'
p4919
I1
tp4920
a(S'startup'
p4921
I1
tp4922
a(S'ssafe'
p4923
I1
tp4924
a(S'see'
p4925
I1
tp4926
a(S'arg'
p4927
I1
tp4928
a(S'PORT'
p4929
I1
tp4930
a(S'probable'
p4931
I1
tp4932
a(S'idle'
p4933
I1
tp4934
a(S'rejecting'
p4935
I1
tp4936
a(S'EMAIL'
p4937
I1
tp4938
a(S'libraries'
p4939
I1
tp4940
a(S'won'
p4941
I1
tp4942
a(S'linelen'
p4943
I1
tp4944
a(S'available'
p4945
I1
tp4946
a(S'creating'
p4947
I1
tp4948
a(S'missing'
p4949
I1
tp4950
a(S'Could'
p4951
I1
tp4952
a(S'setclass'
p4953
I1
tp4954
a(S'nlink'
p4955
I1
tp4956
a(S'restrictmailq'
p4957
I1
tp4958
a(S'Greet'
p4959
I1
tp4960
a(S'Diffie'
p4961
I1
tp4962
a(S'interface'
p4963
I1
tp4964
a(S'AWAVAUATUS'
p4965
I1
tp4966
a(S'getauthinfo'
p4967
I1
tp4968
a(S'last'
p4969
I1
tp4970
a(S'reverse'
p4971
I1
tp4972
a(S'deliveries'
p4973
I1
tp4974
a(S'Hard'
p4975
I1
tp4976
a(S'initgroups'
p4977
I1
tp4978
a(S'FLAG'
p4979
I1
tp4980
a(S'context'
p4981
I1
tp4982
a(S'CipherList'
p4983
I1
tp4984
a(S'deliverby'
p4985
I1
tp4986
a(S'Xu'
p4987
I1
tp4988
a(S'ANY'
p4989
I1
tp4990
a(S'NOTIFY'
p4991
I1
tp4992
a(S'libcrypto'
p4993
I1
tp4994
a(S'groups'
p4995
I1
tp4996
a(S'point'
p4997
I1
tp4998
a(S'simple'
p4999
I1
tp5000
a(S'DEMO'
p5001
I1
tp5002
a(S'pY'
p5003
I1
tp5004
a(S'pA'
p5005
I1
tp5006
a(S'shutdown'
p5007
I1
tp5008
a(S'pE'
p5009
I1
tp5010
a(S'pH'
p5011
I1
tp5012
a(S'pI'
p5013
I1
tp5014
a(S'pL'
p5015
I1
tp5016
a(S'pM'
p5017
I1
tp5018
a(S'pHi'
p5019
I1
tp5020
a(S'sieve'
p5021
I1
tp5022
a(S'pv'
p5023
I1
tp5024
a(S'raise'
p5025
I1
tp5026
a(S'QUARANTINE'
p5027
I1
tp5028
a(S'sfsasl'
p5029
I1
tp5030
a(S'smioout'
p5031
I1
tp5032
a(S'CheckAliases'
p5033
I1
tp5034
a(S'due'
p5035
I1
tp5036
a(S'IMAP'
p5037
I1
tp5038
a(S'retr'
p5039
I1
tp5040
a(S'secret'
p5041
I1
tp5042
a(S'dropping'
p5043
I1
tp5044
a(S'dup'
p5045
I1
tp5046
a(S'DSA'
p5047
I1
tp5048
a(S'pn'
p5049
I1
tp5050
a(S'allocaddr'
p5051
I1
tp5052
a(S'generating'
p5053
I1
tp5054
a(S'libcfg'
p5055
I1
tp5056
a(S'DeliveryMode'
p5057
I1
tp5058
a(S'MD'
p5059
I1
tp5060
a(S'usage'
p5061
I1
tp5062
a(S'Switch'
p5063
I1
tp5064
a(S'CANONREQ'
p5065
I1
tp5066
a(S'sNOTCONFIGURED'
p5067
I1
tp5068
a(S'func'
p5069
I1
tp5070
a(S'demand'
p5071
I1
tp5072
a(S'KRB'
p5073
I1
tp5074
a(S'NEWDB'
p5075
I1
tp5076
a(S'imap'
p5077
I1
tp5078
a(S'execve'
p5079
I1
tp5080
a(S'Storing'
p5081
I1
tp5082
a(S'talking'
p5083
I1
tp5084
a(S'expanded'
p5085
I1
tp5086
a(S'nrG'
p5087
I1
tp5088
a(S'deferred'
p5089
I1
tp5090
a(S'substrings'
p5091
I1
tp5092
a(S'replaced'
p5093
I1
tp5094
a(S'usevc'
p5095
I1
tp5096
a(S'RetryFactor'
p5097
I1
tp5098
a(S'ColonOkInAddr'
p5099
I1
tp5100
a(S'loop'
p5101
I1
tp5102
a(S'malloc'
p5103
I1
tp5104
a(S'ETRN'
p5105
I1
tp5106
a(S'QueueFactor'
p5107
I1
tp5108
a(S'tqH'
p5109
I1
tp5110
a(S'Invalid'
p5111
I1
tp5112
a(S'NOCANON'
p5113
I1
tp5114
a(S'smioin'
p5115
I1
tp5116
a(S'Bogus'
p5117
I1
tp5118
a(S'ready'
p5119
I1
tp5120
a(S'sgid'
p5121
I1
tp5122
a(S'tXvFf'
p5123
I1
tp5124
a(S'rcpts'
p5125
I1
tp5126
a(S'FILTER'
p5127
I1
tp5128
a(S'redisplay'
p5129
I1
tp5130
a(S'AWAV'
p5131
I1
tp5132
a(S'ConnectOnlyTo'
p5133
I1
tp5134
a(S'deletion'
p5135
I1
tp5136
a(S'Address'
p5137
I1
tp5138
a(S'Copy'
p5139
I1
tp5140
a(S'Insert'
p5141
I1
tp5142
a(S'keys'
p5143
I1
tp5144
a(S'queueup'
p5145
I1
tp5146
a(S'negotiate'
p5147
I1
tp5148
a(S'FallbackSmartHost'
p5149
I1
tp5150
a(S'alert'
p5151
I1
tp5152
a(S'sys'
p5153
I1
tp5154
a(S'DNSMAP'
p5155
I1
tp5156
a(S'moving'
p5157
I1
tp5158
a(S'ALLOW'
p5159
I1
tp5160
a(S'YOU'
p5161
I1
tp5162
a(S'lower'
p5163
I1
tp5164
a(S'firstto'
p5165
I1
tp5166
a(S'SthA'
p5167
I1
tp5168
a(S'PrivateKey'
p5169
I1
tp5170
a(S'wedged'
p5171
I1
tp5172
a(S'MX'
p5173
I1
tp5174
a(S'deliverable'
p5175
I1
tp5176
a(S'person'
p5177
I1
tp5178
a(S'QGOODUID'
p5179
I1
tp5180
a(S'SafeFileEnvironment'
p5181
I1
tp5182
a(S'mxrand'
p5183
I1
tp5184
a(S'self'
p5185
I1
tp5186
a(S'SmHeapTotal'
p5187
I1
tp5188
a(S'recoverable'
p5189
I1
tp5190
a(S'querydomain'
p5191
I1
tp5192
a(S'unseen'
p5193
I1
tp5194
a(S'SYSERR'
p5195
I1
tp5196
a(S'ldl'
p5197
I1
tp5198
a(S'lds'
p5199
I1
tp5200
a(S'Bg'
p5201
I1
tp5202
a(S'fflush'
p5203
I1
tp5204
a(S'QRCPTOK'
p5205
I1
tp5206
a(S'LDAPMAP'
p5207
I1
tp5208
a(S'CAPA'
p5209
I1
tp5210
a(S'cut'
p5211
I1
tp5212
a(S'datetime'
p5213
I1
tp5214
a(S'msgid'
p5215
I1
tp5216
a(S'extra'
p5217
I1
tp5218
a(S'argcv'
p5219
I1
tp5220
a(S'signals'
p5221
I1
tp5222
a(S'source'
p5223
I1
tp5224
a(S'Berkeley'
p5225
I1
tp5226
a(S'prescan'
p5227
I1
tp5228
a(S'bio'
p5229
I1
tp5230
a(S'Ol'
p5231
I1
tp5232
a(S'vendor'
p5233
I1
tp5234
a(S'SYNTAX'
p5235
I1
tp5236
a(S'finalize'
p5237
I1
tp5238
a(S'QDELIVERED'
p5239
I1
tp5240
a(S'hdrlen'
p5241
I1
tp5242
a(S'RENEGOTIATION'
p5243
I1
tp5244
a(S'step'
p5245
I1
tp5246
a(S'Ov'
p5247
I1
tp5248
a(S'tCD'
p5249
I1
tp5250
a(S'SRCROUTE'
p5251
I1
tp5252
a(S'MaxNOOPCommands'
p5253
I1
tp5254
a(S'ON'
p5255
I1
tp5256
a(S'ClientPortOptions'
p5257
I1
tp5258
a(S'OK'
p5259
I1
tp5260
a(S'aconnect'
p5261
I1
tp5262
a(S'submission'
p5263
I1
tp5264
a(S'OH'
p5265
I1
tp5266
a(S'OG'
p5267
I1
tp5268
a(S'signal'
p5269
I1
tp5270
a(S'parseargs'
p5271
I1
tp5272
a(S'OB'
p5273
I1
tp5274
a(S'OA'
p5275
I1
tp5276
a(S'ignore'
p5277
I1
tp5278
a(S'collect'
p5279
I1
tp5280
a(S'maplocaluser'
p5281
I1
tp5282
a(S'continue'
p5283
I1
tp5284
a(S'MAIL'
p5285
I1
tp5286
a(S'ival'
p5287
I1
tp5288
a(S'OS'
p5289
I1
tp5290
a(S'SIOCGIFCONF'
p5291
I1
tp5292
a(S'qgrp'
p5293
I1
tp5294
a(S'OP'
p5295
I1
tp5296
a(S'methods'
p5297
I1
tp5298
a(S'mailutils'
p5299
I1
tp5300
a(S'MSGNO'
p5301
I1
tp5302
a(S'back'
p5303
I1
tp5304
a(S'DEH'
p5305
I1
tp5306
a(S'DEI'
p5307
I1
tp5308
a(S'strsize'
p5309
I1
tp5310
a(S'HOME'
p5311
I1
tp5312
a(S'sizeof'
p5313
I1
tp5314
a(S'MAX'
p5315
I1
tp5316
a(S'BLOCK'
p5317
I1
tp5318
a(S'HASGETDTABLESIZE'
p5319
I1
tp5320
a(S'delivered'
p5321
I1
tp5322
a(S'pton'
p5323
I1
tp5324
a(S'CDDH'
p5325
I1
tp5326
a(S'RunAs'
p5327
I1
tp5328
a(S'Reporting'
p5329
I1
tp5330
a(S'DEt'
p5331
I1
tp5332
a(S'per'
p5333
I1
tp5334
a(S'FORGED'
p5335
I1
tp5336
a(S'connecting'
p5337
I1
tp5338
a(S'bogus'
p5339
I1
tp5340
a(S'Disposition'
p5341
I1
tp5342
a(S'Nothing'
p5343
I1
tp5344
a(S'VRFY'
p5345
I1
tp5346
a(S'proc'
p5347
I1
tp5348
a(S'bf'
p5349
I1
tp5350
a(S'SmExcHandler'
p5351
I1
tp5352
a(S'BadCertificateTooLong'
p5353
I1
tp5354
a(S'bn'
p5355
I1
tp5356
a(S'ISVALIDQGRP'
p5357
I1
tp5358
a(S'refused'
p5359
I1
tp5360
a(S'bt'
p5361
I1
tp5362
a(S'bv'
p5363
I1
tp5364
a(S'MECH'
p5365
I1
tp5366
a(S'bp'
p5367
I1
tp5368
a(S'linkedmapinwritabledir'
p5369
I1
tp5370
a(S'bs'
p5371
I1
tp5372
a(S'RCVBUF'
p5373
I1
tp5374
a(S'lockfile'
p5375
I1
tp5376
a(S'getsockopt'
p5377
I1
tp5378
a(S'sub'
p5379
I1
tp5380
a(S'idx'
p5381
I1
tp5382
a(S'errdetail'
p5383
I1
tp5384
a(S'tracing'
p5385
I1
tp5386
a(S'bO'
p5387
I1
tp5388
a(S'bH'
p5389
I1
tp5390
a(S'ids'
p5391
I1
tp5392
a(S'smtps'
p5393
I1
tp5394
a(S'bU'
p5395
I1
tp5396
a(S'range'
p5397
I1
tp5398
a(S'CDEFS'
p5399
I1
tp5400
a(S'smtpd'
p5401
I1
tp5402
a(S'MAILER'
p5403
I1
tp5404
a(S'proto'
p5405
I1
tp5406
a(S'MICROSOFT'
p5407
I1
tp5408
a(S'ACK'
p5409
I1
tp5410
a(S'into'
p5411
I1
tp5412
a(S'Original'
p5413
I1
tp5414
a(S'ACL'
p5415
I1
tp5416
a(S'Ruleset'
p5417
I1
tp5418
a(S'accepting'
p5419
I1
tp5420
a(S'Msg'
p5421
I1
tp5422
a(S'NEW'
p5423
I1
tp5424
a(S'fopen'
p5425
I1
tp5426
a(S'The'
p5427
I1
tp5428
a(S'vHc'
p5429
I1
tp5430
a(S'Unbalanced'
p5431
I1
tp5432
a(S'statistics'
p5433
I1
tp5434
a(S'SCHED'
p5435
I1
tp5436
a(S'QueueLimitQuarantine'
p5437
I1
tp5438
a(S'Sendmail'
p5439
I1
tp5440
a(S'Polite'
p5441
I1
tp5442
a(S'long'
p5443
I1
tp5444
a(S'Quarantined'
p5445
I1
tp5446
a(S'REPLACED'
p5447
I1
tp5448
a(S'User'
p5449
I1
tp5450
a(S'forward'
p5451
I1
tp5452
a(S'translate'
p5453
I1
tp5454
a(S'subfields'
p5455
I1
tp5456
a(S'MinQueueAge'
p5457
I1
tp5458
a(S'PASSWORD'
p5459
I1
tp5460
a(S'rstatus'
p5461
I1
tp5462
a(S'files'
p5463
I1
tp5464
a(S'ARGS'
p5465
I1
tp5466
a(S'GNU'
p5467
I1
tp5468
a(S'enhancedstatuscodes'
p5469
I1
tp5470
a(S'registered'
p5471
I1
tp5472
a(S'CLONED'
p5473
I1
tp5474
a(S'retrying'
p5475
I1
tp5476
a(S'uN'
p5477
I1
tp5478
a(S'CRLF'
p5479
I1
tp5480
a(S'NEED'
p5481
I1
tp5482
a(S'uF'
p5483
I1
tp5484
a(S'libssl'
p5485
I1
tp5486
a(S'posted'
p5487
I1
tp5488
a(S'rejection'
p5489
I1
tp5490
a(S'REUSE'
p5491
I1
tp5492
a(S'restarted'
p5493
I1
tp5494
a(S'FallbackMXhost'
p5495
I1
tp5496
a(S'lsouDq'
p5497
I1
tp5498
a(S'ul'
p5499
I1
tp5500
a(S'fds'
p5501
I1
tp5502
a(S'ntPI'
p5503
I1
tp5504
a(S'hoststatus'
p5505
I1
tp5506
a(S'RequiresDirfsync'
p5507
I1
tp5508
a(S'ug'
p5509
I1
tp5510
a(S'called'
p5511
I1
tp5512
a(S'impl'
p5513
I1
tp5514
a(S'QueueLimitSender'
p5515
I1
tp5516
a(S'mxhosts'
p5517
I1
tp5518
a(S'WKE'
p5519
I1
tp5520
a(S'Tt'
p5521
I1
tp5522
a(S'fread'
p5523
I1
tp5524
a(S'unsafe'
p5525
I1
tp5526
a(S'doesn'
p5527
I1
tp5528
a(S'ATUStWH'
p5529
I1
tp5530
a(S'reopening'
p5531
I1
tp5532
a(S'warning'
p5533
I1
tp5534
a(S'suboption'
p5535
I1
tp5536
a(S'Arguments'
p5537
I1
tp5538
a(S'euse'
p5539
I1
tp5540
a(S'Memory'
p5541
I1
tp5542
a(S'Tf'
p5543
I1
tp5544
a(S'LfA'
p5545
I1
tp5546
a(S'parsed'
p5547
I1
tp5548
a(S'Map'
p5549
I1
tp5550
a(S'IcL'
p5551
I1
tp5552
a(S'Max'
p5553
I1
tp5554
a(S'exception'
p5555
I1
tp5556
a(S'IcD'
p5557
I1
tp5558
a(S'TO'
p5559
I1
tp5560
a(S'errbody'
p5561
I1
tp5562
a(S'functionality'
p5563
I1
tp5564
a(S'TH'
p5565
I1
tp5566
a(S'TI'
p5567
I1
tp5568
a(S'TXT'
p5569
I1
tp5570
a(S'IcW'
p5571
I1
tp5572
a(S'IcT'
p5573
I1
tp5574
a(S'rlen'
p5575
I1
tp5576
a(S'libldap'
p5577
I1
tp5578
a(S'AF'
p5579
I1
tp5580
a(S'AH'
p5581
I1
tp5582
a(S'Quarantine'
p5583
I1
tp5584
a(S'AuthOptions'
p5585
I1
tp5586
a(S'AM'
p5587
I1
tp5588
a(S'wickets'
p5589
I1
tp5590
a(S'HHc'
p5591
I1
tp5592
a(S'closedir'
p5593
I1
tp5594
a(S'generated'
p5595
I1
tp5596
a(S'authenticate'
p5597
I1
tp5598
a(S'SPLIT'
p5599
I1
tp5600
a(S'AX'
p5601
I1
tp5602
a(S'tobufsize'
p5603
I1
tp5604
a(S'ago'
p5605
I1
tp5606
a(S'urldesc'
p5607
I1
tp5608
a(S'implies'
p5609
I1
tp5610
a(S'Insufficient'
p5611
I1
tp5612
a(S'Sequence'
p5613
I1
tp5614
a(S'ending'
p5615
I1
tp5616
a(S'QNOTREMOTE'
p5617
I1
tp5618
a(S'AUS'
p5619
I1
tp5620
a(S'purgestat'
p5621
I1
tp5622
a(S'Skipping'
p5623
I1
tp5624
a(S'depth'
p5625
I1
tp5626
a(S'CANNOT'
p5627
I1
tp5628
a(S'incomplete'
p5629
I1
tp5630
a(S'mstat'
p5631
I1
tp5632
a(S'Apparently'
p5633
I1
tp5634
a(S'gv'
p5635
I1
tp5636
a(S'AVAUATU'
p5637
I1
tp5638
a(S'code'
p5639
I1
tp5640
a(S'gq'
p5641
I1
tp5642
a(S'scratch'
p5643
I1
tp5644
a(S'fclose'
p5645
I1
tp5646
a(S'results'
p5647
I1
tp5648
a(S'existing'
p5649
I1
tp5650
a(S'sendmailMTAClassSearch'
p5651
I1
tp5652
a(S'gd'
p5653
I1
tp5654
a(S'AVAUATUSH'
p5655
I1
tp5656
a(S'RrtImpliesDsn'
p5657
I1
tp5658
a(S'AVAUATL'
p5659
I1
tp5660
a(S'AVAUATI'
p5661
I1
tp5662
a(S'issuer'
p5663
I1
tp5664
a(S'Non'
p5665
I1
tp5666
a(S'Returning'
p5667
I1
tp5668
a(S'forkflag'
p5669
I1
tp5670
a(S'young'
p5671
I1
tp5672
a(S'av'
p5673
I1
tp5674
a(S'tC'
p5675
I1
tp5676
a(S'bfcommit'
p5677
I1
tp5678
a(S'Not'
p5679
I1
tp5680
a(S'Now'
p5681
I1
tp5682
a(S'getline'
p5683
I1
tp5684
a(S'sent'
p5685
I1
tp5686
a(S'lockfp'
p5687
I1
tp5688
a(S'trH'
p5689
I1
tp5690
a(S'REGONLY'
p5691
I1
tp5692
a(S'APRA'
p5693
I1
tp5694
a(S'listed'
p5695
I1
tp5696
a(S'mailers'
p5697
I1
tp5698
a(S'skipname'
p5699
I1
tp5700
a(S'trD'
p5701
I1
tp5702
a(S'spool'
p5703
I1
tp5704
a(S'PREFERENCE'
p5705
I1
tp5706
a(S'Fixed'
p5707
I1
tp5708
a(S'authwarnings'
p5709
I1
tp5710
a(S'groupreadablekeyfile'
p5711
I1
tp5712
a(S'pops'
p5713
I1
tp5714
a(S'runprograminunsafedirpath'
p5715
I1
tp5716
a(S'magic'
p5717
I1
tp5718
a(S'CACHED'
p5719
I1
tp5720
a(S'FFR'
p5721
I1
tp5722
a(S'sendmailMTAHost'
p5723
I1
tp5724
a(S'try'
p5725
I1
tp5726
a(S'ONLY'
p5727
I1
tp5728
a(S'WorkGrp'
p5729
I1
tp5730
a(S'ConnectionRateWindowSize'
p5731
I1
tp5732
a(S'fsync'
p5733
I1
tp5734
a(S'relpath'
p5735
I1
tp5736
a(S'ttyname'
p5737
I1
tp5738
a(S'rpool'
p5739
I1
tp5740
a(S'snprintf'
p5741
I1
tp5742
a(S'Hcu'
p5743
I1
tp5744
a(S'cfg'
p5745
I1
tp5746
a(S'sendmailMTAAliasObject'
p5747
I1
tp5748
a(S'flt'
p5749
I1
tp5750
a(S'SESSION'
p5751
I1
tp5752
a(S'video'
p5753
I1
tp5754
a(S'ESMTPSA'
p5755
I1
tp5756
a(S'RealGid'
p5757
I1
tp5758
a(S'openxscript'
p5759
I1
tp5760
a(S'Hcl'
p5761
I1
tp5762
a(S'TL'
p5763
I1
tp5764
a(S'HcS'
p5765
I1
tp5766
a(S'HcP'
p5767
I1
tp5768
a(S'HcQ'
p5769
I1
tp5770
a(S'ueI'
p5771
I1
tp5772
a(S'CertFingerprintAlgorithm'
p5773
I1
tp5774
a(S'HcT'
p5775
I1
tp5776
a(S'stayopen'
p5777
I1
tp5778
a(S'RunAsUser'
p5779
I1
tp5780
a(S'HcC'
p5781
I1
tp5782
a(S'waiting'
p5783
I1
tp5784
a(S'HcA'
p5785
I1
tp5786
a(S'HcD'
p5787
I1
tp5788
a(S'HcE'
p5789
I1
tp5790
a(S'dfqgrp'
p5791
I1
tp5792
a(S'zP'
p5793
I1
tp5794
a(S'yperr'
p5795
I1
tp5796
a(S'HcL'
p5797
I1
tp5798
a(S'HcM'
p5799
I1
tp5800
a(S'completion'
p5801
I1
tp5802
a(S'BADADDR'
p5803
I1
tp5804
a(S'ROLLBACK'
p5805
I1
tp5806
a(S'Deferred'
p5807
I1
tp5808
a(S'logout'
p5809
I1
tp5810
a(S'others'
p5811
I1
tp5812
a(S'TtB'
p5813
I1
tp5814
a(S'implicit'
p5815
I1
tp5816
a(S'CRYPTOPRO'
p5817
I1
tp5818
a(S'Kernel'
p5819
I1
tp5820
a(S'stdiofd'
p5821
I1
tp5822
a(S'dtiA'
p5823
I1
tp5824
a(S'larger'
p5825
I1
tp5826
a(S'ctx'
p5827
I1
tp5828
a(S'ISEXEC'
p5829
I1
tp5830
a(S'NEEDSGETIPNODE'
p5831
I1
tp5832
a(S'cte'
p5833
I1
tp5834
a(S'cert'
p5835
I1
tp5836
a(S'smtpinit'
p5837
I1
tp5838
a(S'ctl'
p5839
I1
tp5840
a(S'tNL'
p5841
I1
tp5842
a(S'Null'
p5843
I1
tp5844
a(S'MatchGECOS'
p5845
I1
tp5846
a(S'fulfill'
p5847
I1
tp5848
a(S'ratectrl'
p5849
I1
tp5850
a(S'named'
p5851
I1
tp5852
a(S'FS'
p5853
I1
tp5854
a(S'addresses'
p5855
I1
tp5856
a(S'HASURANDOMDEV'
p5857
I1
tp5858
a(S'private'
p5859
I1
tp5860
a(S'FC'
p5861
I1
tp5862
a(S'names'
p5863
I1
tp5864
a(S'smode'
p5865
I1
tp5866
a(S'FH'
p5867
I1
tp5868
a(S'Input'
p5869
I1
tp5870
a(S'writev'
p5871
I1
tp5872
a(S'FETCH'
p5873
I1
tp5874
a(S'Status'
p5875
I1
tp5876
a(S'ERR'
p5877
I1
tp5878
a(S'certificate'
p5879
I1
tp5880
a(S'Fw'
p5881
I1
tp5882
a(S'illegal'
p5883
I1
tp5884
a(S'KthM'
p5885
I1
tp5886
a(S'readable'
p5887
I1
tp5888
a(S'calculation'
p5889
I1
tp5890
a(S'duplicate'
p5891
I1
tp5892
a(S'includefileingroupwritabledirpath'
p5893
I1
tp5894
a(S'inet'
p5895
I1
tp5896
a(S'sort'
p5897
I1
tp5898
a(S'clever'
p5899
I1
tp5900
a(S'QEXPANDED'
p5901
I1
tp5902
a(S'HASWAITPID'
p5903
I1
tp5904
a(S'initial'
p5905
I1
tp5906
a(S'mismatch'
p5907
I1
tp5908
a(S'occurred'
p5909
I1
tp5910
a(S'goaway'
p5911
I1
tp5912
a(S'KuzE'
p5913
I1
tp5914
a(S'libnsl'
p5915
I1
tp5916
a(S'subscription'
p5917
I1
tp5918
a(S'CDCH'
p5919
I1
tp5920
a(S'ALL'
p5921
I1
tp5922
a(S'chdir'
p5923
I1
tp5924
a(S'package'
p5925
I1
tp5926
a(S'intvl'
p5927
I1
tp5928
a(S'Syntax'
p5929
I1
tp5930
a(S'commaize'
p5931
I1
tp5932
a(S'anywhere'
p5933
I1
tp5934
a(S'BITMIME'
p5935
I1
tp5936
a(S'meet'
p5937
I1
tp5938
a(S'ctladdr'
p5939
I1
tp5940
a(S'opos'
p5941
I1
tp5942
a(S'YH'
p5943
I1
tp5944
a(S'bitmime'
p5945
I1
tp5946
a(S'links'
p5947
I1
tp5948
a(S'process'
p5949
I1
tp5950
a(S'lock'
p5951
I1
tp5952
a(S'vIH'
p5953
I1
tp5954
a(S'NOSLINK'
p5955
I1
tp5956
a(S'argformat'
p5957
I1
tp5958
a(S'high'
p5959
I1
tp5960
a(S'locs'
p5961
I1
tp5962
a(S'cuaH'
p5963
I1
tp5964
a(S'tW'
p5965
I1
tp5966
a(S'tcp'
p5967
I1
tp5968
a(S'openmap'
p5969
I1
tp5970
a(S'envfrom'
p5971
I1
tp5972
a(S'siz'
p5973
I1
tp5974
a(S'UNQUALOK'
p5975
I1
tp5976
a(S'EXEC'
p5977
I1
tp5978
a(S'delay'
p5979
I1
tp5980
a(S'Timeouts'
p5981
I1
tp5982
a(S'tT'
p5983
I1
tp5984
a(S'HASSETRLIMIT'
p5985
I1
tp5986
a(S'sig'
p5987
I1
tp5988
a(S'removefromlist'
p5989
I1
tp5990
a(S'itsf'
p5991
I1
tp5992
a(S'Ys'
p5993
I1
tp5994
a(S'panic'
p5995
I1
tp5996
a(S'Yv'
p5997
I1
tp5998
a(S'blocks'
p5999
I1
tp6000
a(S'ltrim'
p6001
I1
tp6002
a(S'vasprintf'
p6003
I1
tp6004
a(S'stop'
p6005
I1
tp6006
a(S'EMERG'
p6007
I1
tp6008
a(S'docstring'
p6009
I1
tp6010
a(S'linkedserviceswitchfileinwritabledir'
p6011
I1
tp6012
a(S'insufficient'
p6013
I1
tp6014
a(S'DeliverByMin'
p6015
I1
tp6016
a(S'sendqueue'
p6017
I1
tp6018
a(S'uVHc'
p6019
I1
tp6020
a(S'ambiguous'
p6021
I1
tp6022
a(S'loglevel'
p6023
I1
tp6024
a(S'CONFIG'
p6025
I1
tp6026
a(S'Missing'
p6027
I1
tp6028
a(S'After'
p6029
I1
tp6030
a(S'AUATLc'
p6031
I1
tp6032
a(S'allow'
p6033
I1
tp6034
a(S'CRAM'
p6035
I1
tp6036
a(S'MESSAGE'
p6037
I1
tp6038
a(S'SETSIZE'
p6039
I1
tp6040
a(S'PidFile'
p6041
I1
tp6042
a(S'AVAUH'
p6043
I1
tp6044
a(S'AVAUI'
p6045
I1
tp6046
a(S'sEnvelope'
p6047
I1
tp6048
a(S'AVAUL'
p6049
I1
tp6050
a(S'tsH'
p6051
I1
tp6052
a(S'Attempting'
p6053
I1
tp6054
a(S'AVAUA'
p6055
I1
tp6056
a(S'poststats'
p6057
I1
tp6058
a(S'lM'
p6059
I1
tp6060
a(S'lH'
p6061
I1
tp6062
a(S'lI'
p6063
I1
tp6064
a(S'symbols'
p6065
I1
tp6066
a(S'report'
p6067
I1
tp6068
a(S'VALID'
p6069
I1
tp6070
a(S'including'
p6071
I1
tp6072
a(S'Usage'
p6073
I1
tp6074
a(S'Final'
p6075
I1
tp6076
a(S'RandFile'
p6077
I1
tp6078
a(S'Gt'
p6079
I1
tp6080
a(S'lo'
p6081
I1
tp6082
a(S'dispose'
p6083
I1
tp6084
a(S'getrequests'
p6085
I1
tp6086
a(S'ServiceSwitchFile'
p6087
I1
tp6088
a(S'DEFAULT'
p6089
I1
tp6090
a(S'INMIME'
p6091
I1
tp6092
a(S'maildrop'
p6093
I1
tp6094
a(S'pending'
p6095
I1
tp6096
a(S'DefaultCharSet'
p6097
I1
tp6098
a(S'ClientCertFile'
p6099
I1
tp6100
a(S'greater'
p6101
I1
tp6102
a(S'python'
p6103
I1
tp6104
a(S'auto'
p6105
I1
tp6106
a(S'groupreadabledefaultauthinfofile'
p6107
I1
tp6108
a(S'Can'
p6109
I1
tp6110
a(S'vrfy'
p6111
I1
tp6112
a(S'getpwnam'
p6113
I1
tp6114
a(S'fileopen'
p6115
I1
tp6116
a(S'LPC'
p6117
I1
tp6118
a(S'day'
p6119
I1
tp6120
a(S'rewinddir'
p6121
I1
tp6122
a(S'QueueLimitId'
p6123
I1
tp6124
a(S'HxcH'
p6125
I1
tp6126
a(S'DataFileBufferSize'
p6127
I1
tp6128
a(S'esmtp'
p6129
I1
tp6130
a(S'ConnectionRateThrottle'
p6131
I1
tp6132
a(S'World'
p6133
I1
tp6134
a(S'Add'
p6135
I1
tp6136
a(S'numgrps'
p6137
I1
tp6138
a(S'NoRecipientAction'
p6139
I1
tp6140
a(S'fields'
p6141
I1
tp6142
a(S'requests'
p6143
I1
tp6144
a(S'Connecting'
p6145
I1
tp6146
a(S'libsm'
p6147
I1
tp6148
a(S'NiceQueueRun'
p6149
I1
tp6150
a(S'STD'
p6151
I1
tp6152
a(S'STAT'
p6153
I1
tp6154
a(S'apop'
p6155
I1
tp6156
a(S'doing'
p6157
I1
tp6158
a(S'Symbolic'
p6159
I1
tp6160
a(S'chunk'
p6161
I1
tp6162
a(S'Next'
p6163
I1
tp6164
a(S'LHLO'
p6165
I1
tp6166
a(S'queuereturn'
p6167
I1
tp6168
a(S'RSET'
p6169
I1
tp6170
a(S'exceeded'
p6171
I1
tp6172
a(S'QDELAYED'
p6173
I1
tp6174
a(S'Parameter'
p6175
I1
tp6176
a(S'special'
p6177
I1
tp6178
a(S'out'
p6179
I1
tp6180
a(S'shmget'
p6181
I1
tp6182
a(S'lpython'
p6183
I1
tp6184
a(S'Permission'
p6185
I1
tp6186
a(S'res'
p6187
I1
tp6188
a(S'req'
p6189
I1
tp6190
a(S'ret'
p6191
I1
tp6192
a(S'unsetenv'
p6193
I1
tp6194
a(S'tOH'
p6195
I1
tp6196
a(S'egid'
p6197
I1
tp6198
a(S'flushing'
p6199
I1
tp6200
a(S'Macro'
p6201
I1
tp6202
a(S'supports'
p6203
I1
tp6204
a(S'gethostbyaddr'
p6205
I1
tp6206
a(S'sbody'
p6207
I1
tp6208
a(S'Attempt'
p6209
I1
tp6210
a(S'Trying'
p6211
I1
tp6212
a(S'This'
p6213
I1
tp6214
a(S'turned'
p6215
I1
tp6216
a(S'MaxQueueChildren'
p6217
I1
tp6218
a(S'REF'
p6219
I1
tp6220
a(S'SECURITY'
p6221
I1
tp6222
a(S'initialize'
p6223
I1
tp6224
a(S'AuthRealm'
p6225
I1
tp6226
a(S'stab'
p6227
I1
tp6228
a(S'ltL'
p6229
I1
tp6230
a(S'kalias'
p6231
I1
tp6232
a(S'deprecated'
p6233
I1
tp6234
a(S'could'
p6235
I1
tp6236
a(S'NO'
p6237
I1
tp6238
a(S'ulAWAVAUATUSH'
p6239
I1
tp6240
a(S'endpwent'
p6241
I1
tp6242
a(S'keep'
p6243
I1
tp6244
a(S'timeo'
p6245
I1
tp6246
a(S'pathname'
p6247
I1
tp6248
a(S'setdefaults'
p6249
I1
tp6250
a(S'SaveFromLine'
p6251
I1
tp6252
a(S'TICKET'
p6253
I1
tp6254
a(S'tK'
p6255
I1
tp6256
a(S'MAILBOX'
p6257
I1
tp6258
a(S'QPINGONFAILURE'
p6259
I1
tp6260
a(S'herrno'
p6261
I1
tp6262
a(S'tYH'
p6263
I1
tp6264
a(S'scanning'
p6265
I1
tp6266
a(S'worldwritablealiasfile'
p6267
I1
tp6268
a(S'Aborting'
p6269
I1
tp6270
a(S'sendmailMTACluster'
p6271
I1
tp6272
a(S'rtrim'
p6273
I1
tp6274
a(S'Program'
p6275
I1
tp6276
a(S'DontBlameSendmail'
p6277
I1
tp6278
a(S'Flushing'
p6279
I1
tp6280
a(S'GRFILE'
p6281
I1
tp6282
a(S'Local'
p6283
I1
tp6284
a(S'queuename'
p6285
I1
tp6286
a(S'ASS'
p6287
I1
tp6288
a(S'IgnoreDots'
p6289
I1
tp6290
a(S'threshold'
p6291
I1
tp6292
a(S'management'
p6293
I1
tp6294
a(S'seq'
p6295
I1
tp6296
a(S'xeLc'
p6297
I1
tp6298
a(S'inittimeouts'
p6299
I1
tp6300
a(S'setprop'
p6301
I1
tp6302
a(S'negotiation'
p6303
I1
tp6304
a(S'grow'
p6305
I1
tp6306
a(S'attach'
p6307
I1
tp6308
a(S'attack'
p6309
I1
tp6310
a(S'ntohs'
p6311
I1
tp6312
a(S'AFSDB'
p6313
I1
tp6314
a(S'final'
p6315
I1
tp6316
a(S'low'
p6317
I1
tp6318
a(S'Actual'
p6319
I1
tp6320
a(S'Database'
p6321
I1
tp6322
a(S'curnum'
p6323
I1
tp6324
a(S'queuewarn'
p6325
I1
tp6326
a(S'completed'
p6327
I1
tp6328
a(S'nobody'
p6329
I1
tp6330
a(S'rsa'
p6331
I1
tp6332
a(S'lists'
p6333
I1
tp6334
a(S'arpa'
p6335
I1
tp6336
a(S'udb'
p6337
I1
tp6338
a(S'Infinite'
p6339
I1
tp6340
a(S'BITOK'
p6341
I1
tp6342
a(S'unsubscribe'
p6343
I1
tp6344
a(S'Ku'
p6345
I1
tp6346
a(S'Kt'
p6347
I1
tp6348
a(S'fuzzy'
p6349
I1
tp6350
a(S'bfopen'
p6351
I1
tp6352
a(S'subroutine'
p6353
I1
tp6354
a(S'fscanf'
p6355
I1
tp6356
a(S'KK'
p6357
I1
tp6358
a(S'sTtV'
p6359
I1
tp6360
a(S'KL'
p6361
I1
tp6362
a(S'probe'
p6363
I1
tp6364
a(S'nextcommand'
p6365
I1
tp6366
a(S'KW'
p6367
I1
tp6368
a(S'Connect'
p6369
I1
tp6370
a(S'bind'
p6371
I1
tp6372
a(S'ber'
p6373
I1
tp6374
a(S'TEMPFAIL'
p6375
I1
tp6376
a(S'rate'
p6377
I1
tp6378
a(S'HdH'
p6379
I1
tp6380
a(S'Executable'
p6381
I1
tp6382
a(S'ldflags'
p6383
I1
tp6384
a(S'cmode'
p6385
I1
tp6386
a(S'sMessage'
p6387
I1
tp6388
a(S'unchanged'
p6389
I1
tp6390
a(S'NOETRN'
p6391
I1
tp6392
a(S'Commands'
p6393
I1
tp6394
a(S'Results'
p6395
I1
tp6396
a(S'tcpwrappers'
p6397
I1
tp6398
a(S'tTATUI'
p6399
I1
tp6400
a(S'PATH'
p6401
I1
tp6402
a(S'apparently'
p6403
I1
tp6404
a(S'linked'
p6405
I1
tp6406
a(S'BIO'
p6407
I1
tp6408
a(S'blen'
p6409
I1
tp6410
a(S'min'
p6411
I1
tp6412
a(S'MinFreeBlocks'
p6413
I1
tp6414
a(S'TLSACT'
p6415
I1
tp6416
a(S'fseek'
p6417
I1
tp6418
a(S'mid'
p6419
I1
tp6420
a(S'tE'
p6421
I1
tp6422
a(S'BIT'
p6423
I1
tp6424
a(S'QueueLimitRecipient'
p6425
I1
tp6426
a(S'unquarantine'
p6427
I1
tp6428
a(S'debugging'
p6429
I1
tp6430
a(S'LcD'
p6431
I1
tp6432
a(S'DeadLetterDrop'
p6433
I1
tp6434
a(S'tolower'
p6435
I1
tp6436
a(S'EPHEMERAL'
p6437
I1
tp6438
a(S'HEADER'
p6439
I1
tp6440
a(S'cipher'
p6441
I1
tp6442
a(S'connected'
p6443
I1
tp6444
a(S'overlapping'
p6445
I1
tp6446
a(S'Enter'
p6447
I1
tp6448
a(S'Faking'
p6449
I1
tp6450
a(S'future'
p6451
I1
tp6452
a(S'expired'
p6453
I1
tp6454
a(S'ESMTPA'
p6455
I1
tp6456
a(S'delivery'
p6457
I1
tp6458
a(S'UUCP'
p6459
I1
tp6460
a(S'MCI'
p6461
I1
tp6462
a(S'BACKUP'
p6463
I1
tp6464
a(S'SENDQ'
p6465
I1
tp6466
a(S'Regular'
p6467
I1
tp6468
a(S'pipe'
p6469
I1
tp6470
a(S'ESMTPS'
p6471
I1
tp6472
a(S'se'
p6473
I1
tp6474
a(S'workspace'
p6475
I1
tp6476
a(S'databases'
p6477
I1
tp6478
a(S'QthI'
p6479
I1
tp6480
a(S'spayload'
p6481
I1
tp6482
a(S'selection'
p6483
I1
tp6484
a(S'dbm'
p6485
I1
tp6486
a(S'loopcount'
p6487
I1
tp6488
a(S'setsockaddroptions'
p6489
I1
tp6490
a(S'violation'
p6491
I1
tp6492
a(S'anyway'
p6493
I1
tp6494
a(S'shmstop'
p6495
I1
tp6496
a(S'lE'
p6497
I1
tp6498
a(S'TCP'
p6499
I1
tp6500
a(S'SCOPE'
p6501
I1
tp6502
a(S'pleased'
p6503
I1
tp6504
a(S'doworklist'
p6505
I1
tp6506
a(S'curqgrp'
p6507
I1
tp6508
a(S'pause'
p6509
I1
tp6510
a(S'nbadrcpts'
p6511
I1
tp6512
a(S'unfinished'
p6513
I1
tp6514
a(S'strtok'
p6515
I1
tp6516
a(S'strtod'
p6517
I1
tp6518
a(S'DefGid'
p6519
I1
tp6520
a(S'cache'
p6521
I1
tp6522
a(S'tLMc'
p6523
I1
tp6524
a(S'should'
p6525
I1
tp6526
a(S'lguile'
p6527
I1
tp6528
a(S'GLOBALS'
p6529
I1
tp6530
a(S'GUSH'
p6531
I1
tp6532
a(S'DDA'
p6533
I1
tp6534
a(S'local'
p6535
I1
tp6536
a(S'lL'
p6537
I1
tp6538
a(S'ZYtgH'
p6539
I1
tp6540
a(S'directive'
p6541
I1
tp6542
a(S'handle'
p6543
I1
tp6544
a(S'FACILITY'
p6545
I1
tp6546
a(S'BUFFER'
p6547
I1
tp6548
a(S'groupwritableincludefilesafe'
p6549
I1
tp6550
a(S'ko'
p6551
I1
tp6552
a(S'HASLSTAT'
p6553
I1
tp6554
a(S'ones'
p6555
I1
tp6556
a(S'qG'
p6557
I1
tp6558
a(S'allowed'
p6559
I1
tp6560
a(S'wicket'
p6561
I1
tp6562
a(S'interpreted'
p6563
I1
tp6564
a(S'registrar'
p6565
I1
tp6566
a(S'qs'
p6567
I1
tp6568
a(S'qt'
p6569
I1
tp6570
a(S'AWAVLc'
p6571
I1
tp6572
a(S'quarantine'
p6573
I1
tp6574
a(S'NID'
p6575
I1
tp6576
a(S'xdH'
p6577
I1
tp6578
a(S'FAILED'
p6579
I1
tp6580
a(S'ctype'
p6581
I1
tp6582
a(S'checkcompat'
p6583
I1
tp6584
a(S'qf'
p6585
I1
tp6586
a(S'NIS'
p6587
I1
tp6588
a(S'sigismember'
p6589
I1
tp6590
a(S'fixed'
p6591
I1
tp6592
a(S'VISUAL'
p6593
I1
tp6594
a(S'temporarily'
p6595
I1
tp6596
a(S'Pt'
p6597
I1
tp6598
a(S'Pz'
p6599
I1
tp6600
a(S'SoftBounce'
p6601
I1
tp6602
a(S'mailfile'
p6603
I1
tp6604
a(S'bufused'
p6605
I1
tp6606
a(S'Send'
p6607
I1
tp6608
a(S'writable'
p6609
I1
tp6610
a(S'Pf'
p6611
I1
tp6612
a(S'RATA'
p6613
I1
tp6614
a(S'DEREF'
p6615
I1
tp6616
a(S'Pl'
p6617
I1
tp6618
a(S'RATH'
p6619
I1
tp6620
a(S'outchfd'
p6621
I1
tp6622
a(S'NONE'
p6623
I1
tp6624
a(S'ClientSSLOptions'
p6625
I1
tp6626
a(S'attempting'
p6627
I1
tp6628
a(S'xf'
p6629
I1
tp6630
a(S'lldap'
p6631
I1
tp6632
a(S'AWAVAUATUSHc'
p6633
I1
tp6634
a(S'CurRunners'
p6635
I1
tp6636
a(S'macros'
p6637
I1
tp6638
a(S'PA'
p6639
I1
tp6640
a(S'PD'
p6641
I1
tp6642
a(S'PE'
p6643
I1
tp6644
a(S'PJ'
p6645
I1
tp6646
a(S'PIPELINING'
p6647
I1
tp6648
a(S'PH'
p6649
I1
tp6650
a(S'PI'
p6651
I1
tp6652
a(S'PL'
p6653
I1
tp6654
a(S'PM'
p6655
I1
tp6656
a(S'Sending'
p6657
I1
tp6658
a(S'REFERRALS'
p6659
I1
tp6660
a(S'ruser'
p6661
I1
tp6662
a(S'NULLADDR'
p6663
I1
tp6664
a(S'checkMIMETextHeaders'
p6665
I1
tp6666
a(S'ITEMS'
p6667
I1
tp6668
a(S'hM'
p6669
I1
tp6670
a(S'deliver'
p6671
I1
tp6672
a(S'sdefine'
p6673
I1
tp6674
a(S'TempFileMode'
p6675
I1
tp6676
a(S'UNIX'
p6677
I1
tp6678
a(S'enoughdiskspace'
p6679
I1
tp6680
a(S'key'
p6681
I1
tp6682
a(S'getdtablesize'
p6683
I1
tp6684
a(S'Server'
p6685
I1
tp6686
a(S'sigaction'
p6687
I1
tp6688
a(S'QDYNMAILER'
p6689
I1
tp6690
a(S'vsnprintf'
p6691
I1
tp6692
a(S'UseMSP'
p6693
I1
tp6694
a(S'etc'
p6695
I1
tp6696
a(S'DDH'
p6697
I1
tp6698
a(S'buD'
p6699
I1
tp6700
a(S'attributes'
p6701
I1
tp6702
a(S'closelog'
p6703
I1
tp6704
a(S'vrH'
p6705
I1
tp6706
a(S'PAGER'
p6707
I1
tp6708
a(S'SSIZE'
p6709
I1
tp6710
a(S'strftime'
p6711
I1
tp6712
a(S'comment'
p6713
I1
tp6714
a(S'ci'
p6715
I1
tp6716
a(S'lm'
p6717
I1
tp6718
a(S'cn'
p6719
I1
tp6720
a(S'Would'
p6721
I1
tp6722
a(S'cl'
p6723
I1
tp6724
a(S'cc'
p6725
I1
tp6726
a(S'lj'
p6727
I1
tp6728
a(S'ca'
p6729
I1
tp6730
a(S'initmaps'
p6731
I1
tp6732
a(S'cf'
p6733
I1
tp6734
a(S'nextstate'
p6735
I1
tp6736
a(S'QUEUE'
p6737
I1
tp6738
a(S'Currently'
p6739
I1
tp6740
a(S'OldStyleHeaders'
p6741
I1
tp6742
a(S'cp'
p6743
I1
tp6744
a(S'RESUMPTION'
p6745
I1
tp6746
a(S'cv'
p6747
I1
tp6748
a(S'cu'
p6749
I1
tp6750
a(S'SNDBUF'
p6751
I1
tp6752
a(S'cH'
p6753
I1
tp6754
a(S'sigprocmask'
p6755
I1
tp6756
a(S'daemons'
p6757
I1
tp6758
a(S'nanosleep'
p6759
I1
tp6760
a(S'MaxRunnersPerQueue'
p6761
I1
tp6762
a(S'cD'
p6763
I1
tp6764
a(S'HASUNAME'
p6765
I1
tp6766
a(S'ruleset'
p6767
I1
tp6768
a(S'sendmailMTAClassValue'
p6769
I1
tp6770
a(S'rpvect'
p6771
I1
tp6772
a(S'ucL'
p6773
I1
tp6774
a(S'lx'
p6775
I1
tp6776
a(S'GdvIH'
p6777
I1
tp6778
a(S'Deny'
p6779
I1
tp6780
a(S'bit'
p6781
I1
tp6782
a(S'EXCHANGE'
p6783
I1
tp6784
a(S'lgc'
p6785
I1
tp6786
a(S'GETFL'
p6787
I1
tp6788
a(S'assert'
p6789
I1
tp6790
a(S'STATE'
p6791
I1
tp6792
a(S'shmctl'
p6793
I1
tp6794
a(S'USH'
p6795
I1
tp6796
a(S'How'
p6797
I1
tp6798
a(S'wgrp'
p6799
I1
tp6800
a(S'plain'
p6801
I1
tp6802
a(S'examine'
p6803
I1
tp6804
a(S'HsOA'
p6805
I1
tp6806
a(S'writemaptosymlink'
p6807
I1
tp6808
a(S'inittls'
p6809
I1
tp6810
a(S'dumpstate'
p6811
I1
tp6812
a(S'cataddr'
p6813
I1
tp6814
a(S'getpwuid'
p6815
I1
tp6816
a(S'savemail'
p6817
I1
tp6818
a(S'DONTSEND'
p6819
I1
tp6820
a(S'layer'
p6821
I1
tp6822
a(S'uqM'
p6823
I1
tp6824
a(S'COMPRESSION'
p6825
I1
tp6826
a(S'tOUSH'
p6827
I1
tp6828
a(S'delaying'
p6829
I1
tp6830
a(S'vl'
p6831
I1
tp6832
a(S'site'
p6833
I1
tp6834
a(S'DefaultAuthInfo'
p6835
I1
tp6836
a(S'tu'
p6837
I1
tp6838
a(S'macset'
p6839
I1
tp6840
a(S'TrustedUser'
p6841
I1
tp6842
a(S'vt'
p6843
I1
tp6844
a(S'mimeboundary'
p6845
I1
tp6846
a(S'novrfy'
p6847
I1
tp6848
a(S'You'
p6849
I1
tp6850
a(S'avg'
p6851
I1
tp6852
a(S'DHParameters'
p6853
I1
tp6854
a(S'ing'
p6855
I1
tp6856
a(S'Return'
p6857
I1
tp6858
a(S'setpwent'
p6859
I1
tp6860
a(S'libmuaux'
p6861
I1
tp6862
a(S'SendmailBufferedFile'
p6863
I1
tp6864
a(S'invalidate'
p6865
I1
tp6866
a(S'privileges'
p6867
I1
tp6868
a(S'getc'
p6869
I1
tp6870
a(S'gete'
p6871
I1
tp6872
a(S'member'
p6873
I1
tp6874
a(S'parts'
p6875
I1
tp6876
a(S'CHANGE'
p6877
I1
tp6878
a(S'vX'
p6879
I1
tp6880
a(S'Processing'
p6881
I1
tp6882
a(S'readqf'
p6883
I1
tp6884
a(S'privileged'
p6885
I1
tp6886
a(S'optarg'
p6887
I1
tp6888
a(S'tree'
p6889
I1
tp6890
a(S'HESIOD'
p6891
I1
tp6892
a(S'longjmp'
p6893
I1
tp6894
a(S'HASSTRERROR'
p6895
I1
tp6896
a(S'xlat'
p6897
I1
tp6898
a(S'AUTH'
p6899
I1
tp6900
a(S'MTU'
p6901
I1
tp6902
a(S'HostsFile'
p6903
I1
tp6904
a(S'milter'
p6905
I1
tp6906
a(S'helpfile'
p6907
I1
tp6908
a(S'infinite'
p6909
I1
tp6910
a(S'MTA'
p6911
I1
tp6912
a(S'tZL'
p6913
I1
tp6914
a(S'phI'
p6915
I1
tp6916
a(S'ARU'
p6917
I1
tp6918
a(S'zO'
p6919
I1
tp6920
a(S'patterns'
p6921
I1
tp6922
a(S'OPENLDAP'
p6923
I1
tp6924
a(S'fput'
p6925
I1
tp6926
a(S'Need'
p6927
I1
tp6928
a(S'MAXLINE'
p6929
I1
tp6930
a(S'gfff'
p6931
I1
tp6932
a(S'lseek'
p6933
I1
tp6934
a(S'serrno'
p6935
I1
tp6936
a(S'excessive'
p6937
I1
tp6938
a(S'Using'
p6939
I1
tp6940
a(S'ConnectionCacheTimeout'
p6941
I1
tp6942
a(S'boolean'
p6943
I1
tp6944
a(S'transient'
p6945
I1
tp6946
a(S'BN'
p6947
I1
tp6948
a(S'weH'
p6949
I1
tp6950
a(S'DEAD'
p6951
I1
tp6952
a(S'QINTBCC'
p6953
I1
tp6954
a(S'Access'
p6955
I1
tp6956
a(S'against'
p6957
I1
tp6958
a(S'BW'
p6959
I1
tp6960
a(S'Dropping'
p6961
I1
tp6962
a(S'dfeb'
p6963
I1
tp6964
a(S'Collected'
p6965
I1
tp6966
a(S'Autoconverted'
p6967
I1
tp6968
a(S'BY'
p6969
I1
tp6970
a(S'FQRCPT'
p6971
I1
tp6972
a(S'SHELL'
p6973
I1
tp6974
a(S'console'
p6975
I1
tp6976
a(S'FATALERRS'
p6977
I1
tp6978
a(S'putbody'
p6979
I1
tp6980
a(S'capabilities'
p6981
I1
tp6982
a(S'Diagnostic'
p6983
I1
tp6984
a(S'terminating'
p6985
I1
tp6986
a(S'optopt'
p6987
I1
tp6988
a(S'sTime'
p6989
I1
tp6990
a(S'logger'
p6991
I1
tp6992
a(S'tcE'
p6993
I1
tp6994
a(S'By'
p6995
I1
tp6996
a(S'ResolverOptions'
p6997
I1
tp6998
a(S'ctrl'
p6999
I1
tp7000
a(S'checking'
p7001
I1
tp7002
a(S'CLEAR'
p7003
I1
tp7004
a(S'srvrsmtp'
p7005
I1
tp7006
a(S'ENVELOPE'
p7007
I1
tp7008
a(S'SESS'
p7009
I1
tp7010
a(S'nentry'
p7011
I1
tp7012
a(S'know'
p7013
I1
tp7014
a(S'resolver'
p7015
I1
tp7016
a(S'datafinal'
p7017
I1
tp7018
a(S'Debug'
p7019
I1
tp7020
a(S'LMTP'
p7021
I1
tp7022
a(S'desc'
p7023
I1
tp7024
a(S'CISCO'
p7025
I1
tp7026
a(S'lost'
p7027
I1
tp7028
a(S'Encoding'
p7029
I1
tp7030
a(S'DOUBLE'
p7031
I1
tp7032
a(S'smiostderr'
p7033
I1
tp7034
a(S'Connection'
p7035
I1
tp7036
a(S'multiqueue'
p7037
I1
tp7038
a(S'Warning'
p7039
I1
tp7040
a(S'hosts'
p7041
I1
tp7042
a(S'have'
p7043
I1
tp7044
a(S'sscanf'
p7045
I1
tp7046
a(S'Unix'
p7047
I1
tp7048
a(S'replacement'
p7049
I1
tp7050
a(S'ADVANCE'
p7051
I1
tp7052
a(S'DoubleBounceAddress'
p7053
I1
tp7054
a(S'didn'
p7055
I1
tp7056
a(S'pD'
p7057
I1
tp7058
a(S'Parameters'
p7059
I1
tp7060
a(S'CHALLENGE'
p7061
I1
tp7062
a(S'UNSAFE'
p7063
I1
tp7064
a(S'library'
p7065
I1
tp7066
a(S'Errors'
p7067
I1
tp7068
a(S'sendmailMTAAliasURL'
p7069
I1
tp7070
a(S'home'
p7071
I1
tp7072
a(S'Rcode'
p7073
I1
tp7074
a(S'libwrap'
p7075
I1
tp7076
a(S'wI'
p7077
I1
tp7078
a(S'tmp'
p7079
I1
tp7080
a(S'returned'
p7081
I1
tp7082
a(S'Clear'
p7083
I1
tp7084
a(S'Option'
p7085
I1
tp7086
a(S'Returned'
p7087
I1
tp7088
a(S'checkMIMEFieldHeaders'
p7089
I1
tp7090
a(S'leak'
p7091
I1
tp7092
a(S'expensive'
p7093
I1
tp7094
a(S'statmta'
p7095
I1
tp7096
a(S'setrlimit'
p7097
I1
tp7098
a(S'runwritableprogram'
p7099
I1
tp7100
a(S'itself'
p7101
I1
tp7102
a(S'validity'
p7103
I1
tp7104
a(S'getauth'
p7105
I1
tp7106
a(S'Uq'
p7107
I1
tp7108
a(S'pp'
p7109
I1
tp7110
a(S'Un'
p7111
I1
tp7112
a(S'Ui'
p7113
I1
tp7114
a(S'offset'
p7115
I1
tp7116
a(S'USAGE'
p7117
I1
tp7118
a(S'gethostname'
p7119
I1
tp7120
a(S'INCLUDE'
p7121
I1
tp7122
a(S'RESPONSE'
p7123
I1
tp7124
a(S'wlist'
p7125
I1
tp7126
a(S'outbuf'
p7127
I1
tp7128
a(S'about'
p7129
I1
tp7130
a(S'socket'
p7131
I1
tp7132
a(S'TLSEXT'
p7133
I1
tp7134
a(S'getting'
p7135
I1
tp7136
a(S'UP'
p7137
I1
tp7138
a(S'US'
p7139
I1
tp7140
a(S'Replace'
p7141
I1
tp7142
a(S'sendmailMTAClassName'
p7143
I1
tp7144
a(S'HASRRESVPORT'
p7145
I1
tp7146
a(S'lxstat'
p7147
I1
tp7148
a(S'UH'
p7149
I1
tp7150
a(S'UD'
p7151
I1
tp7152
a(S'UG'
p7153
I1
tp7154
a(S'Possibilties'
p7155
I1
tp7156
a(S'software'
p7157
I1
tp7158
a(S'own'
p7159
I1
tp7160
a(S'lmtp'
p7161
I1
tp7162
a(S'ForkEachJob'
p7163
I1
tp7164
a(S'objectClass'
p7165
I1
tp7166
a(S'SCANF'
p7167
I1
tp7168
a(S'OPENSSL'
p7169
I1
tp7170
a(S'BROKEN'
p7171
I1
tp7172
a(S'Internal'
p7173
I1
tp7174
a(S'sigemptyset'
p7175
I1
tp7176
a(S'quiet'
p7177
I1
tp7178
a(S'readline'
p7179
I1
tp7180
a(S'DONT'
p7181
I1
tp7182
a(S'terminated'
p7183
I1
tp7184
a(S'ServerCertFile'
p7185
I1
tp7186
a(S'val'
p7187
I1
tp7188
a(S'transfer'
p7189
I1
tp7190
a(S'stdstream'
p7191
I1
tp7192
a(S'automode'
p7193
I1
tp7194
a(S'GLOBALERRS'
p7195
I1
tp7196
a(S'uidl'
p7197
I1
tp7198
a(S'libmu'
p7199
I1
tp7200
a(S'QBYTRACE'
p7201
I1
tp7202
a(S'var'
p7203
I1
tp7204
a(S'kvBH'
p7205
I1
tp7206
a(S'STRING'
p7207
I1
tp7208
a(S'libresolv'
p7209
I1
tp7210
a(S'tIA'
p7211
I1
tp7212
a(S'stopping'
p7213
I1
tp7214
a(S'FE'
p7215
I1
tp7216
a(S'errnum'
p7217
I1
tp7218
a(S'hv'
p7219
I1
tp7220
a(S'lookups'
p7221
I1
tp7222
a(S'ht'
p7223
I1
tp7224
a(S'hj'
p7225
I1
tp7226
a(S'collected'
p7227
I1
tp7228
a(S'Timeout'
p7229
I1
tp7230
a(S'ConnectionCacheSize'
p7231
I1
tp7232
a(S'buf'
p7233
I1
tp7234
a(S'AUATA'
p7235
I1
tp7236
a(S'temp'
p7237
I1
tp7238
a(S'dangerous'
p7239
I1
tp7240
a(S'lastuse'
p7241
I1
tp7242
a(S'signed'
p7243
I1
tp7244
a(S'hJ'
p7245
I1
tp7246
a(S'FAILURE'
p7247
I1
tp7248
a(S'hH'
p7249
I1
tp7250
a(S'hI'
p7251
I1
tp7252
a(S'limit'
p7253
I1
tp7254
a(S'hL'
p7255
I1
tp7256
a(S'filemode'
p7257
I1
tp7258
a(S'STAB'
p7259
I1
tp7260
a(S'problem'
p7261
I1
tp7262
a(S'hA'
p7263
I1
tp7264
a(S'QueueSortOrder'
p7265
I1
tp7266
a(S'hD'
p7267
I1
tp7268
a(S'hE'
p7269
I1
tp7270
a(S'AUUA'
p7271
I1
tp7272
a(S'sockaddr'
p7273
I1
tp7274
a(S'Realm'
p7275
I1
tp7276
a(S'KEYWORD'
p7277
I1
tp7278
a(S'mask'
p7279
I1
tp7280
a(S'nodename'
p7281
I1
tp7282
a(S'received'
p7283
I1
tp7284
a(S'pid'
p7285
I1
tp7286
a(S'dialogue'
p7287
I1
tp7288
a(S'crackaddr'
p7289
I1
tp7290
a(S'MSP'
p7291
I1
tp7292
a(S'bprintf'
p7293
I1
tp7294
a(S'ino'
p7295
I1
tp7296
a(S'oneline'
p7297
I1
tp7298
a(S'MSG'
p7299
I1
tp7300
a(S'NULL'
p7301
I1
tp7302
a(S'trailing'
p7303
I1
tp7304
a(S'ExitStat'
p7305
I1
tp7306
a(S'HDRS'
p7307
I1
tp7308
a(S'DaemonPortOptions'
p7309
I1
tp7310
a(S'Temporary'
p7311
I1
tp7312
a(S'dferror'
p7313
I1
tp7314
a(S'boot'
p7315
I1
tp7316
a(S'virtual'
p7317
I1
tp7318
a(S'Delivery'
p7319
I1
tp7320
a(S'istate'
p7321
I1
tp7322
a(S'details'
p7323
I1
tp7324
a(S'suppress'
p7325
I1
tp7326
a(S'getopt'
p7327
I1
tp7328
a(S'UnsafeGroupWrites'
p7329
I1
tp7330
a(S'SharedMemoryKeyFile'
p7331
I1
tp7332
a(S'Lost'
p7333
I1
tp7334
a(S'Remove'
p7335
I1
tp7336
a(S'directory'
p7337
I1
tp7338
a(S'rqe'
p7339
I1
tp7340
a(S'readlink'
p7341
I1
tp7342
a(S'URLs'
p7343
I1
tp7344
a(S'ntries'
p7345
I1
tp7346
a(S'mailsender'
p7347
I1
tp7348
a(S'Op'
p7349
I1
tp7350
a(S'CD'
p7351
I1
tp7352
a(S'LOCAL'
p7353
I1
tp7354
a(S'RDLENGTH'
p7355
I1
tp7356
a(S'opened'
p7357
I1
tp7358
a(S'setreuid'
p7359
I1
tp7360
a(S'Gdv'
p7361
I1
tp7362
a(S'FIPSMode'
p7363
I1
tp7364
a(S'eoh'
p7365
I1
tp7366
a(S'subscribe'
p7367
I1
tp7368
a(S'persistent'
p7369
I1
tp7370
a(S'eom'
p7371
I1
tp7372
a(S'bcc'
p7373
I1
tp7374
a(S'fpathconf'
p7375
I1
tp7376
a(S'finalrcpt'
p7377
I1
tp7378
a(S'sasl'
p7379
I1
tp7380
a.