(lp0
(S'51306'
p1
I1
tp2
a(S'guest'
p3
I1
tp4
a(S'22'
p5
I1
tp6
a(S'admin'
p7
I1
tp8
a(S'10.0.0.1'
p9
I1
tp10
a(S'C:\\'
p11
I1
tp12
a(S'1125822956'
p13
I1
tp14
a(S'/'
p15
I1
tp16
a(S'192.168.0.1'
p17
I1
tp18
a(S'user'
p19
I1
tp20
a(S'anonymous'
p21
I1
tp22
a(S'http://www.example.com'
p23
I1
tp24
a(S'root'
p25
I1
tp26
a(S'127.0.0.1'
p27
I1
tp28
a.