(lp0
(S'/lib64/ld-linux-x86-64.so.2'
p1
I41
tp2
a(S'/usr/share/locale'
p3
I8
tp4
a(S'/dev/null'
p5
I6
tp6
a(S'/bin/sh'
p7
I4
tp8
a(S'/dev/tty'
p9
I4
tp10
a(S'/usr/bin'
p11
I3
tp12
a(S'/org/freedesktop/DBus'
p13
I3
tp14
a(S'/var/runA'
p15
I3
tp16
a(S'/etc/resolv.conf'
p17
I2
tp18
a(S'/etc/gnupg2'
p19
I2
tp20
a(S'/org/bluez/obex'
p21
I2
tp22
a(S'/etc/telnetrc'
p23
I2
tp24
a(S'/dev/net/tun'
p25
I2
tp26
a(S'/var/run/gnupg2/S.dirmngr'
p27
I2
tp28
a(S'/usr/lib/gnupg2'
p29
I2
tp30
a(S'/var/cache/gnupg2'
p31
I2
tp32
a(S'/org/freedesktop/PolicyKit1/Authority'
p33
I2
tp34
a(S'/usr/lib/x86_64-linux-gnu/gnupg2'
p35
I2
tp36
a(S'/usr/share/gnupg2'
p37
I2
tp38
a(S'/tmp/ssh-XXXXXXXXXXXX'
p39
I2
tp40
a(S'/usr/lib/git-core'
p41
I1
tp42
a(S'fini'
p43
I1
tp44
a(S'/build/wireshark-70hx3V/wireshark-2.0.2+ga16e22e/file.c'
p45
I1
tp46
a(S'/sys/class/net/%s/wireless'
p47
I1
tp48
a(S'42449'
p49
I1
tp50
a(S'/dev/bluetooth/rfcomm/%d'
p51
I1
tp52
a(S'/proc/self/oom_score_adj'
p53
I1
tp54
a(S'/etc/ssh/ssh_known_hosts2'
p55
I1
tp56
a(S'/etc/NetworkManager/VPN'
p57
I1
tp58
a(S'/etc/ssh/moduli'
p59
I1
tp60
a(S'to'
p61
I1
tp62
a(S'/etc/ssh/ssh_host_rsa_key'
p63
I1
tp64
a(S'/proc/%ld/fd'
p65
I1
tp66
a(S'/org/bluez'
p67
I1
tp68
a(S'main'
p69
I1
tp70
a(S'/build/wireshark-70hx3V/wireshark-2.0.2+ga16e22e/ui/console.c'
p71
I1
tp72
a(S'/etc/'
p73
I1
tp74
a(S'/usr/lib/x86_64-linux-gnu/avahi/service-types.db'
p75
I1
tp76
a(S'dyn'
p77
I1
tp78
a(S'/usr/include/x86_64-linux-gnu/qt5/QtCore/qvector.h'
p79
I1
tp80
a(S'/build/wireshark-70hx3V/wireshark-2.0.2+ga16e22e/ui/qt/dissector_tables_dialog.cpp'
p81
I1
tp82
a(S'anonymous'
p83
I1
tp84
a(S'/pks/add'
p85
I1
tp86
a(S'/etc/ssh/ssh_host_ed25519_key'
p87
I1
tp88
a(S'name'
p89
I1
tp90
a(S'/build/wireshark-70hx3V/wireshark-2.0.2+ga16e22e/ui/qt/follow_stream_dialog.cpp'
p91
I1
tp92
a(S'/build/wireshark-70hx3V/wireshark-2.0.2+ga16e22e/ui/qt/preferences_dialog.cpp'
p93
I1
tp94
a(S'192.168.10.1'
p95
I1
tp96
a(S'/build/wireshark-70hx3V/wireshark-2.0.2+ga16e22e/capture_opts.c'
p97
I1
tp98
a(S'413'
p99
I1
tp100
a(S'/usr/share/locale/'
p101
I1
tp102
a(S'/usr/lib/NetworkManager'
p103
I1
tp104
a(S'/usr/include/x86_64-linux-gnu/qt5/QtCore/qmutex.h'
p105
I1
tp106
a(S'set'
p107
I1
tp108
a(S'/build/wireshark-70hx3V/wireshark-2.0.2+ga16e22e/ui/qt/main_window_slots.cpp'
p109
I1
tp110
a(S'/etc/ssh/ssh_host_dsa_key'
p111
I1
tp112
a(S'/etc/dirmngr'
p113
I1
tp114
a(S'/languages/'
p115
I1
tp116
a(S'array'
p117
I1
tp118
a(S'/usr/sbin/openconnect'
p119
I1
tp120
a(S'/usr/lib/openssh/ssh-keysign'
p121
I1
tp122
a(S'/usr/share/nm-applet/8021x.ui'
p123
I1
tp124
a(S'/usr/include/x86_64-linux-gnu/qt5/QtCore/qmetatype.h'
p125
I1
tp126
a(S'version'
p127
I1
tp128
a(S'/lib/firmware'
p129
I1
tp130
a(S'/build/wireshark-70hx3V/wireshark-2.0.2+ga16e22e/fileset.c'
p131
I1
tp132
a(S'/build/wireshark-70hx3V/wireshark-2.0.2+ga16e22e/ui/qt/packet_list.cpp'
p133
I1
tp134
a(S'/usr/bin/ssh-askpass'
p135
I1
tp136
a(S'/tmp/.X11-unix/X%u'
p137
I1
tp138
a(S'got'
p139
I1
tp140
a(S'/build/wireshark-70hx3V/wireshark-2.0.2+ga16e22e/wireshark-qt.cpp'
p141
I1
tp142
a(S'/etc/ssh/ssh_host_ecdsa_key'
p143
I1
tp144
a(S'/etc/wgetrc'
p145
I1
tp146
a(S'/build/wireshark-70hx3V/wireshark-2.0.2+ga16e22e/ui/proto_hier_stats.c'
p147
I1
tp148
a(S'/build/wireshark-70hx3V/wireshark-2.0.2+ga16e22e/ui/decode_as_utils.c'
p149
I1
tp150
a(S'ld'
p151
I1
tp152
a(S'free'
p153
I1
tp154
a(S'/usr/include/x86_64-linux-gnu/qt5/QtCore/qscopedpointer.h'
p155
I1
tp156
a(S'/var/cache/app-info/xmls/fwupd-verify.xml'
p157
I1
tp158
a(S'/dev/urandom'
p159
I1
tp160
a(S'/usr/local/bin/'
p161
I1
tp162
a(S'/build/webbrowser-app-4Hx99o/webbrowser-app-0.23+16.04.20160413/obj-x86_64-linux-gnu/src'
p163
I1
tp164
a(S'/etc/mailname'
p165
I1
tp166
a(S'admin'
p167
I1
tp168
a(S'/usr/bin/'
p169
I1
tp170
a(S'/usr/share/nm-applet/eap-method-tls.ui'
p171
I1
tp172
a(S'/org/bluez/profile'
p173
I1
tp174
a(S'/etc/ssh/ssh_config'
p175
I1
tp176
a(S'/pks/lookup?op=index&options=mr&search='
p177
I1
tp178
a(S'/bad-path/'
p179
I1
tp180
a(S'/build/wireshark-70hx3V/wireshark-2.0.2+ga16e22e/color_filters.c'
p181
I1
tp182
a(S'/usr/include/x86_64-linux-gnu/qt5/QtCore/qhash.h'
p183
I1
tp184
a(S'/build/wireshark-70hx3V/wireshark-2.0.2+ga16e22e/ui/qt/import_text_dialog.cpp'
p185
I1
tp186
a(S'/etc/gitconfig'
p187
I1
tp188
a(S'/usr/lib'
p189
I1
tp190
a(S'/build/wireshark-70hx3V/wireshark-2.0.2+ga16e22e/ui/io_graph_item.h'
p191
I1
tp192
a(S'/build/wireshark-70hx3V/wireshark-2.0.2+ga16e22e/ui/qt/main_window.cpp'
p193
I1
tp194
a(S'/build/wireshark-70hx3V/wireshark-2.0.2+ga16e22e/ui/qt/uat_dialog.cpp'
p195
I1
tp196
a(S'479049726'
p197
I1
tp198
a(S'/usr/share/nm-applet/eap-method-simple.ui'
p199
I1
tp200
a(S'/build/wireshark-70hx3V/wireshark-2.0.2+ga16e22e/ui/qt/io_graph_dialog.cpp'
p201
I1
tp202
a(S'/build/wireshark-70hx3V/wireshark-2.0.2+ga16e22e/ui/help_url.c'
p203
I1
tp204
a(S'from'
p205
I1
tp206
a(S'guest'
p207
I1
tp208
a(S'/S/?'
p209
I1
tp210
a(S'init'
p211
I1
tp212
a(S'/build/wireshark-70hx3V/wireshark-2.0.2+ga16e22e/ui/qt/packet_range_group_box.cpp'
p213
I1
tp214
a(S'/dev/rfcomm'
p215
I1
tp216
a(S'/usr/include/x86_64-linux-gnu/qt5/QtCore/qsize.h'
p217
I1
tp218
a(S'/usr/include/x86_64-linux-gnu/qt5/QtCore/qsharedpointer_impl.h'
p219
I1
tp220
a(S'/build/wireshark-70hx3V/wireshark-2.0.2+ga16e22e/ui/filters.c'
p221
I1
tp222
a(S'/build/wireshark-70hx3V/wireshark-2.0.2+ga16e22e/ui/capture.c'
p223
I1
tp224
a(S'/usr/share/nm-applet/gsm-unlock.ui'
p225
I1
tp226
a(S'/build/webbrowser-app-4Hx99o/webbrowser-app-0.23+16.04.20160413/src/app'
p227
I1
tp228
a(S'/proc/self/oom_adj'
p229
I1
tp230
a(S'/desktop/gnome/url-handlers/mailto/command'
p231
I1
tp232
a(S'/usr/include/x86_64-linux-gnu/qt5/QtCore/qmap.h'
p233
I1
tp234
a(S'/etc/ssh/primes'
p235
I1
tp236
a(S'hh'
p237
I1
tp238
a(S'/usr/bin/nm-connection-editor'
p239
I1
tp240
a(S'/build/wireshark-70hx3V/wireshark-2.0.2+ga16e22e/ui/qt/rtp_analysis_dialog.cpp'
p241
I1
tp242
a(S'/usr/sbin/'
p243
I1
tp244
a(S'/var/lib/fwupd'
p245
I1
tp246
a(S'/usr/bin/ssh'
p247
I1
tp248
a(S'/usr/local/sbin/'
p249
I1
tp250
a(S'/usr/include/x86_64-linux-gnu/qt5/QtCore/qstring.h'
p251
I1
tp252
a(S'//#)'
p253
I1
tp254
a(S'/usr/sbin/NetworkManager'
p255
I1
tp256
a(S'/build/wireshark-70hx3V/wireshark-2.0.2+ga16e22e/ui/preference_utils.c'
p257
I1
tp258
a(S'/org/gnome/nm-applet/eap/%s/'
p259
I1
tp260
a(S'192.168.0.1'
p261
I1
tp262
a(S'/build/wireshark-70hx3V/wireshark-2.0.2+ga16e22e/ui/voip_calls.c'
p263
I1
tp264
a(S'/build/wireshark-70hx3V/wireshark-2.0.2+ga16e22e/ui/qt/decode_as_dialog.cpp'
p265
I1
tp266
a(S'/usr/share/nm-applet/ws-wpa-eap.ui'
p267
I1
tp268
a(S'/pks/lookup?op=get&options=mr&search='
p269
I1
tp270
a(S'/usr/share/nm-applet/eap-method-leap.ui'
p271
I1
tp272
a(S'root'
p273
I1
tp274
a(S'/build/wireshark-70hx3V/wireshark-2.0.2+ga16e22e/capchild/capture_sync.c'
p275
I1
tp276
a(S'/dev/null.'
p277
I1
tp278
a(S'/dev/null"'
p279
I1
tp280
a(S'/usr/share/nm-applet/eap-method-ttls.ui'
p281
I1
tp282
a(S'/build/wireshark-70hx3V/wireshark-2.0.2+ga16e22e/ui/qt/profile_dialog.cpp'
p283
I1
tp284
a(S'/[@a-zA-Z0-9.\\-\\\\\\/]/'
p285
I1
tp286
a(S'/dev/rfcomm%d'
p287
I1
tp288
a(S'//u$'
p289
I1
tp290
a(S'/usr/share/icons'
p291
I1
tp292
a(S'127.0.0.1'
p293
I1
tp294
a(S'failed'
p295
I1
tp296
a(S'end'
p297
I1
tp298
a(S'lib'
p299
I1
tp300
a(S'/sys/kernel/debug/bluetooth/hci%u/identity'
p301
I1
tp302
a(S'/build/wireshark-70hx3V/wireshark-2.0.2+ga16e22e/ui/qt/funnel_statistics.cpp'
p303
I1
tp304
a(S'/usr/share/webbrowser-app'
p305
I1
tp306
a(S'/usr/include/x86_64-linux-gnu/qt5/QtCore/qlist.h'
p307
I1
tp308
a(S'/tmp/logo.png'
p309
I1
tp310
a(S'/usr/share/nm-applet/eap-method-fast.ui'
p311
I1
tp312
a(S'/?/{`n&'
p313
I1
tp314
a(S'/build/wireshark-70hx3V/wireshark-2.0.2+ga16e22e/ui/qt/expert_info_dialog.cpp'
p315
I1
tp316
a(S'/org/freedesktop/systemd1'
p317
I1
tp318
a(S'/build/wireshark-70hx3V/wireshark-2.0.2+ga16e22e/ui/qt/packet_list_record.cpp'
p319
I1
tp320
a(S'/_/H'
p321
I1
tp322
a(S'bss'
p323
I1
tp324
a(S'/webbrowser/searchengines'
p325
I1
tp326
a(S'user'
p327
I1
tp328
a(S'/usr/share/nm-applet/info.ui'
p329
I1
tp330
a(S'/usr/share/nm-applet/ce-page-dsl.ui'
p331
I1
tp332
a(S'/etc/ssh/ssh_known_hosts'
p333
I1
tp334
a(S'data'
p335
I1
tp336
a(S'//'
p337
I1
tp338
a(S'/usr/include/x86_64-linux-gnu/qt5/QtCore/qarraydata.h'
p339
I1
tp340
a(S'/org/bluez/agent'
p341
I1
tp342
a(S'/build/wireshark-70hx3V/wireshark-2.0.2+ga16e22e/ui/profile.c'
p343
I1
tp344
a(S'/etc/gitattributes'
p345
I1
tp346
a(S'so'
p347
I1
tp348
a(S'/usr/share/nm-applet/eap-method-peap.ui'
p349
I1
tp350
a(S'/build/wireshark-70hx3V/wireshark-2.0.2+ga16e22e/sync_pipe_write.c'
p351
I1
tp352
a(S'/usr/bin/xauth'
p353
I1
tp354
a(S'/proc/net/dev'
p355
I1
tp356
a.