(dp0
S'A'
p1
I1
sS'TLS'
p2
I1
sS'I'
p3
I1
sS'list'
p4
I1
sS'3290139320'
p5
I1
sS'/'
p6
I1
sS'91'
p7
I1
sS'53011'
p8
I1
sS'anonymous'
p9
I1
sS'test'
p10
I1
sS'http://www.example.com'
p11
I1
sS'root'
p12
I1
s.