(dp0
S'A'
p1
I1
sS'TLS'
p2
I1
sS'/index.html'
p3
I1
sS'17502'
p4
I1
sS'2296673094'
p5
I1
sS'root'
p6
I1
sS'list'
p7
I1
sS'/'
p8
I1
sS'I'
p9
I1
sS'anonymous'
p10
I1
sS'test'
p11
I1
sS'http://www.example.com'
p12
I1
sS'160'
p13
I1
s.