(dp0
S'A'
p1
I1
sS'TLS'
p2
I1
sS'1753623580'
p3
I1
sS'I'
p4
I1
sS'list'
p5
I1
sS'/index.php'
p6
I1
sS'/'
p7
I1
sS'267'
p8
I1
sS'anonymous'
p9
I1
sS'test'
p10
I1
sS'http://www.example.com'
p11
I1
sS'root'
p12
I1
sS'64486'
p13
I1
sS'/index.html'
p14
I1
s.