(lp0
(S'dynamic'
p1
I4
tp2
a(S'sleep'
p3
I4
tp4
a(S'force'
p5
I4
tp6
a(S'debuglink'
p7
I4
tp8
a(S'new'
p9
I4
tp10
a(S'AWAVAUATI'
p11
I4
tp12
a(S'type'
p13
I4
tp14
a(S'isatty'
p15
I4
tp16
a(S'must'
p17
I4
tp18
a(S'strerror'
p19
I4
tp20
a(S'fdelt'
p21
I4
tp22
a(S'end'
p23
I4
tp24
a(S'LH'
p25
I4
tp26
a(S'machine'
p27
I4
tp28
a(S'rewind'
p29
I4
tp30
a(S'insecure'
p31
I4
tp32
a(S'fwrite'
p33
I4
tp34
a(S'aborted'
p35
I4
tp36
a(S'debug'
p37
I4
tp38
a(S'Type'
p39
I4
tp40
a(S'got'
p41
I4
tp42
a(S'free'
p43
I4
tp44
a(S'already'
p45
I4
tp46
a(S'restrict'
p47
I4
tp48
a(S'too'
p49
I4
tp50
a(S'listen'
p51
I4
tp52
a(S'AUATUSH'
p53
I4
tp54
a(S'contents'
p55
I4
tp56
a(S'glob'
p57
I4
tp58
a(S'bss'
p59
I4
tp60
a(S'Login'
p61
I4
tp62
a(S'CWD'
p63
I4
tp64
a(S'perror'
p65
I4
tp66
a(S'dH'
p67
I4
tp68
a(S'bad'
p69
I4
tp70
a(S'getsockname'
p71
I4
tp72
a(S'filename'
p73
I4
tp74
a(S'setsockopt'
p75
I4
tp76
a(S'login'
p77
I4
tp78
a(S'dynsym'
p79
I4
tp80
a(S'been'
p81
I4
tp82
a(S'putc'
p83
I4
tp84
a(S'has'
p85
I4
tp86
a(S'gnu'
p87
I4
tp88
a(S'ATUA'
p89
I4
tp90
a(S'ATUI'
p91
I4
tp92
a(S'is'
p93
I4
tp94
a(S'it'
p95
I4
tp96
a(S'in'
p97
I4
tp98
a(S'id'
p99
I4
tp100
a(S'if'
p101
I4
tp102
a(S'make'
p103
I4
tp104
a(S'the'
p105
I4
tp106
a(S'passive'
p107
I4
tp108
a(S'ZYt'
p109
I4
tp110
a(S'reuse'
p111
I4
tp112
a(S'Try'
p113
I4
tp114
a(S'printf'
p115
I4
tp116
a(S'interp'
p117
I4
tp118
a(S'HH'
p119
I4
tp120
a(S'freeaddrinfo'
p121
I4
tp122
a(S'HL'
p123
I4
tp124
a(S'escape'
p125
I4
tp126
a(S'for'
p127
I4
tp128
a(S'Hc'
p129
I4
tp130
a(S'sigsetjmp'
p131
I4
tp132
a(S'plt'
p133
I4
tp134
a(S'gmtime'
p135
I4
tp136
a(S'globbing'
p137
I4
tp138
a(S'support'
p139
I4
tp140
a(S'rela'
p141
I4
tp142
a(S'fork'
p143
I4
tp144
a(S'form'
p145
I4
tp146
a(S'failure'
p147
I4
tp148
a(S'delete'
p149
I4
tp150
a(S'time'
p151
I4
tp152
a(S'SYST'
p153
I4
tp154
a(S'anonymous'
p155
I4
tp156
a(S'port'
p157
I4
tp158
a(S'Mc'
p159
I4
tp160
a(S'address'
p161
I4
tp162
a(S'shstrtab'
p163
I4
tp164
a(S'change'
p165
I4
tp166
a(S'wait'
p167
I4
tp168
a(S'MB'
p169
I4
tp170
a(S'ipv'
p171
I4
tp172
a(S'working'
p173
I4
tp174
a(S'scan'
p175
I4
tp176
a(S'memory'
p177
I4
tp178
a(S'SIZE'
p179
I4
tp180
a(S'ctype'
p181
I4
tp182
a(S'can'
p183
I4
tp184
a(S'AUATE'
p185
I4
tp186
a(S'AUATH'
p187
I4
tp188
a(S'AUATI'
p189
I4
tp190
a(S'feof'
p191
I4
tp192
a(S'AUATL'
p193
I4
tp194
a(S'strncat'
p195
I4
tp196
a(S'Missing'
p197
I4
tp198
a(S'write'
p199
I4
tp200
a(S'may'
p201
I4
tp202
a(S'REST'
p203
I4
tp204
a(S'data'
p205
I4
tp206
a(S'strcasecmp'
p207
I4
tp208
a(S'stdin'
p209
I4
tp210
a(S'PASV'
p211
I4
tp212
a(S'so'
p213
I4
tp214
a(S'EPSV'
p215
I4
tp216
a(S'Using'
p217
I4
tp218
a(S'main'
p219
I4
tp220
a(S'non'
p221
I4
tp222
a(S'not'
p223
I4
tp224
a(S'now'
p225
I4
tp226
a(S'permissions'
p227
I4
tp228
a(S'execute'
p229
I4
tp230
a(S'name'
p231
I4
tp232
a(S'directories'
p233
I4
tp234
a(S'getdelim'
p235
I4
tp236
a(S'eh'
p237
I4
tp238
a(S'correct'
p239
I4
tp240
a(S'ferror'
p241
I4
tp242
a(S'byte'
p243
I4
tp244
a(S'Already'
p245
I4
tp246
a(S'initiate'
p247
I4
tp248
a(S'first'
p249
I4
tp250
a(S'one'
p251
I4
tp252
a(S'rodata'
p253
I4
tp254
a(S'array'
p255
I4
tp256
a(S'size'
p257
I4
tp258
a(S'than'
p259
I4
tp260
a(S'AWAVE'
p261
I4
tp262
a(S'AWAVA'
p263
I4
tp264
a(S'LIST'
p265
I4
tp266
a(S'AWAVI'
p267
I4
tp268
a(S'and'
p269
I4
tp270
a(S'any'
p271
I4
tp272
a(S'note'
p273
I4
tp274
a(S'EPRT'
p275
I4
tp276
a(S'begin'
p277
I4
tp278
a(S'multiple'
p279
I4
tp280
a(S'Name'
p281
I4
tp282
a(S'buffer'
p283
I4
tp284
a(S'later'
p285
I4
tp286
a(S'deregisterTMCloneTable'
p287
I4
tp288
a(S'only'
p289
I4
tp290
a(S'GMT'
p291
I4
tp292
a(S'PD'
p293
I4
tp294
a(S'get'
p295
I4
tp296
a(S'dyn'
p297
I4
tp298
a(S'PASS'
p299
I4
tp300
a(S'fileno'
p301
I4
tp302
a(S'ignored'
p303
I4
tp304
a(S'parent'
p305
I4
tp306
a(S'hdH'
p307
I4
tp308
a(S'case'
p309
I4
tp310
a(S'hdr'
p311
I4
tp312
a(S'TYPE'
p313
I4
tp314
a(S'stdout'
p315
I4
tp316
a(S'ascii'
p317
I4
tp318
a(S'binary'
p319
I4
tp320
a(S'hostname'
p321
I4
tp322
a(S'arguments'
p323
I4
tp324
a(S'status'
p325
I4
tp326
a(S'IO'
p327
I4
tp328
a(S'changing'
p329
I4
tp330
a(S'PWD'
p331
I4
tp332
a(S'when'
p333
I4
tp334
a(S'RegisterClasses'
p335
I4
tp336
a(S'read'
p337
I4
tp338
a(S'using'
p339
I4
tp340
a(S'server'
p341
I4
tp342
a(S'output'
p343
I4
tp344
a(S'strcmp'
p345
I4
tp346
a(S'specified'
p347
I4
tp348
a(S'ATUSH'
p349
I4
tp350
a(S'exit'
p351
I4
tp352
a(S'on'
p353
I4
tp354
a(S'of'
p355
I4
tp356
a(S'or'
p357
I4
tp358
a(S'No'
p359
I4
tp360
a(S'loc'
p361
I4
tp362
a(S'fdopen'
p363
I4
tp364
a(S'start'
p365
I4
tp366
a(S'closed'
p367
I4
tp368
a(S'Error'
p369
I4
tp370
a(S'trying'
p371
I4
tp372
a(S'with'
p373
I4
tp374
a(S'default'
p375
I4
tp376
a(S'file'
p377
I4
tp378
a(S'Password'
p379
I4
tp380
a(S'fxstat'
p381
I4
tp382
a(S'getuid'
p383
I4
tp384
a(S'directory'
p385
I4
tp386
a(S'Unknown'
p387
I4
tp388
a(S'follow'
p389
I4
tp390
a(S'RETR'
p391
I4
tp392
a(S'init'
p393
I4
tp394
a(S'list'
p395
I4
tp396
a(S'stderr'
p397
I4
tp398
a(S'ASCII'
p399
I4
tp400
a(S'USER'
p401
I4
tp402
a(S'version'
p403
I4
tp404
a(S'hash'
p405
I4
tp406
a(S'verbose'
p407
I4
tp408
a(S'family'
p409
I4
tp410
a(S'AUAT'
p411
I4
tp412
a(S'select'
p413
I4
tp414
a(S'more'
p415
I4
tp416
a(S'prompt'
p417
I4
tp418
a(S'accept'
p419
I4
tp420
a(S'strlen'
p421
I4
tp422
a(S'information'
p423
I4
tp424
a(S'disable'
p425
I4
tp426
a(S'fd'
p427
I4
tp428
a(S'unlink'
p429
I4
tp430
a(S'short'
p431
I4
tp432
a(S'secs'
p433
I4
tp434
a(S'File'
p435
I4
tp436
a(S'help'
p437
I4
tp438
a(S'AWAVAUATUSH'
p439
I4
tp440
a(S'IPv'
p441
I4
tp442
a(S'gmon'
p443
I4
tp444
a(S'found'
p445
I4
tp446
a(S'connect'
p447
I4
tp448
a(S'ftp'
p449
I4
tp450
a(S'macdef'
p451
I4
tp452
a(S'print'
p453
I4
tp454
a(S'strrchr'
p455
I4
tp456
a(S'issue'
p457
I4
tp458
a(S'proxy'
p459
I4
tp460
a(S'recv'
p461
I4
tp462
a(S'Copyright'
p463
I4
tp464
a(S'number'
p465
I4
tp466
a(S'show'
p467
I4
tp468
a(S'store'
p469
I4
tp470
a(S'XH'
p471
I4
tp472
a(S'option'
p473
I4
tp474
a(S'XD'
p475
I4
tp476
a(S'interactive'
p477
I4
tp478
a(S'debugging'
p479
I4
tp480
a(S'null'
p481
I4
tp482
a(S'lib'
p483
I4
tp484
a(S'internal'
p485
I4
tp486
a(S'build'
p487
I4
tp488
a(S'passwd'
p489
I4
tp490
a(S'quote'
p491
I4
tp492
a(S'nothing'
p493
I4
tp494
a(S'clear'
p495
I4
tp496
a(S'strncasecmp'
p497
I4
tp498
a(S'fini'
p499
I4
tp500
a(S'session'
p501
I4
tp502
a(S'find'
p503
I4
tp504
a(S'Jv'
p505
I4
tp506
a(S'failed'
p507
I4
tp508
a(S'registerTMCloneTable'
p509
I4
tp510
a(S'bytes'
p511
I4
tp512
a(S'remove'
p513
I4
tp514
a(S'set'
p515
I4
tp516
a(S'are'
p517
I4
tp518
a(S'close'
p519
I4
tp520
a(S'PORT'
p521
I4
tp522
a(S'strchr'
p523
I4
tp524
a(S'missing'
p525
I4
tp526
a(S'last'
p527
I4
tp528
a(S'connection'
p529
I4
tp530
a(S'shutdown'
p531
I4
tp532
a(S'linux'
p533
I4
tp534
a(S'pH'
p535
I4
tp536
a(S'edata'
p537
I4
tp538
a(S'gai'
p539
I4
tp540
a(S'error'
p541
I4
tp542
a(S'malloc'
p543
I4
tp544
a(S'Invalid'
p545
I4
tp546
a(S'encountered'
p547
I4
tp548
a(S'TERM'
p549
I4
tp550
a(S'libc'
p551
I4
tp552
a(S'modification'
p553
I4
tp554
a(S'temporary'
p555
I4
tp556
a(S'user'
p557
I4
tp558
a(S'stack'
p559
I4
tp560
a(S'ntop'
p561
I4
tp562
a(S'fflush'
p563
I4
tp564
a(S'location'
p565
I4
tp566
a(S'format'
p567
I4
tp568
a(S'signal'
p569
I4
tp570
a(S'be'
p571
I4
tp572
a(S'refused'
p573
I4
tp574
a(S'by'
p575
I4
tp576
a(S'fopen'
p577
I4
tp578
a(S'errno'
p579
I4
tp580
a(S'long'
p581
I4
tp582
a(S'files'
p583
I4
tp584
a(S'uL'
p585
I4
tp586
a(S'vfprintf'
p587
I4
tp588
a(S'newer'
p589
I4
tp590
a(S'line'
p591
I4
tp592
a(S'doesn'
p593
I4
tp594
a(S'jcr'
p595
I4
tp596
a(S'getaddrinfo'
p597
I4
tp598
a(S'GLIBC'
p599
I4
tp600
a(S'fclose'
p601
I4
tp602
a(S'AVAUATUSH'
p603
I4
tp604
a(S'send'
p605
I4
tp606
a(S'Not'
p607
I4
tp608
a(S'sent'
p609
I4
tp610
a(S'snprintf'
p611
I4
tp612
a(S'append'
p613
I4
tp614
a(S'waiting'
p615
I4
tp616
a(S'addresses'
p617
I4
tp618
a(S'realloc'
p619
I4
tp620
a(S'names'
p621
I4
tp622
a(S'HOME'
p623
I4
tp624
a(S'use'
p625
I4
tp626
a(S'from'
p627
I4
tp628
a(S'chk'
p629
I4
tp630
a(S'inet'
p631
I4
tp632
a(S'account'
p633
I4
tp634
a(S'this'
p635
I4
tp636
a(S'abort'
p637
I4
tp638
a(S'control'
p639
I4
tp640
a(S'fprintf'
p641
I4
tp642
a(S'ABI'
p643
I4
tp644
a(S'xstat'
p645
I4
tp646
a(S'AVAUI'
p647
I4
tp648
a(S'Usage'
p649
I4
tp650
a(S'WARNING'
p651
I4
tp652
a(S'ld'
p653
I4
tp654
a(S'auto'
p655
I4
tp656
a(S'dynstr'
p657
I4
tp658
a(S'mode'
p659
I4
tp660
a(S'exceeded'
p661
I4
tp662
a(S'out'
p663
I4
tp664
a(S'Trying'
p665
I4
tp666
a(S'fseeko'
p667
I4
tp668
a(S'strncmp'
p669
I4
tp670
a(S'Connecting'
p671
I4
tp672
a(S'Local'
p673
I4
tp674
a(S'unknown'
p675
I4
tp676
a(S'mkdir'
p677
I4
tp678
a(S'system'
p679
I4
tp680
a(S'shell'
p681
I4
tp682
a(S'Remote'
p683
I4
tp684
a(S'ITM'
p685
I4
tp686
a(S'bind'
p687
I4
tp688
a(S'HdH'
p689
I4
tp690
a(S'fail'
p691
I4
tp692
a(S'have'
p693
I4
tp694
a(S'turn'
p695
I4
tp696
a(S'connected'
p697
I4
tp698
a(S'text'
p699
I4
tp700
a(S'strtol'
p701
I4
tp702
a(S'should'
p703
I4
tp704
a(S'local'
p705
I4
tp706
a(S'handle'
p707
I4
tp708
a(S'memcpy'
p709
I4
tp710
a(S'xdH'
p711
I4
tp712
a(S'frame'
p713
I4
tp714
a(S'stpcpy'
p715
I4
tp716
a(S'PP'
p717
I4
tp718
a(S'pattern'
p719
I4
tp720
a(S'hH'
p721
I4
tp722
a(S'correctly'
p723
I4
tp724
a(S'PH'
p725
I4
tp726
a(S'UNIX'
p727
I4
tp728
a(S'ca'
p729
I4
tp730
a(S'chmod'
p731
I4
tp732
a(S'table'
p733
I4
tp734
a(S'username'
p735
I4
tp736
a(S'plain'
p737
I4
tp738
a(S'value'
p739
I4
tp740
a(S'getpwuid'
p741
I4
tp742
a(S'at'
p743
I4
tp744
a(S'rename'
p745
I4
tp746
a(S'getc'
p747
I4
tp748
a(S'longjmp'
p749
I4
tp750
a(S'off'
p751
I4
tp752
a(S'command'
p753
I4
tp754
a(S'Filename'
p755
I4
tp756
a(S'add'
p757
I4
tp758
a(S'Bw'
p759
I4
tp760
a(S'match'
p761
I4
tp762
a(S'ATUS'
p763
I4
tp764
a(S'to'
p765
I4
tp766
a(S'password'
p767
I4
tp768
a(S'Warning'
p769
I4
tp770
a(S'sscanf'
p771
I4
tp772
a(S'tmp'
p773
I4
tp774
a(S'does'
p775
I4
tp776
a(S'host'
p777
I4
tp778
a(S'socket'
p779
I4
tp780
a(S'netrc'
p781
I4
tp782
a(S'strcpy'
p783
I4
tp784
a(S'tag'
p785
I4
tp786
a(S'transfer'
p787
I4
tp788
a(S'getenv'
p789
I4
tp790
a(S'remote'
p791
I4
tp792
a(S'received'
p793
I4
tp794
a(S'umask'
p795
I3
tp796
a(S'Globbing'
p797
I3
tp798
a(S'sorry'
p799
I3
tp800
a(S'cmd'
p801
I3
tp802
a(S'TOPS'
p803
I3
tp804
a(S'nlist'
p805
I3
tp806
a(S'Zp'
p807
I3
tp808
a(S'rights'
p809
I3
tp810
a(S'rhelp'
p811
I3
tp812
a(S'remglob'
p813
I3
tp814
a(S'Carriage'
p815
I3
tp816
a(S'All'
p817
I3
tp818
a(S'Verbose'
p819
I3
tp820
a(S'third'
p821
I3
tp822
a(S'enter'
p823
I3
tp824
a(S'side'
p825
I3
tp826
a(S'rA'
p827
I3
tp828
a(S'XXXX'
p829
I3
tp830
a(S'rl'
p831
I3
tp832
a(S'primary'
p833
I3
tp834
a(S'mapout'
p835
I3
tp836
a(S'strncpy'
p837
I3
tp838
a(S'service'
p839
I3
tp840
a(S'IDLE'
p841
I3
tp842
a(S'RMD'
p843
I3
tp844
a(S'keyword'
p845
I3
tp846
a(S'idle'
p847
I3
tp848
a(S'increment'
p849
I3
tp850
a(S'UMASK'
p851
I3
tp852
a(S'QA'
p853
I3
tp854
a(S'prin'
p855
I3
tp856
a(S'Passive'
p857
I3
tp858
a(S'ftpH'
p859
I3
tp860
a(S'mput'
p861
I3
tp862
a(S'strcat'
p863
I3
tp864
a(S'cdup'
p865
I3
tp866
a(S'Exp'
p867
I3
tp868
a(S'restarting'
p869
I3
tp870
a(S'puts'
p871
I3
tp872
a(S'beep'
p873
I3
tp874
a(S'XRMD'
p875
I3
tp876
a(S'argument'
p877
I3
tp878
a(S'CR'
p879
I3
tp880
a(S'Debugging'
p881
I3
tp882
a(S'inhibit'
p883
I3
tp884
a(S'iu'
p885
I3
tp886
a(S'Shouldn'
p887
I3
tp888
a(S'templates'
p889
I3
tp890
a(S'characters'
p891
I3
tp892
a(S'unique'
p893
I3
tp894
a(S'specific'
p895
I3
tp896
a(S'arbitrary'
p897
I3
tp898
a(S'Ht'
p899
I3
tp900
a(S'Hu'
p901
I3
tp902
a(S'ntrans'
p903
I3
tp904
a(S'Use'
p905
I3
tp906
a(S'Extended'
p907
I3
tp908
a(S'Interactive'
p909
I3
tp910
a(S'reset'
p911
I3
tp912
a(S'dholland'
p913
I3
tp914
a(S'Unfortunate'
p915
I3
tp916
a(S'unbalanced'
p917
I3
tp918
a(S'University'
p919
I3
tp920
a(S'transfers'
p921
I3
tp922
a(S'stripping'
p923
I3
tp924
a(S'Macros'
p925
I3
tp926
a(S'runique'
p927
I3
tp928
a(S'domacro'
p929
I3
tp930
a(S'terminating'
p931
I3
tp932
a(S'upper'
p933
I3
tp934
a(S'Form'
p935
I3
tp936
a(S'current'
p937
I3
tp938
a(S'newchunk'
p939
I3
tp940
a(S'Packet'
p941
I3
tp942
a(S'nmap'
p943
I3
tp944
a(S'ruserpass'
p945
I3
tp946
a(S'rindex'
p947
I3
tp948
a(S'reget'
p949
I3
tp950
a(S'gettimeofday'
p951
I3
tp952
a(S'QUIT'
p953
I3
tp954
a(S'printing'
p955
I3
tp956
a(S'Out'
p957
I3
tp958
a(S'Regents'
p959
I3
tp960
a(S'strtoll'
p961
I3
tp962
a(S'ipany'
p963
I3
tp964
a(S'Macro'
p965
I3
tp966
a(S'sh'
p967
I3
tp968
a(S'disconnect'
p969
I3
tp970
a(S'happen'
p971
I3
tp972
a(S'Connected'
p973
I3
tp974
a(S'getcwd'
p975
I3
tp976
a(S'ebcdic'
p977
I3
tp978
a(S'netin'
p979
I3
tp980
a(S'Continue'
p981
I3
tp982
a(S'place'
p983
I3
tp984
a(S'libreadline'
p985
I3
tp986
a(S'cmds'
p987
I3
tp988
a(S'Nmap'
p989
I3
tp990
a(S'transferred'
p991
I3
tp992
a(S'fgets'
p993
I3
tp994
a(S'addressing'
p995
I3
tp996
a(S'getpass'
p997
I3
tp998
a(S'vQH'
p999
I3
tp1000
a(S'ACCT'
p1001
I3
tp1002
a(S'trace'
p1003
I3
tp1004
a(S'Incredible'
p1005
I3
tp1006
a(S'We'
p1007
I3
tp1008
a(S'HELP'
p1009
I3
tp1010
a(S'tick'
p1011
I3
tp1012
a(S'zHuF'
p1013
I3
tp1014
a(S'jd'
p1015
I3
tp1016
a(S'metacharacter'
p1017
I3
tp1018
a(S'jH'
p1019
I3
tp1020
a(S'mark'
p1021
I3
tp1022
a(S'enable'
p1023
I3
tp1024
a(S'MKD'
p1025
I3
tp1026
a(S'XCUP'
p1027
I3
tp1028
a(S'NetKit'
p1029
I3
tp1030
a(S'RNTO'
p1031
I3
tp1032
a(S'finish'
p1033
I3
tp1034
a(S'macro'
p1035
I3
tp1036
a(S'Iv'
p1037
I3
tp1038
a(S'pftp'
p1039
I3
tp1040
a(S'Id'
p1041
I3
tp1042
a(S'Service'
p1043
I3
tp1044
a(S'RNFR'
p1045
I3
tp1046
a(S'struct'
p1047
I3
tp1048
a(S'Prompting'
p1049
I3
tp1050
a(S'provided'
p1051
I3
tp1052
a(S'each'
p1053
I3
tp1054
a(S'queued'
p1055
I3
tp1056
a(S'image'
p1057
I3
tp1058
a(S'Store'
p1059
I3
tp1060
a(S'lon'
p1061
I3
tp1062
a(S'rmdir'
p1063
I3
tp1064
a(S'Remember'
p1065
I3
tp1066
a(S'embedded'
p1067
I3
tp1068
a(S'again'
p1069
I3
tp1070
a(S'Quote'
p1071
I3
tp1072
a(S'aL'
p1073
I3
tp1074
a(S'mkstemp'
p1075
I3
tp1076
a(S'inif'
p1077
I3
tp1078
a(S'ti'
p1079
I3
tp1080
a(S'Bytes'
p1081
I3
tp1082
a(S'mget'
p1083
I3
tp1084
a(S'abbreviated'
p1085
I3
tp1086
a(S'cmdtab'
p1087
I3
tp1088
a(S'popen'
p1089
I3
tp1090
a(S'XtW'
p1091
I3
tp1092
a(S'history'
p1093
I3
tp1094
a(S'prompting'
p1095
I3
tp1096
a(S'mapping'
p1097
I3
tp1098
a(S'replies'
p1099
I3
tp1100
a(S'XCWD'
p1101
I3
tp1102
a(S'Hash'
p1103
I3
tp1104
a(S'return'
p1105
I3
tp1106
a(S'execl'
p1107
I3
tp1108
a(S'NLST'
p1109
I3
tp1110
a(S'Receive'
p1111
I3
tp1112
a(S'put'
p1113
I3
tp1114
a(S'sunique'
p1115
I3
tp1116
a(S'definition'
p1117
I3
tp1118
a(S'putchar'
p1119
I3
tp1120
a(S'getservbyname'
p1121
I3
tp1122
a(S'APPE'
p1123
I3
tp1124
a(S'asci'
p1125
I3
tp1126
a(S'translation'
p1127
I3
tp1128
a(S'kB'
p1129
I3
tp1130
a(S'tenex'
p1131
I3
tp1132
a(S'brackets'
p1133
I3
tp1134
a(S'during'
p1135
I3
tp1136
a(S'restart'
p1137
I3
tp1138
a(S'bare'
p1139
I3
tp1140
a(S'MDTM'
p1141
I3
tp1142
a(S'available'
p1143
I3
tp1144
a(S'creating'
p1145
I3
tp1146
a(S'bell'
p1147
I3
tp1148
a(S'gethostname'
p1149
I3
tp1150
a(S'California'
p1151
I3
tp1152
a(S'dup'
p1153
I3
tp1154
a(S'getlogin'
p1155
I3
tp1156
a(S'transferring'
p1157
I3
tp1158
a(S'else'
p1159
I3
tp1160
a(S'terminator'
p1161
I3
tp1162
a(S'Ambiguous'
p1163
I3
tp1164
a(S'lower'
p1165
I3
tp1166
a(S'CHMOD'
p1167
I3
tp1168
a(S'alternate'
p1169
I3
tp1170
a(S'bin'
p1171
I3
tp1172
a(S'OH'
p1173
I3
tp1174
a(S'netbug'
p1175
I3
tp1176
a(S'OC'
p1177
I3
tp1178
a(S'Chosen'
p1179
I3
tp1180
a(S'XPWD'
p1181
I3
tp1182
a(S'tracing'
p1183
I3
tp1184
a(S'rstatus'
p1185
I3
tp1186
a(S'HtN'
p1187
I3
tp1188
a(S'ux'
p1189
I3
tp1190
a(S'Bell'
p1191
I3
tp1192
a(S'alarm'
p1193
I3
tp1194
a(S'defined'
p1195
I3
tp1196
a(S'globfree'
p1197
I3
tp1198
a(S'TL'
p1199
I3
tp1200
a(S'Extremely'
p1201
I3
tp1202
a(S'Case'
p1203
I3
tp1204
a(S'DELE'
p1205
I3
tp1206
a(S'Refusing'
p1207
I3
tp1208
a(S'AY'
p1209
I3
tp1210
a(S'binaf'
p1211
I3
tp1212
a(S'structure'
p1213
I3
tp1214
a(S'stref'
p1215
I3
tp1216
a(S'toggle'
p1217
I3
tp1218
a(S'AVAUATI'
p1219
I3
tp1220
a(S'modtime'
p1221
I3
tp1222
a(S'CDUP'
p1223
I3
tp1224
a(S'XMKD'
p1225
I3
tp1226
a(S'zu'
p1227
I3
tp1228
a(S'access'
p1229
I3
tp1230
a(S'receive'
p1231
I3
tp1232
a(S'SITE'
p1233
I3
tp1234
a(S'chdir'
p1235
I3
tp1236
a(S'reserved'
p1237
I3
tp1238
a(S'linefeeds'
p1239
I3
tp1240
a(S'TOS'
p1241
I3
tp1242
a(S'Account'
p1243
I3
tp1244
a(S'sendport'
p1245
I3
tp1246
a(S'allow'
p1247
I3
tp1248
a(S'STOU'
p1249
I3
tp1250
a(S'STAT'
p1251
I3
tp1252
a(S'timer'
p1253
I3
tp1254
a(S'completed'
p1255
I3
tp1256
a(S'counter'
p1257
I3
tp1258
a(S'Mode'
p1259
I3
tp1260
a(S'Enter'
p1261
I3
tp1262
a(S'terminate'
p1263
I3
tp1264
a(S'terminal'
p1265
I3
tp1266
a(S'XXXXfD'
p1267
I3
tp1268
a(S'tbE'
p1269
I3
tp1270
a(S'packet'
p1271
I3
tp1272
a(S'Pg'
p1273
I3
tp1274
a(S'Pe'
p1275
I3
tp1276
a(S'macros'
p1277
I3
tp1278
a(S'sigaction'
p1279
I3
tp1280
a(S'commands'
p1281
I3
tp1282
a(S'pinegvtd'
p1283
I3
tp1284
a(S'fUa'
p1285
I3
tp1286
a(S'quit'
p1287
I3
tp1288
a(S'obstack'
p1289
I3
tp1290
a(S'mdelete'
p1291
I3
tp1292
a(S'cABOR'
p1293
I3
tp1294
a(S'define'
p1295
I3
tp1296
a(S'present'
p1297
I3
tp1298
a(S'site'
p1299
I3
tp1300
a(S'Return'
p1301
I3
tp1302
a(S'party'
p1303
I3
tp1304
a(S'gets'
p1305
I3
tp1306
a(S'oops'
p1307
I3
tp1308
a(S'lseek'
p1309
I3
tp1310
a(S'tcp'
p1311
I3
tp1312
a(S'getpwnam'
p1313
I3
tp1314
a(S'SHELL'
p1315
I3
tp1316
a(S'usage'
p1317
I3
tp1318
a(S'Limit'
p1319
I3
tp1320
a(S'nonfunctional'
p1321
I3
tp1322
a(S'pclose'
p1323
I3
tp1324
a(S'Ntrans'
p1325
I3
tp1326
a(S'mapin'
p1327
I3
tp1328
a(S'bytecount'
p1329
I3
tp1330
a(S'expansion'
p1331
I3
tp1332
a(S'offset'
p1333
I3
tp1334
a(S'netout'
p1335
I3
tp1336
a(S'siginterrupt'
p1337
I3
tp1338
a(S'recognized'
p1339
I3
tp1340
a(S'UG'
p1341
I3
tp1342
a(S'netkit'
p1343
I3
tp1344
a(S'STOR'
p1345
I3
tp1346
a(S'sigemptyset'
p1347
I3
tp1348
a(S'Commands'
p1349
I3
tp1350
a(S'carriage'
p1351
I3
tp1352
a(S'Tick'
p1353
I3
tp1354
a(S'Structure'
p1355
I3
tp1356
a(S'Remove'
p1357
I3
tp1358
a(S'readline'
p1359
I3
tp1360
a(S'prefix'
p1361
I1
tp1362
a(S'saved'
p1363
I1
tp1364
a(S'consider'
p1365
I1
tp1366
a(S'Foundation'
p1367
I1
tp1368
a(S'calculate'
p1369
I1
tp1370
a(S'Host'
p1371
I1
tp1372
a(S'PRNG'
p1373
I1
tp1374
a(S'Inserted'
p1375
I1
tp1376
a(S'SPE'
p1377
I1
tp1378
a(S'localtime'
p1379
I1
tp1380
a(S'tRHcK'
p1381
I1
tp1382
a(S'upL'
p1383
I1
tp1384
a(S'GS'
p1385
I1
tp1386
a(S'risk'
p1387
I1
tp1388
a(S'GB'
p1389
I1
tp1390
a(S'ENTRY'
p1391
I1
tp1392
a(S'AUATUStOL'
p1393
I1
tp1394
a(S'wjH'
p1395
I1
tp1396
a(S'eP'
p1397
I1
tp1398
a(S'Unable'
p1399
I1
tp1400
a(S'Gb'
p1401
I1
tp1402
a(S'noconfig'
p1403
I1
tp1404
a(S'Index'
p1405
I1
tp1406
a(S'cmp'
p1407
I1
tp1408
a(S'vBf'
p1409
I1
tp1410
a(S'noconf'
p1411
I1
tp1412
a(S'even'
p1413
I1
tp1414
a(S'tcgetattr'
p1415
I1
tp1416
a(S'errors'
p1417
I1
tp1418
a(S'gettime'
p1419
I1
tp1420
a(S'specification'
p1421
I1
tp1422
a(S'selected'
p1423
I1
tp1424
a(S'net'
p1425
I1
tp1426
a(S'metadata'
p1427
I1
tp1428
a(S'ZL'
p1429
I1
tp1430
a(S'vLH'
p1431
I1
tp1432
a(S'YA'
p1433
I1
tp1434
a(S'ZH'
p1435
I1
tp1436
a(S'mem'
p1437
I1
tp1438
a(S'AWAVAUATM'
p1439
I1
tp1440
a(S'AWAVAUATL'
p1441
I1
tp1442
a(S'protection'
p1443
I1
tp1444
a(S'AWAVAUATE'
p1445
I1
tp1446
a(S'path'
p1447
I1
tp1448
a(S'AWAVAUATA'
p1449
I1
tp1450
a(S'symlinks'
p1451
I1
tp1452
a(S'warccompression'
p1453
I1
tp1454
a(S'deferring'
p1455
I1
tp1456
a(S'maxredirect'
p1457
I1
tp1458
a(S'reports'
p1459
I1
tp1460
a(S'PUBLIC'
p1461
I1
tp1462
a(S'Owner'
p1463
I1
tp1464
a(S'useragent'
p1465
I1
tp1466
a(S'LPSV'
p1467
I1
tp1468
a(S'secure'
p1469
I1
tp1470
a(S'Giving'
p1471
I1
tp1472
a(S'CTX'
p1473
I1
tp1474
a(S'unix'
p1475
I1
tp1476
a(S'Basic'
p1477
I1
tp1478
a(S'total'
p1479
I1
tp1480
a(S'getpeername'
p1481
I1
tp1482
a(S'ht'
p1483
I1
tp1484
a(S'would'
p1485
I1
tp1486
a(S'aNULL'
p1487
I1
tp1488
a(S'tm'
p1489
I1
tp1490
a(S'dns'
p1491
I1
tp1492
a(S'Removed'
p1493
I1
tp1494
a(S'separated'
p1495
I1
tp1496
a(S'successful'
p1497
I1
tp1498
a(S'binding'
p1499
I1
tp1500
a(S'AUATUS'
p1501
I1
tp1502
a(S'converted'
p1503
I1
tp1504
a(S'retrsymlinks'
p1505
I1
tp1506
a(S'warc'
p1507
I1
tp1508
a(S'mm'
p1509
I1
tp1510
a(S'work'
p1511
I1
tp1512
a(S'Header'
p1513
I1
tp1514
a(S'ftpsresumessl'
p1515
I1
tp1516
a(S'regextype'
p1517
I1
tp1518
a(S'ms'
p1519
I1
tp1520
a(S'fnmatch'
p1521
I1
tp1522
a(S'IRIs'
p1523
I1
tp1524
a(S'Ld'
p1525
I1
tp1526
a(S'Lc'
p1527
I1
tp1528
a(S'tJH'
p1529
I1
tp1530
a(S'want'
p1531
I1
tp1532
a(S'noparent'
p1533
I1
tp1534
a(S'Couldn'
p1535
I1
tp1536
a(S'LD'
p1537
I1
tp1538
a(S'Format'
p1539
I1
tp1540
a(S'verify'
p1541
I1
tp1542
a(S'sXXXXXX'
p1543
I1
tp1544
a(S'OpenSSL'
p1545
I1
tp1546
a(S'LI'
p1547
I1
tp1548
a(S'env'
p1549
I1
tp1550
a(S'faulty'
p1551
I1
tp1552
a(S'config'
p1553
I1
tp1554
a(S'DPj'
p1555
I1
tp1556
a(S'HEAD'
p1557
I1
tp1558
a(S'description'
p1559
I1
tp1560
a(S'after'
p1561
I1
tp1562
a(S'Hrvoje'
p1563
I1
tp1564
a(S'Will'
p1565
I1
tp1566
a(S'cHt'
p1567
I1
tp1568
a(S'law'
p1569
I1
tp1570
a(S'aliaf'
p1571
I1
tp1572
a(S'guKH'
p1573
I1
tp1574
a(S'algorithms'
p1575
I1
tp1576
a(S'restriction'
p1577
I1
tp1578
a(S'expects'
p1579
I1
tp1580
a(S'frequency'
p1581
I1
tp1582
a(S'TRUE'
p1583
I1
tp1584
a(S'digest'
p1585
I1
tp1586
a(S'before'
p1587
I1
tp1588
a(S'uuid'
p1589
I1
tp1590
a(S'Retrying'
p1591
I1
tp1592
a(S'writing'
p1593
I1
tp1594
a(S'SOURCE'
p1595
I1
tp1596
a(S'them'
p1597
I1
tp1598
a(S'dirstruct'
p1599
I1
tp1600
a(S'combination'
p1601
I1
tp1602
a(S'useproxy'
p1603
I1
tp1604
a(S'Ignoring'
p1605
I1
tp1606
a(S'HIGH'
p1607
I1
tp1608
a(S'Specifying'
p1609
I1
tp1610
a(S'AWAVAUATSH'
p1611
I1
tp1612
a(S'tTA'
p1613
I1
tp1614
a(S'askpassword'
p1615
I1
tp1616
a(S'Control'
p1617
I1
tp1618
a(S'timeout'
p1619
I1
tp1620
a(S'ADDRESS'
p1621
I1
tp1622
a(S'Transport'
p1623
I1
tp1624
a(S'mean'
p1625
I1
tp1626
a(S'schemes'
p1627
I1
tp1628
a(S'spider'
p1629
I1
tp1630
a(S'REASON'
p1631
I1
tp1632
a(S'AQAVL'
p1633
I1
tp1634
a(S'passwords'
p1635
I1
tp1636
a(S'combining'
p1637
I1
tp1638
a(S'httpproxy'
p1639
I1
tp1640
a(S'flock'
p1641
I1
tp1642
a(S'xp'
p1643
I1
tp1644
a(S'Username'
p1645
I1
tp1646
a(S'ru'
p1647
I1
tp1648
a(S'network'
p1649
I1
tp1650
a(S'quality'
p1651
I1
tp1652
a(S'content'
p1653
I1
tp1654
a(S're'
p1655
I1
tp1656
a(S'sprintf'
p1657
I1
tp1658
a(S'ro'
p1659
I1
tp1660
a(S'Must'
p1661
I1
tp1662
a(S'Malformed'
p1663
I1
tp1664
a(S'strcspn'
p1665
I1
tp1666
a(S'resume'
p1667
I1
tp1668
a(S'Originally'
p1669
I1
tp1670
a(S'xH'
p1671
I1
tp1672
a(S'standard'
p1673
I1
tp1674
a(S'logging'
p1675
I1
tp1676
a(S'PPPPPP'
p1677
I1
tp1678
a(S'created'
p1679
I1
tp1680
a(S'PROT'
p1681
I1
tp1682
a(S'messages'
p1683
I1
tp1684
a(S'openssl'
p1685
I1
tp1686
a(S'SSL'
p1687
I1
tp1688
a(S'isn'
p1689
I1
tp1690
a(S'Gh'
p1691
I1
tp1692
a(S'features'
p1693
I1
tp1694
a(S'Please'
p1695
I1
tp1696
a(S'hniksic'
p1697
I1
tp1698
a(S'Going'
p1699
I1
tp1700
a(S'AGENT'
p1701
I1
tp1702
a(S'TIMEZONE'
p1703
I1
tp1704
a(S'payload'
p1705
I1
tp1706
a(S'rejects'
p1707
I1
tp1708
a(S'qsort'
p1709
I1
tp1710
a(S'yylineno'
p1711
I1
tp1712
a(S'memcmp'
p1713
I1
tp1714
a(S'Refers'
p1715
I1
tp1716
a(S'outputting'
p1717
I1
tp1718
a(S'rejected'
p1719
I1
tp1720
a(S'Converted'
p1721
I1
tp1722
a(S'mkostemp'
p1723
I1
tp1724
a(S'WAIT'
p1725
I1
tp1726
a(S'VUUU'
p1727
I1
tp1728
a(S'Set'
p1729
I1
tp1730
a(S'FALSE'
p1731
I1
tp1732
a(S'target'
p1733
I1
tp1734
a(S'bits'
p1735
I1
tp1736
a(S'DIFFERENTIAL'
p1737
I1
tp1738
a(S'enabled'
p1739
I1
tp1740
a(S'zero'
p1741
I1
tp1742
a(S'AVAUATUSLcw'
p1743
I1
tp1744
a(S'Unhandled'
p1745
I1
tp1746
a(S'VMS'
p1747
I1
tp1748
a(S'APAQAPAQL'
p1749
I1
tp1750
a(S'FINISHED'
p1751
I1
tp1752
a(S'seed'
p1753
I1
tp1754
a(S'realm'
p1755
I1
tp1756
a(S'includeSubdomains'
p1757
I1
tp1758
a(S'authnochallenge'
p1759
I1
tp1760
a(S'recommended'
p1761
I1
tp1762
a(S'ABAKATA'
p1763
I1
tp1764
a(S'limitrate'
p1765
I1
tp1766
a(S'kXt'
p1767
I1
tp1768
a(S'STRING'
p1769
I1
tp1770
a(S'object'
p1771
I1
tp1772
a(S'Qc'
p1773
I1
tp1774
a(S'regular'
p1775
I1
tp1776
a(S'bodydata'
p1777
I1
tp1778
a(S'Caching'
p1779
I1
tp1780
a(S'don'
p1781
I1
tp1782
a(S'outputdocument'
p1783
I1
tp1784
a(S'QZ'
p1785
I1
tp1786
a(S'Deleted'
p1787
I1
tp1788
a(S'points'
p1789
I1
tp1790
a(S'FORTIFY'
p1791
I1
tp1792
a(S'QH'
p1793
I1
tp1794
a(S'responded'
p1795
I1
tp1796
a(S'incomplete'
p1797
I1
tp1798
a(S'ENGINE'
p1799
I1
tp1800
a(S'random'
p1801
I1
tp1802
a(S'ftps'
p1803
I1
tp1804
a(S'authed'
p1805
I1
tp1806
a(S'gauge'
p1807
I1
tp1808
a(S'proxypasswd'
p1809
I1
tp1810
a(S'effe'
p1811
I1
tp1812
a(S'getres'
p1813
I1
tp1814
a(S'Free'
p1815
I1
tp1816
a(S'cadirectory'
p1817
I1
tp1818
a(S'AWL'
p1819
I1
tp1820
a(S'privatekeytype'
p1821
I1
tp1822
a(S'do'
p1823
I1
tp1824
a(S'dl'
p1825
I1
tp1826
a(S'tKE'
p1827
I1
tp1828
a(S'ftpuser'
p1829
I1
tp1830
a(S'dh'
p1831
I1
tp1832
a(S'di'
p1833
I1
tp1834
a(S'dd'
p1835
I1
tp1836
a(S'next'
p1837
I1
tp1838
a(S'rawmemchr'
p1839
I1
tp1840
a(S'report'
p1841
I1
tp1842
a(S'ds'
p1843
I1
tp1844
a(S'srandom'
p1845
I1
tp1846
a(S'fields'
p1847
I1
tp1848
a(S'Agent'
p1849
I1
tp1850
a(S'patch'
p1851
I1
tp1852
a(S'followftp'
p1853
I1
tp1854
a(S'dT'
p1855
I1
tp1856
a(S'EXPERIMENTAL'
p1857
I1
tp1858
a(S'mandatory'
p1859
I1
tp1860
a(S'adjustextension'
p1861
I1
tp1862
a(S'wGH'
p1863
I1
tp1864
a(S'num'
p1865
I1
tp1866
a(S'verboseness'
p1867
I1
tp1868
a(S'result'
p1869
I1
tp1870
a(S'corrupt'
p1871
I1
tp1872
a(S'Logging'
p1873
I1
tp1874
a(S'tPH'
p1875
I1
tp1876
a(S'alternative'
p1877
I1
tp1878
a(S'subject'
p1879
I1
tp1880
a(S'ftpscleardataconnection'
p1881
I1
tp1882
a(S'lots'
p1883
I1
tp1884
a(S'Registered'
p1885
I1
tp1886
a(S'Auth'
p1887
I1
tp1888
a(S'iri'
p1889
I1
tp1890
a(S'stamps'
p1891
I1
tp1892
a(S'unable'
p1893
I1
tp1894
a(S'requisites'
p1895
I1
tp1896
a(S'wh'
p1897
I1
tp1898
a(S'Queue'
p1899
I1
tp1900
a(S'COMMAND'
p1901
I1
tp1902
a(S'certificatetype'
p1903
I1
tp1904
a(S'strange'
p1905
I1
tp1906
a(S'Unsupported'
p1907
I1
tp1908
a(S'urls'
p1909
I1
tp1910
a(S'wP'
p1911
I1
tp1912
a(S'com'
p1913
I1
tp1914
a(S'pre'
p1915
I1
tp1916
a(S'Closed'
p1917
I1
tp1918
a(S'trust'
p1919
I1
tp1920
a(S'Releasing'
p1921
I1
tp1922
a(S'plaintext'
p1923
I1
tp1924
a(S'basic'
p1925
I1
tp1926
a(S'Disabling'
p1927
I1
tp1928
a(S'wfL'
p1929
I1
tp1930
a(S'CL'
p1931
I1
tp1932
a(S'SRP'
p1933
I1
tp1934
a(S'child'
p1935
I1
tp1936
a(S'ABCDEF'
p1937
I1
tp1938
a(S'NAME'
p1939
I1
tp1940
a(S'privatekey'
p1941
I1
tp1942
a(S'ATUE'
p1943
I1
tp1944
a(S'ATUL'
p1945
I1
tp1946
a(S'chunked'
p1947
I1
tp1948
a(S'ATUH'
p1949
I1
tp1950
a(S'savecookies'
p1951
I1
tp1952
a(S'wcwidth'
p1953
I1
tp1954
a(S'Write'
p1955
I1
tp1956
a(S'skipping'
p1957
I1
tp1958
a(S'Falling'
p1959
I1
tp1960
a(S'perform'
p1961
I1
tp1962
a(S'recursion'
p1963
I1
tp1964
a(S'header'
p1965
I1
tp1966
a(S'who'
p1967
I1
tp1968
a(S'iH'
p1969
I1
tp1970
a(S'urlencoded'
p1971
I1
tp1972
a(S'AUATSH'
p1973
I1
tp1974
a(S'AUATSI'
p1975
I1
tp1976
a(S'nil'
p1977
I1
tp1978
a(S'gzdopen'
p1979
I1
tp1980
a(S'AUATSA'
p1981
I1
tp1982
a(S'NOT'
p1983
I1
tp1984
a(S'VY'
p1985
I1
tp1986
a(S'MultiNet'
p1987
I1
tp1988
a(S'BFBOBXBaBjBsB'
p1989
I1
tp1990
a(S'SIGUSR'
p1991
I1
tp1992
a(S'client'
p1993
I1
tp1994
a(S'serverresponse'
p1995
I1
tp1996
a(S'claims'
p1997
I1
tp1998
a(S'lpsv'
p1999
I1
tp2000
a(S'Conversion'
p2001
I1
tp2002
a(S'tDH'
p2003
I1
tp2004
a(S'protocol'
p2005
I1
tp2006
a(S'bandwidth'
p2007
I1
tp2008
a(S'identify'
p2009
I1
tp2010
a(S'CONF'
p2011
I1
tp2012
a(S'retryconnrefused'
p2013
I1
tp2014
a(S'yet'
p2015
I1
tp2016
a(S'handshake'
p2017
I1
tp2018
a(S'character'
p2019
I1
tp2020
a(S'transformed'
p2021
I1
tp2022
a(S'excludedirectories'
p2023
I1
tp2024
a(S'ffffff'
p2025
I1
tp2026
a(S'save'
p2027
I1
tp2028
a(S'bnf'
p2029
I1
tp2030
a(S'Length'
p2031
I1
tp2032
a(S'descending'
p2033
I1
tp2034
a(S'background'
p2035
I1
tp2036
a(S'rejectregex'
p2037
I1
tp2038
a(S'manual'
p2039
I1
tp2040
a(S'CRYPTO'
p2041
I1
tp2042
a(S'xemacs'
p2043
I1
tp2044
a(S'freopen'
p2045
I1
tp2046
a(S'security'
p2047
I1
tp2048
a(S'ftpproxy'
p2049
I1
tp2050
a(S'DOMAIN'
p2051
I1
tp2052
a(S'old'
p2053
I1
tp2054
a(S'WINDOWS'
p2055
I1
tp2056
a(S'HB'
p2057
I1
tp2058
a(S'HA'
p2059
I1
tp2060
a(S'HD'
p2061
I1
tp2062
a(S'HE'
p2063
I1
tp2064
a(S'txt'
p2065
I1
tp2066
a(S'xEc'
p2067
I1
tp2068
a(S'UAVH'
p2069
I1
tp2070
a(S'Hi'
p2071
I1
tp2072
a(S'CONNECT'
p2073
I1
tp2074
a(S'peek'
p2075
I1
tp2076
a(S'KMGTPE'
p2077
I1
tp2078
a(S'post'
p2079
I1
tp2080
a(S'permitted'
p2081
I1
tp2082
a(S'ftpsfallbacktoftp'
p2083
I1
tp2084
a(S'BLACKLIST'
p2085
I1
tp2086
a(S'opie'
p2087
I1
tp2088
a(S'Parsed'
p2089
I1
tp2090
a(S'wildcards'
p2091
I1
tp2092
a(S'bound'
p2093
I1
tp2094
a(S'parsing'
p2095
I1
tp2096
a(S'NOTHTTPS'
p2097
I1
tp2098
a(S'warcinfo'
p2099
I1
tp2100
a(S'compression'
p2101
I1
tp2102
a(S'IETF'
p2103
I1
tp2104
a(S'initial'
p2105
I1
tp2106
a(S'ohdH'
p2107
I1
tp2108
a(S'quiet'
p2109
I1
tp2110
a(S'was'
p2111
I1
tp2112
a(S'RHcp'
p2113
I1
tp2114
a(S'head'
p2115
I1
tp2116
a(S'GMH'
p2117
I1
tp2118
a(S'attempted'
p2119
I1
tp2120
a(S'DNO'
p2121
I1
tp2122
a(S'refcount'
p2123
I1
tp2124
a(S'DNS'
p2125
I1
tp2126
a(S'removed'
p2127
I1
tp2128
a(S'true'
p2129
I1
tp2130
a(S'maximum'
p2131
I1
tp2132
a(S'nH'
p2133
I1
tp2134
a(S'pCpCL'
p2135
I1
tp2136
a(S'classic'
p2137
I1
tp2138
a(S'mbrtowc'
p2139
I1
tp2140
a(S'ftello'
p2141
I1
tp2142
a(S'NUMBER'
p2143
I1
tp2144
a(S'PREFIX'
p2145
I1
tp2146
a(S'exist'
p2147
I1
tp2148
a(S'pCpCZ'
p2149
I1
tp2150
a(S'uZH'
p2151
I1
tp2152
a(S'check'
p2153
I1
tp2154
a(S'ABCDEFGHIJKLMNOPQRSTUVWXYZ'
p2155
I1
tp2156
a(S'encrypt'
p2157
I1
tp2158
a(S'no'
p2159
I1
tp2160
a(S'nc'
p2161
I1
tp2162
a(S'nd'
p2163
I1
tp2164
a(S'Enqueuing'
p2165
I1
tp2166
a(S'setting'
p2167
I1
tp2168
a(S'test'
p2169
I1
tp2170
a(S'nv'
p2171
I1
tp2172
a(S'tcsetattr'
p2173
I1
tp2174
a(S'xu'
p2175
I1
tp2176
a(S'DNDEBUG'
p2177
I1
tp2178
a(S'String'
p2179
I1
tp2180
a(S'vAH'
p2181
I1
tp2182
a(S'modules'
p2183
I1
tp2184
a(S'together'
p2185
I1
tp2186
a(S'randomwait'
p2187
I1
tp2188
a(S'idna'
p2189
I1
tp2190
a(S'conformsTo'
p2191
I1
tp2192
a(S'EOF'
p2193
I1
tp2194
a(S'skip'
p2195
I1
tp2196
a(S'nls'
p2197
I1
tp2198
a(S'AfAoAxA'
p2199
I1
tp2200
a(S'comments'
p2201
I1
tp2202
a(S'Found'
p2203
I1
tp2204
a(S'FILENAME'
p2205
I1
tp2206
a(S'gpgme'
p2207
I1
tp2208
a(S'qop'
p2209
I1
tp2210
a(S'netpreserve'
p2211
I1
tp2212
a(S'giga'
p2213
I1
tp2214
a(S'allocate'
p2215
I1
tp2216
a(S'downloading'
p2217
I1
tp2218
a(S'string'
p2219
I1
tp2220
a(S'enqueue'
p2221
I1
tp2222
a(S'VERSION'
p2223
I1
tp2224
a(S'entries'
p2225
I1
tp2226
a(S'exact'
p2227
I1
tp2228
a(S'Accepted'
p2229
I1
tp2230
a(S'level'
p2231
I1
tp2232
a(S'did'
p2233
I1
tp2234
a(S'mb'
p2235
I1
tp2236
a(S'audio'
p2237
I1
tp2238
a(S'dir'
p2239
I1
tp2240
a(S'recursing'
p2241
I1
tp2242
a(S'HTTP'
p2243
I1
tp2244
a(S'Failed'
p2245
I1
tp2246
a(S'addr'
p2247
I1
tp2248
a(S'tEH'
p2249
I1
tp2250
a(S'redirect'
p2251
I1
tp2252
a(S'Mg'
p2253
I1
tp2254
a(S'Mb'
p2255
I1
tp2256
a(S'DEBUG'
p2257
I1
tp2258
a(S'along'
p2259
I1
tp2260
a(S'appears'
p2261
I1
tp2262
a(S'MD'
p2263
I1
tp2264
a(S'MM'
p2265
I1
tp2266
a(S'MH'
p2267
I1
tp2268
a(S'numtries'
p2269
I1
tp2270
a(S'AYAZ'
p2271
I1
tp2272
a(S'domains'
p2273
I1
tp2274
a(S'Inc'
p2275
I1
tp2276
a(S'DES'
p2277
I1
tp2278
a(S'extra'
p2279
I1
tp2280
a(S'prefer'
p2281
I1
tp2282
a(S'peer'
p2283
I1
tp2284
a(S'fake'
p2285
I1
tp2286
a(S'regex'
p2287
I1
tp2288
a(S'SSLv'
p2289
I1
tp2290
a(S'stylesheet'
p2291
I1
tp2292
a(S'explicitly'
p2293
I1
tp2294
a(S'Allowing'
p2295
I1
tp2296
a(S'https'
p2297
I1
tp2298
a(S'encode'
p2299
I1
tp2300
a(S'strdup'
p2301
I1
tp2302
a(S'AUE'
p2303
I1
tp2304
a(S'sessions'
p2305
I1
tp2306
a(S'suggestions'
p2307
I1
tp2308
a(S'Required'
p2309
I1
tp2310
a(S'Time'
p2311
I1
tp2312
a(S'randomfile'
p2313
I1
tp2314
a(S'lowercase'
p2315
I1
tp2316
a(S'digests'
p2317
I1
tp2318
a(S'quoting'
p2319
I1
tp2320
a(S'modified'
p2321
I1
tp2322
a(S'values'
p2323
I1
tp2324
a(S'iframe'
p2325
I1
tp2326
a(S'following'
p2327
I1
tp2328
a(S'dnstimeout'
p2329
I1
tp2330
a(S'sysconf'
p2331
I1
tp2332
a(S'attribute'
p2333
I1
tp2334
a(S'agent'
p2335
I1
tp2336
a(S'clearerr'
p2337
I1
tp2338
a(S'charset'
p2339
I1
tp2340
a(S'DLOCALEDIR'
p2341
I1
tp2342
a(S'xhtml'
p2343
I1
tp2344
a(S'REGEX'
p2345
I1
tp2346
a(S'map'
p2347
I1
tp2348
a(S'USHc'
p2349
I1
tp2350
a(S'License'
p2351
I1
tp2352
a(S'memrchr'
p2353
I1
tp2354
a(S'sP'
p2355
I1
tp2356
a(S'sK'
p2357
I1
tp2358
a(S'ioctl'
p2359
I1
tp2360
a(S'scratch'
p2361
I1
tp2362
a(S'vPL'
p2363
I1
tp2364
a(S'recursive'
p2365
I1
tp2366
a(S'RELATIVE'
p2367
I1
tp2368
a(S'Locale'
p2369
I1
tp2370
a(S'maybe'
p2371
I1
tp2372
a(S'sk'
p2373
I1
tp2374
a(S'xzI'
p2375
I1
tp2376
a(S'protocoldirectories'
p2377
I1
tp2378
a(S'tty'
p2379
I1
tp2380
a(S'CBCKCTC'
p2381
I1
tp2382
a(S'Jan'
p2383
I1
tp2384
a(S'ZYxBH'
p2385
I1
tp2386
a(S'msgtype'
p2387
I1
tp2388
a(S'FILE'
p2389
I1
tp2390
a(S'spanhosts'
p2391
I1
tp2392
a(S'revisit'
p2393
I1
tp2394
a(S'AUAWE'
p2395
I1
tp2396
a(S'equiv'
p2397
I1
tp2398
a(S'Referer'
p2399
I1
tp2400
a(S'WTF'
p2401
I1
tp2402
a(S'listing'
p2403
I1
tp2404
a(S'policy'
p2405
I1
tp2406
a(S'Received'
p2407
I1
tp2408
a(S'FAMILY'
p2409
I1
tp2410
a(S'matches'
p2411
I1
tp2412
a(S'pagerequisites'
p2413
I1
tp2414
a(S'CfC'
p2415
I1
tp2416
a(S'records'
p2417
I1
tp2418
a(S'Closing'
p2419
I1
tp2420
a(S'ntlm'
p2421
I1
tp2422
a(S'Stored'
p2423
I1
tp2424
a(S'domain'
p2425
I1
tp2426
a(S'retrieve'
p2427
I1
tp2428
a(S'ex'
p2429
I1
tp2430
a(S'year'
p2431
I1
tp2432
a(S'engines'
p2433
I1
tp2434
a(S'Added'
p2435
I1
tp2436
a(S'SGML'
p2437
I1
tp2438
a(S'eC'
p2439
I1
tp2440
a(S'eQ'
p2441
I1
tp2442
a(S'ENC'
p2443
I1
tp2444
a(S'args'
p2445
I1
tp2446
a(S'Record'
p2447
I1
tp2448
a(S'org'
p2449
I1
tp2450
a(S'nanosleep'
p2451
I1
tp2452
a(S'postfile'
p2453
I1
tp2454
a(S'forbids'
p2455
I1
tp2456
a(S'Deciding'
p2457
I1
tp2458
a(S'couldn'
p2459
I1
tp2460
a(S'libuuid'
p2461
I1
tp2462
a(S'nofollow'
p2463
I1
tp2464
a(S'Parsing'
p2465
I1
tp2466
a(S'PPPPPPPPPP'
p2467
I1
tp2468
a(S'Authenticate'
p2469
I1
tp2470
a(S'saving'
p2471
I1
tp2472
a(S'UNKNOWN'
p2473
I1
tp2474
a(S'There'
p2475
I1
tp2476
a(S'parser'
p2477
I1
tp2478
a(S'insecurely'
p2479
I1
tp2480
a(S'ATU'
p2481
I1
tp2482
a(S'ISO'
p2483
I1
tp2484
a(S'open'
p2485
I1
tp2486
a(S'xt'
p2487
I1
tp2488
a(S'given'
p2489
I1
tp2490
a(S'xI'
p2491
I1
tp2492
a(S'Pt'
p2493
I1
tp2494
a(S'xL'
p2495
I1
tp2496
a(S'xM'
p2497
I1
tp2498
a(S'xA'
p2499
I1
tp2500
a(S'xD'
p2501
I1
tp2502
a(S'xE'
p2503
I1
tp2504
a(S'Downloaded'
p2505
I1
tp2506
a(S'Date'
p2507
I1
tp2508
a(S'libpcre'
p2509
I1
tp2510
a(S'Data'
p2511
I1
tp2512
a(S'that'
p2513
I1
tp2514
a(S'cnonce'
p2515
I1
tp2516
a(S'Rejecting'
p2517
I1
tp2518
a(S'specify'
p2519
I1
tp2520
a(S'connections'
p2521
I1
tp2522
a(S'tPM'
p2523
I1
tp2524
a(S'AWAVM'
p2525
I1
tp2526
a(S'AWAVH'
p2527
I1
tp2528
a(S'applet'
p2529
I1
tp2530
a(S'posix'
p2531
I1
tp2532
a(S'were'
p2533
I1
tp2534
a(S'warctempdir'
p2535
I1
tp2536
a(S'DH'
p2537
I1
tp2538
a(S'DI'
p2539
I1
tp2540
a(S'DD'
p2541
I1
tp2542
a(S'turned'
p2543
I1
tp2544
a(S'locations'
p2545
I1
tp2546
a(S'DA'
p2547
I1
tp2548
a(S'ATAWH'
p2549
I1
tp2550
a(S'conversion'
p2551
I1
tp2552
a(S'poster'
p2553
I1
tp2554
a(S'Dv'
p2555
I1
tp2556
a(S'channel'
p2557
I1
tp2558
a(S'sure'
p2559
I1
tp2560
a(S'Getting'
p2561
I1
tp2562
a(S'compress'
p2563
I1
tp2564
a(S'strpbrk'
p2565
I1
tp2566
a(S'loadcookies'
p2567
I1
tp2568
a(S'opterr'
p2569
I1
tp2570
a(S'icon'
p2571
I1
tp2572
a(S'redirecting'
p2573
I1
tp2574
a(S'link'
p2575
I1
tp2576
a(S'GPLv'
p2577
I1
tp2578
a(S'bgsound'
p2579
I1
tp2580
a(S'Handshake'
p2581
I1
tp2582
a(S'WD'
p2583
I1
tp2584
a(S'timegm'
p2585
I1
tp2586
a(S'Authentication'
p2587
I1
tp2588
a(S'ignoretags'
p2589
I1
tp2590
a(S'reportspeed'
p2591
I1
tp2592
a(S'WP'
p2593
I1
tp2594
a(S'httpuser'
p2595
I1
tp2596
a(S'httppassword'
p2597
I1
tp2598
a(S'xml'
p2599
I1
tp2600
a(S'title'
p2601
I1
tp2602
a(S'dotsinline'
p2603
I1
tp2604
a(S'Wl'
p2605
I1
tp2606
a(S'Continuing'
p2607
I1
tp2608
a(S'state'
p2609
I1
tp2610
a(S'Concurrent'
p2611
I1
tp2612
a(S'going'
p2613
I1
tp2614
a(S'black'
p2615
I1
tp2616
a(S'Wq'
p2617
I1
tp2618
a(S'nonce'
p2619
I1
tp2620
a(S'unauthoritative'
p2621
I1
tp2622
a(S'Discarded'
p2623
I1
tp2624
a(S'ssl'
p2625
I1
tp2626
a(S'AUAWL'
p2627
I1
tp2628
a(S'xwLc'
p2629
I1
tp2630
a(S'utf'
p2631
I1
tp2632
a(S'awaiting'
p2633
I1
tp2634
a(S'Werror'
p2635
I1
tp2636
a(S'Reusing'
p2637
I1
tp2638
a(S'resource'
p2639
I1
tp2640
a(S'verbosity'
p2641
I1
tp2642
a(S'where'
p2643
I1
tp2644
a(S'relative'
p2645
I1
tp2646
a(S'Location'
p2647
I1
tp2648
a(S'bodyfile'
p2649
I1
tp2650
a(S'noproxy'
p2651
I1
tp2652
a(S'SYMLINK'
p2653
I1
tp2654
a(S'enough'
p2655
I1
tp2656
a(S'regcomp'
p2657
I1
tp2658
a(S'between'
p2659
I1
tp2660
a(S'import'
p2661
I1
tp2662
a(S'reading'
p2663
I1
tp2664
a(S'Check'
p2665
I1
tp2666
a(S'Target'
p2667
I1
tp2668
a(S'style'
p2669
I1
tp2670
a(S'overwriting'
p2671
I1
tp2672
a(S'suppressed'
p2673
I1
tp2674
a(S'WWW'
p2675
I1
tp2676
a(S'cutdirs'
p2677
I1
tp2678
a(S'signed'
p2679
I1
tp2680
a(S'Spider'
p2681
I1
tp2682
a(S'jR'
p2683
I1
tp2684
a(S'showalldnsentries'
p2685
I1
tp2686
a(S'expression'
p2687
I1
tp2688
a(S'among'
p2689
I1
tp2690
a(S'backupconverted'
p2691
I1
tp2692
a(S'yyout'
p2693
I1
tp2694
a(S'period'
p2695
I1
tp2696
a(S'pop'
p2697
I1
tp2698
a(S'XdH'
p2699
I1
tp2700
a(S'PEM'
p2701
I1
tp2702
a(S'ized'
p2703
I1
tp2704
a(S'seeding'
p2705
I1
tp2706
a(S'wFH'
p2707
I1
tp2708
a(S'pR'
p2709
I1
tp2710
a(S'tQL'
p2711
I1
tp2712
a(S'locally'
p2713
I1
tp2714
a(S'yytext'
p2715
I1
tp2716
a(S'Known'
p2717
I1
tp2718
a(S'ATUStW'
p2719
I1
tp2720
a(S'alwaysrest'
p2721
I1
tp2722
a(S'htmlextension'
p2723
I1
tp2724
a(S'external'
p2725
I1
tp2726
a(S'Mandatory'
p2727
I1
tp2728
a(S'To'
p2729
I1
tp2730
a(S'single'
p2731
I1
tp2732
a(S'compile'
p2733
I1
tp2734
a(S'cannot'
p2735
I1
tp2736
a(S'QUERY'
p2737
I1
tp2738
a(S'tunneling'
p2739
I1
tp2740
a(S'removelisting'
p2741
I1
tp2742
a(S'Transfer'
p2743
I1
tp2744
a(S'Composing'
p2745
I1
tp2746
a(S'sleeping'
p2747
I1
tp2748
a(S'Content'
p2749
I1
tp2750
a(S'malformed'
p2751
I1
tp2752
a(S'abcdef'
p2753
I1
tp2754
a(S'DIR'
p2755
I1
tp2756
a(S'Profile'
p2757
I1
tp2758
a(S'different'
p2759
I1
tp2760
a(S'verified'
p2761
I1
tp2762
a(S'same'
p2763
I1
tp2764
a(S'authentication'
p2765
I1
tp2766
a(S'html'
p2767
I1
tp2768
a(S'uxL'
p2769
I1
tp2770
a(S'document'
p2771
I1
tp2772
a(S'UTF'
p2773
I1
tp2774
a(S'IP'
p2775
I1
tp2776
a(S'downloads'
p2777
I1
tp2778
a(S'allocation'
p2779
I1
tp2780
a(S'IRI'
p2781
I1
tp2782
a(S'nk'
p2783
I1
tp2784
a(S'calloc'
p2785
I1
tp2786
a(S'validate'
p2787
I1
tp2788
a(S'ID'
p2789
I1
tp2790
a(S'PA'
p2791
I1
tp2792
a(S'deleteafter'
p2793
I1
tp2794
a(S'It'
p2795
I1
tp2796
a(S'clobber'
p2797
I1
tp2798
a(S'without'
p2799
I1
tp2800
a(S'Ic'
p2801
I1
tp2802
a(S'If'
p2803
I1
tp2804
a(S'Loading'
p2805
I1
tp2806
a(S'they'
p2807
I1
tp2808
a(S'being'
p2809
I1
tp2810
a(S'proxypassword'
p2811
I1
tp2812
a(S'ftppassword'
p2813
I1
tp2814
a(S'addhostdir'
p2815
I1
tp2816
a(S'unicode'
p2817
I1
tp2818
a(S'TO'
p2819
I1
tp2820
a(S'mmap'
p2821
I1
tp2822
a(S'param'
p2823
I1
tp2824
a(S'real'
p2825
I1
tp2826
a(S'psl'
p2827
I1
tp2828
a(S'pos'
p2829
I1
tp2830
a(S'libz'
p2831
I1
tp2832
a(S'Token'
p2833
I1
tp2834
a(S'accepted'
p2835
I1
tp2836
a(S'UUID'
p2837
I1
tp2838
a(S'greeting'
p2839
I1
tp2840
a(S'Something'
p2841
I1
tp2842
a(S'parse'
p2843
I1
tp2844
a(S'always'
p2845
I1
tp2846
a(S'Digest'
p2847
I1
tp2848
a(S'zlz'
p2849
I1
tp2850
a(S'AVAUATSI'
p2851
I1
tp2852
a(S'uppercase'
p2853
I1
tp2854
a(S'Since'
p2855
I1
tp2856
a(S'ascend'
p2857
I1
tp2858
a(S'images'
p2859
I1
tp2860
a(S'New'
p2861
I1
tp2862
a(S'matching'
p2863
I1
tp2864
a(S'ATUSL'
p2865
I1
tp2866
a(S'unlocked'
p2867
I1
tp2868
a(S'Edit'
p2869
I1
tp2870
a(S'htmlify'
p2871
I1
tp2872
a(S'MACOS'
p2873
I1
tp2874
a(S'MEDIUM'
p2875
I1
tp2876
a(S'crlfile'
p2877
I1
tp2878
a(S'seconds'
p2879
I1
tp2880
a(S'sprung'
p2881
I1
tp2882
a(S'ABEDABELABETABLEABUTACHEACIDACMEACREACTAACTSADAMADDSADENAFARAFROAGEEAHEMAHOYAIDAAIDEAIDSAIRYAJARAKINALANALECALGAALIAALLYALMAALOEALSOALTOALUMALVAAMENAMESAMIDAMMOAMOKAMOSAMRAANDYANEWANNAANNEANTEANTIAQUAARABARCHAREAARGOARIDARMYARTSARTYASIAASKSATOMAUNTAURAAUTOAVERAVIDAVISAVONAVOWAWAYAWRYBABEBABYBACHBACKBADEBAILBAITBAKEBALDBALEBALIBALKBALLBALMBANDBANEBANGBANKBARBBARDBAREBARKBARNBARRBASEBASHBASKBASSBATEBATHBAWDBAWLBEADBEAKBEAMBEANBEARBEATBEAUBECKBEEFBEENBEERBEETBELABELLBELTBENDBENTBERGBERNBERTBESSBESTBETABETHBHOYBIASBIDEBIENBILEBILKBILLBINDBINGBIRDBITEBITSBLABBLATBLEDBLEWBLOBBLOCBLOTBLOWBLUEBLUMBLURBOARBOATBOCABOCKBODEBODYBOGYBOHRBOILBOLDBOLOBOLTBOMBBONABONDBONEBONGBONNBONYBOOKBOOMBOONBOOTBOREBORGBORNBOSEBOSSBOTHBOUTBOWLBOYDBRADBRAEBRAGBRANBRAYBREDBREWBRIGBRIMBROWBUCKBUDDBUFFBULBBULKBULLBUNKBUNTBUOYBURGBURLBURNBURRBURTBURYBUSHBUSSBUSTBUSYBYTECADYCAFECAGECAINCAKECALFCALLCALMCAMECANECANTCARDCARECARLCARRCARTCASECASHCASKCASTCAVECEILCELLCENTCERNCHADCHARCHATCHAWCHEFCHENCHEWCHICCHINCHOUCHOWCHUBCHUGCHUMCITECITYCLADCLAMCLANCLAWCLAYCLODCLOGCLOTCLUBCLUECOALCOATCOCACOCKCOCOCODACODECODYCOEDCOILCOINCOKECOLACOLDCOLTCOMACOMBCOMECOOKCOOLCOONCOOTCORDCORECORKCORNCOSTCOVECOWLCRABCRAGCRAMCRAYCREWCRIBCROWCRUDCUBACUBECUFFCULLCULTCUNYCURBCURDCURECURLCURTCUTSDADEDALEDAMEDANADANEDANGDANKDAREDARKDARNDARTDASHDATADATEDAVEDAVYDAWNDAYSDEADDEAFDEALDEANDEARDEBTDECKDEEDDEEMDEERDEFTDEFYDELLDENTDENYDESKDIALDICEDIEDDIETDIMEDINEDINGDINTDIREDIRTDISCDISHDISKDIVEDOCKDOESDOLEDOLLDOLTDOMEDONEDOOMDOORDORADOSEDOTEDOUGDOURDOVEDOWNDRABDRAGDRAMDRAWDREWDRUBDRUGDRUMDUALDUCKDUCTDUELDUETDUKEDULLDUMBDUNEDUNKDUSKDUSTDUTYEACHEARLEARNEASEEASTEASYEBENECHOEDDYEDENEDGEEDGYEDITEDNAEGANELANELBAELLAELSEEMILEMITEMMAENDSERICEROSEVENEVEREVILEYEDFACEFACTFADEFAILFAINFAIRFAKEFALLFAMEFANGFARMFASTFATEFAWNFEARFEATFEEDFEELFEETFELLFELTFENDFERNFESTFEUDFIEFFIGSFILEFILLFILMFINDFINEFINKFIREFIRMFISHFISKFISTFITSFIVEFLAGFLAKFLAMFLATFLAWFLEAFLEDFLEWFLITFLOCFLOGFLOWFLUBFLUEFOALFOAMFOGYFOILFOLDFOLKFONDFONTFOODFOOLFOOTFORDFOREFORKFORMFORTFOSSFOULFOURFOWLFRAUFRAYFREDFREEFRETFREYFROGFROMFUELFULLFUMEFUNDFUNKFURYFUSEFUSSGAFFGAGEGAILGAINGAITGALAGALEGALLGALTGAMEGANGGARBGARYGASHGATEGAULGAURGAVEGAWKGEARGELDGENEGENTGERMGETSGIBEGIFTGILDGILLGILTGINAGIRDGIRLGISTGIVEGLADGLEEGLENGLIBGLOBGLOMGLOWGLUEGLUMGLUTGOADGOALGOATGOERGOESGOLDGOLFGONEGONGGOODGOOFGOREGORYGOSHGOUTGOWNGRABGRADGRAYGREGGREWGREYGRIDGRIMGRINGRITGROWGRUBGULFGULLGUNKGURUGUSHGUSTGWENGWYNHAAGHAASHACKHAILHAIRHALEHALFHALLHALOHALTHANDHANGHANKHANSHARDHARKHARMHARTHASHHASTHATEHATHHAULHAVEHAWKHAYSHEADHEALHEARHEATHEBEHECKHEEDHEELHEFTHELDHELLHELMHERBHERDHEREHEROHERSHESSHEWNHICKHIDEHIGHHIKEHILLHILTHINDHINTHIREHISSHIVEHOBOHOCKHOFFHOLDHOLEHOLMHOLTHOMEHONEHONKHOODHOOFHOOKHOOTHORNHOSEHOSTHOURHOVEHOWEHOWLHOYTHUCKHUEDHUFFHUGEHUGHHUGOHULKHULLHUNKHUNTHURDHURLHURTHUSHHYDEHYMNIBISICONIDEAIDLEIFFYINCAINCHINTOIONSIOTAIOWAIRISIRMAIRONISLEITCHITEMIVANJACKJADEJAILJAKEJANEJAVAJEANJEFFJERKJESSJESTJIBEJILLJILTJIVEJOANJOBSJOCKJOELJOEYJOHNJOINJOKEJOLTJOVEJUDDJUDEJUDOJUDYJUJUJUKEJULYJUNEJUNKJUNOJURYJUSTJUTEKAHNKALEKANEKANTKARLKATEKEELKEENKENOKENTKERNKERRKEYSKICKKILLKINDKINGKIRKKISSKITEKLANKNEEKNEWKNITKNOBKNOTKNOWKOCHKONGKUDOKURDKURTKYLELACELACKLACYLADYLAIDLAINLAIRLAKELAMBLAMELANDLANELANGLARDLARKLASSLASTLATELAUDLAVALAWNLAWSLAYSLEADLEAFLEAKLEANLEARLEEKLEERLEFTLENDLENSLENTLEONLESKLESSLESTLETSLIARLICELICKLIEDLIENLIESLIEULIFELIFTLIKELILALILTLILYLIMALIMBLIMELINDLINELINKLINTLIONLISALISTLIVELOADLOAFLOAMLOANLOCKLOFTLOGELOISLOLALONELONGLOOKLOONLOOTLORDLORELOSELOSSLOSTLOUDLOVELOWELUCKLUCYLUGELUKELULULUNDLUNGLURALURELURKLUSHLUSTLYLELYNNLYONLYRAMACEMADEMAGIMAIDMAILMAINMAKEMALEMALIMALLMALTMANAMANNMANYMARCMAREMARKMARSMARTMARYMASHMASKMASSMASTMATEMATHMAULMAYOMEADMEALMEANMEATMEEKMEETMELDMELTMEMOMENDMENUMERTMESHMESSMICEMIKEMILDMILEMILKMILLMILTMIMIMINDMINEMINIMINKMINTMIREMISSMISTMITEMITTMOANMOATMOCKMODEMOLDMOLEMOLLMOLTMONAMONKMONTMOODMOONMOORMOOTMOREMORNMORTMOSSMOSTMOTHMOVEMUCHMUCKMUDDMUFFMULEMULLMURKMUSHMUSTMUTEMUTTMYRAMYTHNAGYNAILNAIRNAMENARYNASHNAVENAVYNEALNEARNEATNECKNEEDNEILNELLNEONNERONESSNESTNEWSNEWTNIBSNICENICKNILENINANINENOAHNODENOELNOLLNONENOOKNOONNORMNOSENOTENOUNNOVANUDENULLNUMBOATHOBEYOBOEODINOHIOOILYOINTOKAYOLAFOLDYOLGAOLINOMANOMENOMITONCEONESONLYONTOONUSORALORGYOSLOOTISOTTOOUCHOUSTOUTSOVALOVENOVEROWLYOWNSQUADQUITQUODRACERACKRACYRAFTRAGERAIDRAILRAINRAKERANKRANTRARERASHRATERAVERAYSREADREALREAMREARRECKREEDREEFREEKREELREIDREINRENARENDRENTRESTRICERICHRICKRIDERIFTRILLRIMERINGRINKRISERISKRITEROADROAMROARROBEROCKRODEROILROLLROMEROODROOFROOKROOMROOTROSAROSEROSSROSYROTHROUTROVEROWEROWSRUBERUBYRUDERUDYRUINRULERUNGRUNSRUNTRUSERUSHRUSKRUSSRUSTRUTHSACKSAFESAGESAIDSAILSALESALKSALTSAMESANDSANESANGSANKSARASAULSAVESAYSSCANSCARSCATSCOTSEALSEAMSEARSEATSEEDSEEKSEEMSEENSEESSELFSELLSENDSENTSETSSEWNSHAGSHAMSHAWSHAYSHEDSHIMSHINSHODSHOESHOTSHOWSHUNSHUTSICKSIDESIFTSIGHSIGNSILKSILLSILOSILTSINESINGSINKSIRESITESITSSITUSKATSKEWSKIDSKIMSKINSKITSLABSLAMSLATSLAYSLEDSLEWSLIDSLIMSLITSLOBSLOGSLOTSLOWSLUGSLUMSLURSMOGSMUGSNAGSNOBSNOWSNUBSNUGSOAKSOARSOCKSODASOFASOFTSOILSOLDSOMESONGSOONSOOTSORESORTSOULSOURSOWNSTABSTAGSTANSTARSTAYSTEMSTEWSTIRSTOWSTUBSTUNSUCHSUDSSUITSULKSUMSSUNGSUNKSURESURFSWABSWAGSWAMSWANSWATSWAYSWIMSWUMTACKTACTTAILTAKETALETALKTALLTANKTASKTATETAUTTEALTEAMTEARTECHTEEMTEENTEETTELLTENDTENTTERMTERNTESSTESTTHANTHATTHEETHEMTHENTHEYTHINTHISTHUDTHUGTICKTIDETIDYTIEDTIERTILETILLTILTTIMETINATINETINTTINYTIRETOADTOGOTOILTOLDTOLLTONETONGTONYTOOKTOOLTOOTTORETORNTOTETOURTOUTTOWNTRAGTRAMTRAYTREETREKTRIGTRIMTRIOTRODTROTTROYTRUETUBATUBETUCKTUFTTUNATUNETUNGTURFTURNTUSKTWIGTWINTWITULANUNITURGEUSEDUSERUSESUTAHVAILVAINVALEVARYVASEVASTVEALVEDAVEILVEINVENDVENTVERBVERYVETOVICEVIEWVINEVISEVOIDVOLTVOTEWACKWADEWAGEWAILWAITWAKEWALEWALKWALLWALTWANDWANEWANGWANTWARDWARMWARNWARTWASHWASTWATSWATTWAVEWAVYWAYSWEAKWEALWEANWEARWEEDWEEKWEIRWELDWELLWELTWENTWEREWERTWESTWHAMWHATWHEEWHENWHETWHOAWHOMWICKWIFEWILDWILLWINDWINEWINGWINKWINOWIREWISEWISHWITHWOLFWONTWOODWOOLWORDWOREWORKWORMWORNWOVEWRITWYNNYALEYANGYANKYARDYARNYAWLYAWNYEAHYEARYELLYOGAYOKE'
p2883
I1
tp2884
a(S'broken'
p2885
I1
tp2886
a(S'OFFSET'
p2887
I1
tp2888
a(S'acc'
p2889
I1
tp2890
a(S'multibyte'
p2891
I1
tp2892
a(S'MK'
p2893
I1
tp2894
a(S'backup'
p2895
I1
tp2896
a(S'RAND'
p2897
I1
tp2898
a(S'determine'
p2899
I1
tp2900
a(S'Ns'
p2901
I1
tp2902
a(S'your'
p2903
I1
tp2904
a(S'log'
p2905
I1
tp2906
a(S'area'
p2907
I1
tp2908
a(S'there'
p2909
I1
tp2910
a(S'literal'
p2911
I1
tp2912
a(S'NG'
p2913
I1
tp2914
a(S'decode'
p2915
I1
tp2916
a(S'Cookie'
p2917
I1
tp2918
a(S'oriL'
p2919
I1
tp2920
a(S'NT'
p2921
I1
tp2922
a(S'strict'
p2923
I1
tp2924
a(S'FRAGMENT'
p2925
I1
tp2926
a(S'lpcre'
p2927
I1
tp2928
a(S'useservertimestamps'
p2929
I1
tp2930
a(S'numeric'
p2931
I1
tp2932
a(S'readtimeout'
p2933
I1
tp2934
a(S'uW'
p2935
I1
tp2936
a(S'Truncated'
p2937
I1
tp2938
a(S'Startup'
p2939
I1
tp2940
a(S'Close'
p2941
I1
tp2942
a(S'embed'
p2943
I1
tp2944
a(S'reusing'
p2945
I1
tp2946
a(S'fallbacking'
p2947
I1
tp2948
a(S'SIGHUP'
p2949
I1
tp2950
a(S'USE'
p2951
I1
tp2952
a(S'ab'
p2953
I1
tp2954
a(S'scanner'
p2955
I1
tp2956
a(S'exhausted'
p2957
I1
tp2958
a(S'AQAPRVRA'
p2959
I1
tp2960
a(S'al'
p2961
I1
tp2962
a(S'general'
p2963
I1
tp2964
a(S'as'
p2965
I1
tp2966
a(S'au'
p2967
I1
tp2968
a(S'gzclose'
p2969
I1
tp2970
a(S'incorrect'
p2971
I1
tp2972
a(S'Read'
p2973
I1
tp2974
a(S'lssl'
p2975
I1
tp2976
a(S'field'
p2977
I1
tp2978
a(S'valid'
p2979
I1
tp2980
a(S'requested'
p2981
I1
tp2982
a(S'gfffffff'
p2983
I1
tp2984
a(S'PBSZ'
p2985
I1
tp2986
a(S'included'
p2987
I1
tp2988
a(S'clocale'
p2989
I1
tp2990
a(S'ftpsimplicit'
p2991
I1
tp2992
a(S'lookups'
p2993
I1
tp2994
a(S'bindaddress'
p2995
I1
tp2996
a(S'SYSTEM'
p2997
I1
tp2998
a(S'PFS'
p2999
I1
tp3000
a(S'starting'
p3001
I1
tp3002
a(S'strings'
p3003
I1
tp3004
a(S'unset'
p3005
I1
tp3006
a(S'all'
p3007
I1
tp3008
a(S'tZ'
p3009
I1
tp3010
a(S'HcrH'
p3011
I1
tp3012
a(S'tQ'
p3013
I1
tp3014
a(S'tN'
p3015
I1
tp3016
a(S'tL'
p3017
I1
tp3018
a(S'tM'
p3019
I1
tp3020
a(S'tH'
p3021
I1
tp3022
a(S'tD'
p3023
I1
tp3024
a(S'tE'
p3025
I1
tp3026
a(S'tC'
p3027
I1
tp3028
a(S'iconv'
p3029
I1
tp3030
a(S'AVAU'
p3031
I1
tp3032
a(S'strptime'
p3033
I1
tp3034
a(S'program'
p3035
I1
tp3036
a(S'tf'
p3037
I1
tp3038
a(S'tg'
p3039
I1
tp3040
a(S'Self'
p3041
I1
tp3042
a(S'BODY'
p3043
I1
tp3044
a(S'returned'
p3045
I1
tp3046
a(S'Directories'
p3047
I1
tp3048
a(S'gz'
p3049
I1
tp3050
a(S'redirections'
p3051
I1
tp3052
a(S'timestamping'
p3053
I1
tp3054
a(S'fall'
p3055
I1
tp3056
a(S'Prepended'
p3057
I1
tp3058
a(S'existing'
p3059
I1
tp3060
a(S'Incomplete'
p3061
I1
tp3062
a(S'utime'
p3063
I1
tp3064
a(S'gov'
p3065
I1
tp3066
a(S'large'
p3067
I1
tp3068
a(S'adjust'
p3069
I1
tp3070
a(S'Omitting'
p3071
I1
tp3072
a(S'optind'
p3073
I1
tp3074
a(S'Recursion'
p3075
I1
tp3076
a(S'memmove'
p3077
I1
tp3078
a(S'ZYuRM'
p3079
I1
tp3080
a(S'rate'
p3081
I1
tp3082
a(S'EN'
p3083
I1
tp3084
a(S'warcheader'
p3085
I1
tp3086
a(S'further'
p3087
I1
tp3088
a(S'pCpC'
p3089
I1
tp3090
a(S'clock'
p3091
I1
tp3092
a(S'teA'
p3093
I1
tp3094
a(S'yyleng'
p3095
I1
tp3096
a(S'method'
p3097
I1
tp3098
a(S'tags'
p3099
I1
tp3100
a(S'compilation'
p3101
I1
tp3102
a(S'component'
p3103
I1
tp3104
a(S'vals'
p3105
I1
tp3106
a(S'strong'
p3107
I1
tp3108
a(S'TMPDIR'
p3109
I1
tp3110
a(S'tKUSH'
p3111
I1
tp3112
a(S'Security'
p3113
I1
tp3114
a(S'allows'
p3115
I1
tp3116
a(S'amount'
p3117
I1
tp3118
a(S'action'
p3119
I1
tp3120
a(S'TLSv'
p3121
I1
tp3122
a(S'options'
p3123
I1
tp3124
a(S'followed'
p3125
I1
tp3126
a(S'tvSH'
p3127
I1
tp3128
a(S'DOCTYPE'
p3129
I1
tp3130
a(S'ask'
p3131
I1
tp3132
a(S'href'
p3133
I1
tp3134
a(S'establish'
p3135
I1
tp3136
a(S'Creating'
p3137
I1
tp3138
a(S'contains'
p3139
I1
tp3140
a(S'two'
p3141
I1
tp3142
a(S'asn'
p3143
I1
tp3144
a(S'Sy'
p3145
I1
tp3146
a(S'fPIE'
p3147
I1
tp3148
a(S'DHAVE'
p3149
I1
tp3150
a(S'known'
p3151
I1
tp3152
a(S'WGET'
p3153
I1
tp3154
a(S'SZ'
p3155
I1
tp3156
a(S'none'
p3157
I1
tp3158
a(S'include'
p3159
I1
tp3160
a(S'cacertificate'
p3161
I1
tp3162
a(S'SPANNEDHOST'
p3163
I1
tp3164
a(S'dev'
p3165
I1
tp3166
a(S'SH'
p3167
I1
tp3168
a(S'resources'
p3169
I1
tp3170
a(S'ftruncate'
p3171
I1
tp3172
a(S'share'
p3173
I1
tp3174
a(S'exclude'
p3175
I1
tp3176
a(S'warccdxdedup'
p3177
I1
tp3178
a(S'aprintf'
p3179
I1
tp3180
a(S'numurls'
p3181
I1
tp3182
a(S'Opening'
p3183
I1
tp3184
a(S'CAs'
p3185
I1
tp3186
a(S'Cannot'
p3187
I1
tp3188
a(S'Pragma'
p3189
I1
tp3190
a(S'reject'
p3191
I1
tp3192
a(S'noclobber'
p3193
I1
tp3194
a(S'css'
p3195
I1
tp3196
a(S'fr'
p3197
I1
tp3198
a(S'tries'
p3199
I1
tp3200
a(S'coming'
p3201
I1
tp3202
a(S'response'
p3203
I1
tp3204
a(S'ignorelength'
p3205
I1
tp3206
a(S'Bsymbolic'
p3207
I1
tp3208
a(S'checkcertificate'
p3209
I1
tp3210
a(S'RSA'
p3211
I1
tp3212
a(S'Unterminated'
p3213
I1
tp3214
a(S'fK'
p3215
I1
tp3216
a(S'retrieval'
p3217
I1
tp3218
a(S'egd'
p3219
I1
tp3220
a(S'defaultpage'
p3221
I1
tp3222
a(S'basename'
p3223
I1
tp3224
a(S'wrI'
p3225
I1
tp3226
a(S'disabled'
p3227
I1
tp3228
a(S'Afffff'
p3229
I1
tp3230
a(S'through'
p3231
I1
tp3232
a(S'existence'
p3233
I1
tp3234
a(S'ftppasswd'
p3235
I1
tp3236
a(S'getpid'
p3237
I1
tp3238
a(S'might'
p3239
I1
tp3240
a(S'Implicit'
p3241
I1
tp3242
a(S'odir'
p3243
I1
tp3244
a(S'yo'
p3245
I1
tp3246
a(S'URL'
p3247
I1
tp3248
a(S'timestamp'
p3249
I1
tp3250
a(S'libidn'
p3251
I1
tp3252
a(S'URI'
p3253
I1
tp3254
a(S'yf'
p3255
I1
tp3256
a(S'yy'
p3257
I1
tp3258
a(S'Bad'
p3259
I1
tp3260
a(S'yr'
p3261
I1
tp3262
a(S'Saving'
p3263
I1
tp3264
a(S'fully'
p3265
I1
tp3266
a(S'presented'
p3267
I1
tp3268
a(S'refresh'
p3269
I1
tp3270
a(S'token'
p3271
I1
tp3272
a(S'IPV'
p3273
I1
tp3274
a(S'ABCDEFGHIJKLMNOPQRSTUVWXYZabcdefghijklmnopqrstuvwxyz'
p3275
I1
tp3276
a(S'yU'
p3277
I1
tp3278
a(S'ATSA'
p3279
I1
tp3280
a(S'ATSH'
p3281
I1
tp3282
a(S'Setting'
p3283
I1
tp3284
a(S'http'
p3285
I1
tp3286
a(S'tiH'
p3287
I1
tp3288
a(S'Reading'
p3289
I1
tp3290
a(S'really'
p3291
I1
tp3292
a(S'missed'
p3293
I1
tp3294
a(S'since'
p3295
I1
tp3296
a(S'load'
p3297
I1
tp3298
a(S'setsid'
p3299
I1
tp3300
a(S'regexec'
p3301
I1
tp3302
a(S'dirs'
p3303
I1
tp3304
a(S'None'
p3305
I1
tp3306
a(S'WAVI'
p3307
I1
tp3308
a(S'ED'
p3309
I1
tp3310
a(S'Leaving'
p3311
I1
tp3312
a(S'SHA'
p3313
I1
tp3314
a(S'base'
p3315
I1
tp3316
a(S'cookie'
p3317
I1
tp3318
a(S'disposition'
p3319
I1
tp3320
a(S'POST'
p3321
I1
tp3322
a(S'generate'
p3323
I1
tp3324
a(S'Block'
p3325
I1
tp3326
a(S'Wdate'
p3327
I1
tp3328
a(S'Blank'
p3329
I1
tp3330
a(S'dont'
p3331
I1
tp3332
a(S'encoding'
p3333
I1
tp3334
a(S'Cache'
p3335
I1
tp3336
a(S'AVAUATUI'
p3337
I1
tp3338
a(S'AVAUATUH'
p3339
I1
tp3340
a(S'done'
p3341
I1
tp3342
a(S'blank'
p3343
I1
tp3344
a(S'gpl'
p3345
I1
tp3346
a(S'Mcl'
p3347
I1
tp3348
a(S'SATPVL'
p3349
I1
tp3350
a(S'script'
p3351
I1
tp3352
a(S'Mcg'
p3353
I1
tp3354
a(S'WPH'
p3355
I1
tp3356
a(S'scheme'
p3357
I1
tp3358
a(S'BITS'
p3359
I1
tp3360
a(S'listed'
p3361
I1
tp3362
a(S'TLS'
p3363
I1
tp3364
a(S'XI'
p3365
I1
tp3366
a(S'XL'
p3367
I1
tp3368
a(S'XM'
p3369
I1
tp3370
a(S'month'
p3371
I1
tp3372
a(S'lcrypto'
p3373
I1
tp3374
a(S'part'
p3375
I1
tp3376
a(S'Wrote'
p3377
I1
tp3378
a(S'Xd'
p3379
I1
tp3380
a(S'headers'
p3381
I1
tp3382
a(S'yyin'
p3383
I1
tp3384
a(S'IPADDRESS'
p3385
I1
tp3386
a(S'Xt'
p3387
I1
tp3388
a(S'postdata'
p3389
I1
tp3390
a(S'followtags'
p3391
I1
tp3392
a(S'tBH'
p3393
I1
tp3394
a(S'EXCEEDED'
p3395
I1
tp3396
a(S'paths'
p3397
I1
tp3398
a(S'built'
p3399
I1
tp3400
a(S'dotstyle'
p3401
I1
tp3402
a(S'yyensure'
p3403
I1
tp3404
a(S'Generated'
p3405
I1
tp3406
a(S'startpos'
p3407
I1
tp3408
a(S'RPL'
p3409
I1
tp3410
a(S'components'
p3411
I1
tp3412
a(S'exec'
p3413
I1
tp3414
a(S'Thu'
p3415
I1
tp3416
a(S'quota'
p3417
I1
tp3418
a(S'unused'
p3419
I1
tp3420
a(S'The'
p3421
I1
tp3422
a(S'STORE'
p3423
I1
tp3424
a(S'warcdigests'
p3425
I1
tp3426
a(S'deduplication'
p3427
I1
tp3428
a(S'windows'
p3429
I1
tp3430
a(S'acdec'
p3431
I1
tp3432
a(S'ext'
p3433
I1
tp3434
a(S'rejectedlog'
p3435
I1
tp3436
a(S'caching'
p3437
I1
tp3438
a(S'twHcT'
p3439
I1
tp3440
a(S'tDUSH'
p3441
I1
tp3442
a(S'BE'
p3443
I1
tp3444
a(S'cdm'
p3445
I1
tp3446
a(S'ET'
p3447
I1
tp3448
a(S'Unrecognized'
p3449
I1
tp3450
a(S'LcL'
p3451
I1
tp3452
a(S'cdx'
p3453
I1
tp3454
a(S'ABSOLUTE'
p3455
I1
tp3456
a(S'fputc'
p3457
I1
tp3458
a(S'REALTIME'
p3459
I1
tp3460
a(S'writer'
p3461
I1
tp3462
a(S'GENERAL'
p3463
I1
tp3464
a(S'Lcd'
p3465
I1
tp3466
a(S'Initiating'
p3467
I1
tp3468
a(S'override'
p3469
I1
tp3470
a(S'merged'
p3471
I1
tp3472
a(S'compiled'
p3473
I1
tp3474
a(S'wgetrc'
p3475
I1
tp3476
a(S'zU'
p3477
I1
tp3478
a(S'logfile'
p3479
I1
tp3480
a(S'warcfile'
p3481
I1
tp3482
a(S'resolve'
p3483
I1
tp3484
a(S'zP'
p3485
I1
tp3486
a(S'metalink'
p3487
I1
tp3488
a(S'investigate'
p3489
I1
tp3490
a(S'wCD'
p3491
I1
tp3492
a(S'crl'
p3493
I1
tp3494
a(S'mbtowc'
p3495
I1
tp3496
a(S'locale'
p3497
I1
tp3498
a(S'Removing'
p3499
I1
tp3500
a(S'startup'
p3501
I1
tp3502
a(S'stringprep'
p3503
I1
tp3504
a(S'speed'
p3505
I1
tp3506
a(S'cookies'
p3507
I1
tp3508
a(S'please'
p3509
I1
tp3510
a(S'Unix'
p3511
I1
tp3512
a(S'waitretry'
p3513
I1
tp3514
a(S'probably'
p3515
I1
tp3516
a(S'iAUATI'
p3517
I1
tp3518
a(S'proxyuser'
p3519
I1
tp3520
a(S'Could'
p3521
I1
tp3522
a(S'excludedomains'
p3523
I1
tp3524
a(S'Server'
p3525
I1
tp3526
a(S'STRENGTH'
p3527
I1
tp3528
a(S'AWAVAUATUS'
p3529
I1
tp3530
a(S'both'
p3531
I1
tp3532
a(S'Unexpected'
p3533
I1
tp3534
a(S'mega'
p3535
I1
tp3536
a(S'downloaded'
p3537
I1
tp3538
a(S'foreign'
p3539
I1
tp3540
a(S'pdf'
p3541
I1
tp3542
a(S'protector'
p3543
I1
tp3544
a(S'ANY'
p3545
I1
tp3546
a(S'WARRANTY'
p3547
I1
tp3548
a(S'libcrypto'
p3549
I1
tp3550
a(S'reasons'
p3551
I1
tp3552
a(S'pC'
p3553
I1
tp3554
a(S'pA'
p3555
I1
tp3556
a(S'dnscache'
p3557
I1
tp3558
a(S'pI'
p3559
I1
tp3560
a(S'Authorization'
p3561
I1
tp3562
a(S'Updated'
p3563
I1
tp3564
a(S'stamp'
p3565
I1
tp3566
a(S'create'
p3567
I1
tp3568
a(S'due'
p3569
I1
tp3570
a(S'retr'
p3571
I1
tp3572
a(S'tgH'
p3573
I1
tp3574
a(S'ATLc'
p3575
I1
tp3576
a(S'empty'
p3577
I1
tp3578
a(S'egdfile'
p3579
I1
tp3580
a(S'sending'
p3581
I1
tp3582
a(S'Mail'
p3583
I1
tp3584
a(S'referer'
p3585
I1
tp3586
a(S'tRLc'
p3587
I1
tp3588
a(S'Software'
p3589
I1
tp3590
a(S'handling'
p3591
I1
tp3592
a(S'look'
p3593
I1
tp3594
a(S'Issued'
p3595
I1
tp3596
a(S'vKH'
p3597
I1
tp3598
a(S'httpsonly'
p3599
I1
tp3600
a(S'while'
p3601
I1
tp3602
a(S'replaced'
p3603
I1
tp3604
a(S'tAI'
p3605
I1
tp3606
a(S'loop'
p3607
I1
tp3608
a(S'httppasswd'
p3609
I1
tp3610
a(S'tqA'
p3611
I1
tp3612
a(S'Logged'
p3613
I1
tp3614
a(S'limit'
p3615
I1
tp3616
a(S'warckeeplog'
p3617
I1
tp3618
a(S'AWAV'
p3619
I1
tp3620
a(S'NTLM'
p3621
I1
tp3622
a(S'shorten'
p3623
I1
tp3624
a(S'MANIFEST'
p3625
I1
tp3626
a(S'Address'
p3627
I1
tp3628
a(S'tDHcV'
p3629
I1
tp3630
a(S'Directory'
p3631
I1
tp3632
a(S'used'
p3633
I1
tp3634
a(S'gzwrite'
p3635
I1
tp3636
a(S'Exiting'
p3637
I1
tp3638
a(S'usually'
p3639
I1
tp3640
a(S'MbP'
p3641
I1
tp3642
a(S'Power'
p3643
I1
tp3644
a(S'database'
p3645
I1
tp3646
a(S'iswprint'
p3647
I1
tp3648
a(S'setitimer'
p3649
I1
tp3650
a(S'PrivateKey'
p3651
I1
tp3652
a(S'Payload'
p3653
I1
tp3654
a(S'Unlinking'
p3655
I1
tp3656
a(S'flags'
p3657
I1
tp3658
a(S'entry'
p3659
I1
tp3660
a(S'convertlinks'
p3661
I1
tp3662
a(S'questions'
p3663
I1
tp3664
a(S'credentials'
p3665
I1
tp3666
a(S'newlines'
p3667
I1
tp3668
a(S'fstack'
p3669
I1
tp3670
a(S'cut'
p3671
I1
tp3672
a(S'cur'
p3673
I1
tp3674
a(S'shortcut'
p3675
I1
tp3676
a(S'input'
p3677
I1
tp3678
a(S'remaining'
p3679
I1
tp3680
a(S'Both'
p3681
I1
tp3682
a(S'Last'
p3683
I1
tp3684
a(S'finalize'
p3685
I1
tp3686
a(S'Oe'
p3687
I1
tp3688
a(S'AUATUSHc'
p3689
I1
tp3690
a(S'tCI'
p3691
I1
tp3692
a(S'Ow'
p3693
I1
tp3694
a(S'httpkeepalive'
p3695
I1
tp3696
a(S'rotate'
p3697
I1
tp3698
a(S'strstr'
p3699
I1
tp3700
a(S'manifest'
p3701
I1
tp3702
a(S'ignore'
p3703
I1
tp3704
a(S'continue'
p3705
I1
tp3706
a(S'indication'
p3707
I1
tp3708
a(S'OS'
p3709
I1
tp3710
a(S'Warcinfo'
p3711
I1
tp3712
a(S'DER'
p3713
I1
tp3714
a(S'opiekey'
p3715
I1
tp3716
a(S'back'
p3717
I1
tp3718
a(S'mirror'
p3719
I1
tp3720
a(S'libssl'
p3721
I1
tp3722
a(S'retry'
p3723
I1
tp3724
a(S'AVAUATSLc'
p3725
I1
tp3726
a(S'per'
p3727
I1
tp3728
a(S'prop'
p3729
I1
tp3730
a(S'hsts'
p3731
I1
tp3732
a(S'Disposition'
p3733
I1
tp3734
a(S'chars'
p3735
I1
tp3736
a(S'saveheaders'
p3737
I1
tp3738
a(S'PARENT'
p3739
I1
tp3740
a(S'Resolving'
p3741
I1
tp3742
a(S'step'
p3743
I1
tp3744
a(S'ERROR'
p3745
I1
tp3746
a(S'refuses'
p3747
I1
tp3748
a(S'wget'
p3749
I1
tp3750
a(S'Turtle'
p3751
I1
tp3752
a(S'ruH'
p3753
I1
tp3754
a(S'anything'
p3755
I1
tp3756
a(S'ids'
p3757
I1
tp3758
a(S'idn'
p3759
I1
tp3760
a(S'extensions'
p3761
I1
tp3762
a(S'warccdx'
p3763
I1
tp3764
a(S'into'
p3765
I1
tp3766
a(S'HTTPMethod'
p3767
I1
tp3768
a(S'bibnum'
p3769
I1
tp3770
a(S'pcre'
p3771
I1
tp3772
a(S'span'
p3773
I1
tp3774
a(S'retrieving'
p3775
I1
tp3776
a(S'fgetc'
p3777
I1
tp3778
a(S'User'
p3779
I1
tp3780
a(S'conditional'
p3781
I1
tp3782
a(S'GNU'
p3783
I1
tp3784
a(S'adjusting'
p3785
I1
tp3786
a(S'criteria'
p3787
I1
tp3788
a(S'uQ'
p3789
I1
tp3790
a(S'pwd'
p3791
I1
tp3792
a(S'Resuming'
p3793
I1
tp3794
a(S'CRLs'
p3795
I1
tp3796
a(S'rejection'
p3797
I1
tp3798
a(S'lowsrc'
p3799
I1
tp3800
a(S'uu'
p3801
I1
tp3802
a(S'up'
p3803
I1
tp3804
a(S'preservepermissions'
p3805
I1
tp3806
a(S'ul'
p3807
I1
tp3808
a(S'maxcount'
p3809
I1
tp3810
a(S'ungetc'
p3811
I1
tp3812
a(S'USVH'
p3813
I1
tp3814
a(S'latestdraft'
p3815
I1
tp3816
a(S'fread'
p3817
I1
tp3818
a(S'AUATA'
p3819
I1
tp3820
a(S'char'
p3821
I1
tp3822
a(S'Detected'
p3823
I1
tp3824
a(S'warning'
p3825
I1
tp3826
a(S'Memory'
p3827
I1
tp3828
a(S'cPt'
p3829
I1
tp3830
a(S'respline'
p3831
I1
tp3832
a(S'IcG'
p3833
I1
tp3834
a(S'invalid'
p3835
I1
tp3836
a(S'trustservernames'
p3837
I1
tp3838
a(S'application'
p3839
I1
tp3840
a(S'Proxy'
p3841
I1
tp3842
a(S'appending'
p3843
I1
tp3844
a(S'tempdir'
p3845
I1
tp3846
a(S'pathconf'
p3847
I1
tp3848
a(S'AF'
p3849
I1
tp3850
a(S'uCH'
p3851
I1
tp3852
a(S'AR'
p3853
I1
tp3854
a(S'Output'
p3855
I1
tp3856
a(S'KGS'
p3857
I1
tp3858
a(S'algorithm'
p3859
I1
tp3860
a(S'age'
p3861
I1
tp3862
a(S'required'
p3863
I1
tp3864
a(S'HOST'
p3865
I1
tp3866
a(S'Accept'
p3867
I1
tp3868
a(S'timestamps'
p3869
I1
tp3870
a(S'Skipping'
p3871
I1
tp3872
a(S'depth'
p3873
I1
tp3874
a(S'dot'
p3875
I1
tp3876
a(S'Apparently'
p3877
I1
tp3878
a(S'dotbytes'
p3879
I1
tp3880
a(S'once'
p3881
I1
tp3882
a(S'code'
p3883
I1
tp3884
a(S'issued'
p3885
I1
tp3886
a(S'Encoding'
p3887
I1
tp3888
a(S'PLAINFILE'
p3889
I1
tp3890
a(S'ignorecase'
p3891
I1
tp3892
a(S'edu'
p3893
I1
tp3894
a(S'go'
p3895
I1
tp3896
a(S'unimplemented'
p3897
I1
tp3898
a(S'issuer'
p3899
I1
tp3900
a(S'Non'
p3901
I1
tp3902
a(S'nocontrol'
p3903
I1
tp3904
a(S'excluded'
p3905
I1
tp3906
a(S'Wget'
p3907
I1
tp3908
a(S'fatal'
p3909
I1
tp3910
a(S'showprogress'
p3911
I1
tp3912
a(S'aborting'
p3913
I1
tp3914
a(S'gfffffffH'
p3915
I1
tp3916
a(S'JL'
p3917
I1
tp3918
a(S'redistribute'
p3919
I1
tp3920
a(S'licenses'
p3921
I1
tp3922
a(S'try'
p3923
I1
tp3924
a(S'ONLY'
p3925
I1
tp3926
a(S'Hcs'
p3927
I1
tp3928
a(S'strictcomments'
p3929
I1
tp3930
a(S'memset'
p3931
I1
tp3932
a(S'DTD'
p3933
I1
tp3934
a(S'video'
p3935
I1
tp3936
a(S'NONHTTP'
p3937
I1
tp3938
a(S'download'
p3939
I1
tp3940
a(S'odd'
p3941
I1
tp3942
a(S'compat'
p3943
I1
tp3944
a(S'index'
p3945
I1
tp3946
a(S'HcT'
p3947
I1
tp3948
a(S'opaque'
p3949
I1
tp3950
a(S'dedup'
p3951
I1
tp3952
a(S'HcC'
p3953
I1
tp3954
a(S'HTML'
p3955
I1
tp3956
a(S'Link'
p3957
I1
tp3958
a(S'Emulation'
p3959
I1
tp3960
a(S'HcD'
p3961
I1
tp3962
a(S'HcE'
p3963
I1
tp3964
a(S'HcK'
p3965
I1
tp3966
a(S'munmap'
p3967
I1
tp3968
a(S'HcL'
p3969
I1
tp3970
a(S'body'
p3971
I1
tp3972
a(S'FTP'
p3973
I1
tp3974
a(S'Created'
p3975
I1
tp3976
a(S'Modified'
p3977
I1
tp3978
a(S'mbsinit'
p3979
I1
tp3980
a(S'implicit'
p3981
I1
tp3982
a(S'Lying'
p3983
I1
tp3984
a(S'convert'
p3985
I1
tp3986
a(S'Range'
p3987
I1
tp3988
a(S'leaving'
p3989
I1
tp3990
a(S'cert'
p3991
I1
tp3992
a(S'Download'
p3993
I1
tp3994
a(S'Null'
p3995
I1
tp3996
a(S'honor'
p3997
I1
tp3998
a(S'tqLc'
p3999
I1
tp4000
a(S'danger'
p4001
I1
tp4002
a(S'private'
p4003
I1
tp4004
a(S'boolean'
p4005
I1
tp4006
a(S'Digests'
p4007
I1
tp4008
a(S'symlink'
p4009
I1
tp4010
a(S'stream'
p4011
I1
tp4012
a(S'certificate'
p4013
I1
tp4014
a(S'fputs'
p4015
I1
tp4016
a(S'illegal'
p4017
I1
tp4018
a(S'dcgettext'
p4019
I1
tp4020
a(S'wiH'
p4021
I1
tp4022
a(S'perms'
p4023
I1
tp4024
a(S'duplicate'
p4025
I1
tp4026
a(S'Fd'
p4027
I1
tp4028
a(S'usr'
p4029
I1
tp4030
a(S'Fo'
p4031
I1
tp4032
a(S'src'
p4033
I1
tp4034
a(S'started'
p4035
I1
tp4036
a(S'Done'
p4037
I1
tp4038
a(S'Connection'
p4039
I1
tp4040
a(S'fsetlocking'
p4041
I1
tp4042
a(S'disabling'
p4043
I1
tp4044
a(S'warcmaxsize'
p4045
I1
tp4046
a(S'retries'
p4047
I1
tp4048
a(S'acceptregex'
p4049
I1
tp4050
a(S'challenge'
p4051
I1
tp4052
a(S'getting'
p4053
I1
tp4054
a(S'Syntax'
p4055
I1
tp4056
a(S'chooseconfig'
p4057
I1
tp4058
a(S'closing'
p4059
I1
tp4060
a(S'links'
p4061
I1
tp4062
a(S'allowed'
p4063
I1
tp4064
a(S'Rewriting'
p4065
I1
tp4066
a(S'newdir'
p4067
I1
tp4068
a(S'dm'
p4069
I1
tp4070
a(S'something'
p4071
I1
tp4072
a(S'Scheme'
p4073
I1
tp4074
a(S'gcc'
p4075
I1
tp4076
a(S'dotspacing'
p4077
I1
tp4078
a(S'Ya'
p4079
I1
tp4080
a(S'Wall'
p4081
I1
tp4082
a(S'instead'
p4083
I1
tp4084
a(S'vasprintf'
p4085
I1
tp4086
a(S'noscroll'
p4087
I1
tp4088
a(S'unlimits'
p4089
I1
tp4090
a(S'HTTPS'
p4091
I1
tp4092
a(S'restrictfilenames'
p4093
I1
tp4094
a(S'Wformat'
p4095
I1
tp4096
a(S'CONFIG'
p4097
I1
tp4098
a(S'revalidate'
p4099
I1
tp4100
a(S'subdomains'
p4101
I1
tp4102
a(S'AUATLc'
p4103
I1
tp4104
a(S'GZIP'
p4105
I1
tp4106
a(S'fallback'
p4107
I1
tp4108
a(S'AVAUH'
p4109
I1
tp4110
a(S'lD'
p4111
I1
tp4112
a(S'creation'
p4113
I1
tp4114
a(S'AVAUA'
p4115
I1
tp4116
a(S'WGETRC'
p4117
I1
tp4118
a(S'KMG'
p4119
I1
tp4120
a(S'comma'
p4121
I1
tp4122
a(S'lP'
p4123
I1
tp4124
a(S'tmpprt'
p4125
I1
tp4126
a(S'vms'
p4127
I1
tp4128
a(S'EGD'
p4129
I1
tp4130
a(S'lc'
p4131
I1
tp4132
a(S'setlocale'
p4133
I1
tp4134
a(S'permanent'
p4135
I1
tp4136
a(S'choose'
p4137
I1
tp4138
a(S'lz'
p4139
I1
tp4140
a(S'pending'
p4141
I1
tp4142
a(S'tKHc'
p4143
I1
tp4144
a(S'flex'
p4145
I1
tp4146
a(S'auth'
p4147
I1
tp4148
a(S'YYYY'
p4149
I1
tp4150
a(S'Hosts'
p4151
I1
tp4152
a(S'Can'
p4153
I1
tp4154
a(S'bar'
p4155
I1
tp4156
a(S'day'
p4157
I1
tp4158
a(S'Ignored'
p4159
I1
tp4160
a(S'includedirectories'
p4161
I1
tp4162
a(S'merge'
p4163
I1
tp4164
a(S'Decided'
p4165
I1
tp4166
a(S'Loaded'
p4167
I1
tp4168
a(S'meta'
p4169
I1
tp4170
a(S'retrievals'
p4171
I1
tp4172
a(S'AWAVAUATLc'
p4173
I1
tp4174
a(S'relro'
p4175
I1
tp4176
a(S'rej'
p4177
I1
tp4178
a(S'Empty'
p4179
I1
tp4180
a(S'rel'
p4181
I1
tp4182
a(S'max'
p4183
I1
tp4184
a(S'common'
p4185
I1
tp4186
a(S'Attempt'
p4187
I1
tp4188
a(S'ecb'
p4189
I1
tp4190
a(S'This'
p4191
I1
tp4192
a(S'retrieved'
p4193
I1
tp4194
a(S'reclevel'
p4195
I1
tp4196
a(S'DSYSTEM'
p4197
I1
tp4198
a(S'initialize'
p4199
I1
tp4200
a(S'CSS'
p4201
I1
tp4202
a(S'retriever'
p4203
I1
tp4204
a(S'could'
p4205
I1
tp4206
a(S'NO'
p4207
I1
tp4208
a(S'keep'
p4209
I1
tp4210
a(S'length'
p4211
I1
tp4212
a(S'wrote'
p4213
I1
tp4214
a(S'timed'
p4215
I1
tp4216
a(S'connecttimeout'
p4217
I1
tp4218
a(S'Prot'
p4219
I1
tp4220
a(S'passiveftp'
p4221
I1
tp4222
a(S'unsupported'
p4223
I1
tp4224
a(S'SHcW'
p4225
I1
tp4226
a(S'such'
p4227
I1
tp4228
a(S'redirection'
p4229
I1
tp4230
a(S'unspecified'
p4231
I1
tp4232
a(S'NUL'
p4233
I1
tp4234
a(S'connrefused'
p4235
I1
tp4236
a(S'emacs'
p4237
I1
tp4238
a(S'ASN'
p4239
I1
tp4240
a(S'Kb'
p4241
I1
tp4242
a(S'Bind'
p4243
I1
tp4244
a(S'dcngettext'
p4245
I1
tp4246
a(S'KC'
p4247
I1
tp4248
a(S'KB'
p4249
I1
tp4250
a(S'fscanf'
p4251
I1
tp4252
a(S'conaddr'
p4253
I1
tp4254
a(S'dirprefix'
p4255
I1
tp4256
a(S'ss'
p4257
I1
tp4258
a(S'LOOKUP'
p4259
I1
tp4260
a(S'false'
p4261
I1
tp4262
a(S'COMPLETE'
p4263
I1
tp4264
a(S'HSTS'
p4265
I1
tp4266
a(S'unchanged'
p4267
I1
tp4268
a(S'checksums'
p4269
I1
tp4270
a(S'PATH'
p4271
I1
tp4272
a(S'bindtextdomain'
p4273
I1
tp4274
a(S'linked'
p4275
I1
tp4276
a(S'complete'
p4277
I1
tp4278
a(S'BIO'
p4279
I1
tp4280
a(S'documents'
p4281
I1
tp4282
a(S'mil'
p4283
I1
tp4284
a(S'fseek'
p4285
I1
tp4286
a(S'message'
p4287
I1
tp4288
a(S'builtin'
p4289
I1
tp4290
a(S'ZYxG'
p4291
I1
tp4292
a(S'which'
p4293
I1
tp4294
a(S'unless'
p4295
I1
tp4296
a(S'relativeonly'
p4297
I1
tp4298
a(S'includeSubDomains'
p4299
I1
tp4300
a(S'expires'
p4301
I1
tp4302
a(S'cipher'
p4303
I1
tp4304
a(S'expired'
p4305
I1
tp4306
a(S'WARC'
p4307
I1
tp4308
a(S'url'
p4309
I1
tp4310
a(S'urn'
p4311
I1
tp4312
a(S'request'
p4313
I1
tp4314
a(S'uri'
p4315
I1
tp4316
a(S'SECONDS'
p4317
I1
tp4318
a(S'normally'
p4319
I1
tp4320
a(S'GtfH'
p4321
I1
tp4322
a(S'supported'
p4323
I1
tp4324
a(S'MUST'
p4325
I1
tp4326
a(S'based'
p4327
I1
tp4328
a(S'secureprotocol'
p4329
I1
tp4330
a(S'strtok'
p4331
I1
tp4332
a(S'cache'
p4333
I1
tp4334
a(S'Update'
p4335
I1
tp4336
a(S'GPL'
p4337
I1
tp4338
a(S'LIBIDN'
p4339
I1
tp4340
a(S'ROBOTS'
p4341
I1
tp4342
a(S'Keep'
p4343
I1
tp4344
a(S'ones'
p4345
I1
tp4346
a(S'cached'
p4347
I1
tp4348
a(S'differential'
p4349
I1
tp4350
a(S'NID'
p4351
I1
tp4352
a(S'sha'
p4353
I1
tp4354
a(S'contain'
p4355
I1
tp4356
a(S'an'
p4357
I1
tp4358
a(S'nl'
p4359
I1
tp4360
a(S'See'
p4361
I1
tp4362
a(S'www'
p4363
I1
tp4364
a(S'preserve'
p4365
I1
tp4366
a(S'Recursive'
p4367
I1
tp4368
a(S'exists'
p4369
I1
tp4370
a(S'RATE'
p4371
I1
tp4372
a(S'convertfileonly'
p4373
I1
tp4374
a(S'PR'
p4375
I1
tp4376
a(S'record'
p4377
I1
tp4378
a(S'PY'
p4379
I1
tp4380
a(S'Final'
p4381
I1
tp4382
a(S'written'
p4383
I1
tp4384
a(S'hI'
p4385
I1
tp4386
a(S'progress'
p4387
I1
tp4388
a(S'PN'
p4389
I1
tp4390
a(S'SUCCESS'
p4391
I1
tp4392
a(S'PL'
p4393
I1
tp4394
a(S'PM'
p4395
I1
tp4396
a(S'converting'
p4397
I1
tp4398
a(S'opening'
p4399
I1
tp4400
a(S'rules'
p4401
I1
tp4402
a(S'key'
p4403
I1
tp4404
a(S'disallow'
p4405
I1
tp4406
a(S'etc'
p4407
I1
tp4408
a(S'eta'
p4409
I1
tp4410
a(S'strftime'
p4411
I1
tp4412
a(S'sslv'
p4413
I1
tp4414
a(S'extent'
p4415
I1
tp4416
a(S'wall'
p4417
I1
tp4418
a(S'NTLMSSP'
p4419
I1
tp4420
a(S'cxa'
p4421
I1
tp4422
a(S'cw'
p4423
I1
tp4424
a(S'orif'
p4425
I1
tp4426
a(S'orig'
p4427
I1
tp4428
a(S'Timestamp'
p4429
I1
tp4430
a(S'lidn'
p4431
I1
tp4432
a(S'SECS'
p4433
I1
tp4434
a(S'lu'
p4435
I1
tp4436
a(S'treat'
p4437
I1
tp4438
a(S'vsnprintf'
p4439
I1
tp4440
a(S'PSK'
p4441
I1
tp4442
a(S'PARAMS'
p4443
I1
tp4444
a(S'RC'
p4445
I1
tp4446
a(S'Compile'
p4447
I1
tp4448
a(S'RL'
p4449
I1
tp4450
a(S'DIRECTORY'
p4451
I1
tp4452
a(S'USH'
p4453
I1
tp4454
a(S'will'
p4455
I1
tp4456
a(S'lx'
p4457
I1
tp4458
a(S'CDX'
p4459
I1
tp4460
a(S'uqH'
p4461
I1
tp4462
a(S'layer'
p4463
I1
tp4464
a(S'STDOUT'
p4465
I1
tp4466
a(S'vj'
p4467
I1
tp4468
a(S'alive'
p4469
I1
tp4470
a(S'Strict'
p4471
I1
tp4472
a(S'Init'
p4473
I1
tp4474
a(S'against'
p4475
I1
tp4476
a(S'You'
p4477
I1
tp4478
a(S'avg'
p4479
I1
tp4480
a(S'LIBSSL'
p4481
I1
tp4482
a(S'vA'
p4483
I1
tp4484
a(S'Niksic'
p4485
I1
tp4486
a(S'langinfo'
p4487
I1
tp4488
a(S'uflow'
p4489
I1
tp4490
a(S'vS'
p4491
I1
tp4492
a(S'incl'
p4493
I1
tp4494
a(S'optarg'
p4495
I1
tp4496
a(S'unparse'
p4497
I1
tp4498
a(S'AUTH'
p4499
I1
tp4500
a(S'infinite'
p4501
I1
tp4502
a(S'Deleting'
p4503
I1
tp4504
a(S'requests'
p4505
I1
tp4506
a(S'identity'
p4507
I1
tp4508
a(S'transaction'
p4509
I1
tp4510
a(S'position'
p4511
I1
tp4512
a(S'Total'
p4513
I1
tp4514
a(S'CHARSETALIASDIR'
p4515
I1
tp4516
a(S'localencoding'
p4517
I1
tp4518
a(S'preferfamily'
p4519
I1
tp4520
a(S'less'
p4521
I1
tp4522
a(S'BL'
p4523
I1
tp4524
a(S'keepsessioncookies'
p4525
I1
tp4526
a(S'stored'
p4527
I1
tp4528
a(S'BP'
p4529
I1
tp4530
a(S'Us'
p4531
I1
tp4532
a(S'Bn'
p4533
I1
tp4534
a(S'point'
p4535
I1
tp4536
a(S'argstring'
p4537
I1
tp4538
a(S'Bs'
p4539
I1
tp4540
a(S'LPRT'
p4541
I1
tp4542
a(S'tcA'
p4543
I1
tp4544
a(S'identical'
p4545
I1
tp4546
a(S'ctrl'
p4547
I1
tp4548
a(S'iswcntrl'
p4549
I1
tp4550
a(S'INVALID'
p4551
I1
tp4552
a(S'XAW'
p4553
I1
tp4554
a(S'know'
p4555
I1
tp4556
a(S'resolves'
p4557
I1
tp4558
a(S'you'
p4559
I1
tp4560
a(S'contentdisposition'
p4561
I1
tp4562
a(S'insert'
p4563
I1
tp4564
a(S'like'
p4565
I1
tp4566
a(S'sizes'
p4567
I1
tp4568
a(S'luuid'
p4569
I1
tp4570
a(S'hosts'
p4571
I1
tp4572
a(S'Converting'
p4573
I1
tp4574
a(S'page'
p4575
I1
tp4576
a(S'parity'
p4577
I1
tp4578
a(S'because'
p4579
I1
tp4580
a(S'sequence'
p4581
I1
tp4582
a(S'pE'
p4583
I1
tp4584
a(S'library'
p4585
I1
tp4586
a(S'FTPS'
p4587
I1
tp4588
a(S'choosing'
p4589
I1
tp4590
a(S'proper'
p4591
I1
tp4592
a(S'tlsv'
p4593
I1
tp4594
a(S'kdH'
p4595
I1
tp4596
a(S'overlay'
p4597
I1
tp4598
a(S'octet'
p4599
I1
tp4600
a(S'pL'
p4601
I1
tp4602
a(S'assuming'
p4603
I1
tp4604
a(S'robots'
p4605
I1
tp4606
a(S'expiry'
p4607
I1
tp4608
a(S'Um'
p4609
I1
tp4610
a(S'np'
p4611
I1
tp4612
a(S'bundle'
p4613
I1
tp4614
a(S'Scanning'
p4615
I1
tp4616
a(S'extension'
p4617
I1
tp4618
a(S'UZ'
p4619
I1
tp4620
a(S'column'
p4621
I1
tp4622
a(S'lxstat'
p4623
I1
tp4624
a(S'UA'
p4625
I1
tp4626
a(S'software'
p4627
I1
tp4628
a(S'urlpos'
p4629
I1
tp4630
a(S'own'
p4631
I1
tp4632
a(S'OPTION'
p4633
I1
tp4634
a(S'ERR'
p4635
I1
tp4636
a(S'OPENSSL'
p4637
I1
tp4638
a(S'Redirection'
p4639
I1
tp4640
a(S'backups'
p4641
I1
tp4642
a(S'tFH'
p4643
I1
tp4644
a(S'additional'
p4645
I1
tp4646
a(S'SCHEME'
p4647
I1
tp4648
a(S'hr'
p4649
I1
tp4650
a(S'OCTET'
p4651
I1
tp4652
a(S'but'
p4653
I1
tp4654
a(S'hk'
p4655
I1
tp4656
a(S'overflow'
p4657
I1
tp4658
a(S'hf'
p4659
I1
tp4660
a(S'bug'
p4661
I1
tp4662
a(S'partially'
p4663
I1
tp4664
a(S'count'
p4665
I1
tp4666
a(S'whether'
p4667
I1
tp4668
a(S'localeconv'
p4669
I1
tp4670
a(S'sess'
p4671
I1
tp4672
a(S'contentonerror'
p4673
I1
tp4674
a(S'Alive'
p4675
I1
tp4676
a(S'placed'
p4677
I1
tp4678
a(S'forcehtml'
p4679
I1
tp4680
a(S'strspn'
p4681
I1
tp4682
a(S'hL'
p4683
I1
tp4684
a(S'problem'
p4685
I1
tp4686
a(S'hA'
p4687
I1
tp4688
a(S'display'
p4689
I1
tp4690
a(S'hD'
p4691
I1
tp4692
a(S'successfully'
p4693
I1
tp4694
a(S'strndup'
p4695
I1
tp4696
a(S'int'
p4697
I1
tp4698
a(S'pid'
p4699
I1
tp4700
a(S'pie'
p4701
I1
tp4702
a(S'ADequeuing'
p4703
I1
tp4704
a(S'inf'
p4705
I1
tp4706
a(S'trailing'
p4707
I1
tp4708
a(S'naming'
p4709
I1
tp4710
a(S'authority'
p4711
I1
tp4712
a(S'httpsproxy'
p4713
I1
tp4714
a(S'functions'
p4715
I1
tp4716
a(S'RULES'
p4717
I1
tp4718
a(S'Wgetrc'
p4719
I1
tp4720
a(S'other'
p4721
I1
tp4722
a(S'lookup'
p4723
I1
tp4724
a(S'details'
p4725
I1
tp4726
a(S'CB'
p4727
I1
tp4728
a(S'AQM'
p4729
I1
tp4730
a(S'getopt'
p4731
I1
tp4732
a(S'regerror'
p4733
I1
tp4734
a(S'libgnu'
p4735
I1
tp4736
a(S'readlink'
p4737
I1
tp4738
a(S'URLs'
p4739
I1
tp4740
a(S'needed'
p4741
I1
tp4742
a(S'remoteencoding'
p4743
I1
tp4744
a(S'persistent'
p4745
I1
tp4746
a(S'rule'
p4747
I1
tp4748
a(S'original'
p4749
I1
tp4750
a(S'ubH'
p4751
I1
tp4752
a.