(lp0
(S'NOT'
p1
I3
tp2
a(S'AUATUS'
p3
I3
tp4
a(S'Lc'
p5
I3
tp6
a(S'LH'
p7
I3
tp8
a(S'timeout'
p9
I3
tp10
a(S'debug'
p11
I3
tp12
a(S'ro'
p13
I3
tp14
a(S'fail'
p15
I3
tp16
a(S'and'
p17
I3
tp18
a(S'ATUS'
p19
I3
tp20
a(S'ATUA'
p21
I3
tp22
a(S'ATUH'
p23
I3
tp24
a(S'ATUI'
p25
I3
tp26
a(S'has'
p27
I3
tp28
a(S'for'
p29
I3
tp30
a(S'time'
p31
I3
tp32
a(S'Failed'
p33
I3
tp34
a(S'shstrtab'
p35
I3
tp36
a(S'AUATA'
p37
I3
tp38
a(S'AUATE'
p39
I3
tp40
a(S'AUATH'
p41
I3
tp42
a(S'AUATI'
p43
I3
tp44
a(S'AUATL'
p45
I3
tp46
a(S'data'
p47
I3
tp48
a(S'stdin'
p49
I3
tp50
a(S'so'
p51
I3
tp52
a(S'retrieve'
p53
I3
tp54
a(S'one'
p55
I3
tp56
a(S'open'
p57
I3
tp58
a(S'note'
p59
I3
tp60
a(S'xml'
p61
I3
tp62
a(S'deregisterTMCloneTable'
p63
I3
tp64
a(S'char'
p65
I3
tp66
a(S'libc'
p67
I3
tp68
a(S'basic'
p69
I3
tp70
a(S'exit'
p71
I3
tp72
a(S'No'
p73
I3
tp74
a(S'complete'
p75
I3
tp76
a(S'with'
p77
I3
tp78
a(S'as'
p79
I3
tp80
a(S'to'
p81
I3
tp82
a(S'hash'
p83
I3
tp84
a(S'more'
p85
I3
tp86
a(S'AWAVAUATUSH'
p87
I3
tp88
a(S'URL'
p89
I3
tp90
a(S'found'
p91
I3
tp92
a(S'dynstr'
p93
I3
tp94
a(S'number'
p95
I3
tp96
a(S'Ic'
p97
I3
tp98
a(S'session'
p99
I3
tp100
a(S'AWAVAUATUS'
p101
I3
tp102
a(S'last'
p103
I3
tp104
a(S'error'
p105
I3
tp106
a(S'real'
p107
I3
tp108
a(S'AWAV'
p109
I3
tp110
a(S'stack'
p111
I3
tp112
a(S'location'
p113
I3
tp114
a(S'input'
p115
I3
tp116
a(S'be'
p117
I3
tp118
a(S'jcr'
p119
I3
tp120
a(S'code'
p121
I3
tp122
a(S'AVAUATUSH'
p123
I3
tp124
a(S'index'
p125
I3
tp126
a(S'HcT'
p127
I3
tp128
a(S'HcD'
p129
I3
tp130
a(S'HcL'
p131
I3
tp132
a(S'next'
p133
I3
tp134
a(S'this'
p135
I3
tp136
a(S'AVAUI'
p137
I3
tp138
a(S'initialize'
p139
I3
tp140
a(S'ITM'
p141
I3
tp142
a(S'Error'
p143
I3
tp144
a(S'memcpy'
p145
I3
tp146
a(S'frame'
p147
I3
tp148
a(S'PH'
p149
I3
tp150
a(S'PI'
p151
I3
tp152
a(S'PL'
p153
I3
tp154
a(S'does'
p155
I3
tp156
a(S'count'
p157
I3
tp158
a(S'int'
p159
I3
tp160
a(S'Type'
p161
I3
tp162
a(S'created'
p163
I3
tp164
a(S'do'
p165
I3
tp166
a(S'dH'
p167
I3
tp168
a(S'unable'
p169
I3
tp170
a(S'gnu'
p171
I3
tp172
a(S'the'
p173
I3
tp174
a(S'plt'
p175
I3
tp176
a(S'xu'
p177
I3
tp178
a(S'entries'
p179
I3
tp180
a(S'abort'
p181
I3
tp182
a(S'not'
p183
I3
tp184
a(S'eh'
p185
I3
tp186
a(S'message'
p187
I3
tp188
a(S'xH'
p189
I3
tp190
a(S'xI'
p191
I3
tp192
a(S'that'
p193
I3
tp194
a(S'than'
p195
I3
tp196
a(S'AWAVA'
p197
I3
tp198
a(S'AWAVM'
p199
I3
tp200
a(S'AWAVH'
p201
I3
tp202
a(S'AWAVI'
p203
I3
tp204
a(S'PA'
p205
I3
tp206
a(S'XdH'
p207
I3
tp208
a(S'stdout'
p209
I3
tp210
a(S'RegisterClasses'
p211
I3
tp212
a(S'strcmp'
p213
I3
tp214
a(S'start'
p215
I3
tp216
a(S'trying'
p217
I3
tp218
a(S'default'
p219
I3
tp220
a(S'valid'
p221
I3
tp222
a(S'Unknown'
p223
I3
tp224
a(S'contains'
p225
I3
tp226
a(S'reject'
p227
I3
tp228
a(S'fd'
p229
I3
tp230
a(S'help'
p231
I3
tp232
a(S'gmon'
p233
I3
tp234
a(S'base'
p235
I3
tp236
a(S'AVAUATUI'
p237
I3
tp238
a(S'AVAUATUH'
p239
I3
tp240
a(S'null'
p241
I3
tp242
a(S'lib'
p243
I3
tp244
a(S'clear'
p245
I3
tp246
a(S'missing'
p247
I3
tp248
a(S'linux'
p249
I3
tp250
a(S'while'
p251
I3
tp252
a(S'malloc'
p253
I3
tp254
a(S'used'
p255
I3
tp256
a(S'insert'
p257
I3
tp258
a(S'application'
p259
I3
tp260
a(S'GLIBC'
p261
I3
tp262
a(S'download'
p263
I3
tp264
a(S'allowed'
p265
I3
tp266
a(S'Usage'
p267
I3
tp268
a(S'are'
p269
I3
tp270
a(S'url'
p271
I3
tp272
a(S'hH'
p273
I3
tp274
a(S'hI'
p275
I3
tp276
a(S'hL'
p277
I3
tp278
a(S'display'
p279
I3
tp280
a(S'dynamic'
p281
I3
tp282
a(S'new'
p283
I3
tp284
a(S'type'
p285
I3
tp286
a(S'memcmp'
p287
I3
tp288
a(S'AUATUSH'
p289
I3
tp290
a(S'bad'
p291
I3
tp292
a(S'filename'
p293
I3
tp294
a(S'is'
p295
I3
tp296
a(S'it'
p297
I3
tp298
a(S'in'
p299
I3
tp300
a(S'id'
p301
I3
tp302
a(S'interp'
p303
I3
tp304
a(S'string'
p305
I3
tp306
a(S'did'
p307
I3
tp308
a(S'dir'
p309
I3
tp310
a(S'max'
p311
I3
tp312
a(S'main'
p313
I3
tp314
a(S'org'
p315
I3
tp316
a(S'Already'
p317
I3
tp318
a(S'first'
p319
I3
tp320
a(S'DH'
p321
I3
tp322
a(S'get'
p323
I3
tp324
a(S'parent'
p325
I3
tp326
a(S'hdH'
p327
I3
tp328
a(S'hdr'
p329
I3
tp330
a(S'arguments'
p331
I3
tp332
a(S'specified'
p333
I3
tp334
a(S'matching'
p335
I3
tp336
a(S'file'
p337
I3
tp338
a(S'field'
p339
I3
tp340
a(S'strlen'
p341
I3
tp342
a(S'ED'
p343
I3
tp344
a(S'XH'
p345
I3
tp346
a(S'XL'
p347
I3
tp348
a(S'build'
p349
I3
tp350
a(S'fini'
p351
I3
tp352
a(S'find'
p353
I3
tp354
a(S'remove'
p355
I3
tp356
a(S'Unexpected'
p357
I3
tp358
a(S'create'
p359
I3
tp360
a(S'entry'
p361
I3
tp362
a(S'errno'
p363
I3
tp364
a(S'private'
p365
I3
tp366
a(S'chk'
p367
I3
tp368
a(S'ABI'
p369
I3
tp370
a(S'ld'
p371
I3
tp372
a(S'rel'
p373
I3
tp374
a(S'HdH'
p375
I3
tp376
a(S'have'
p377
I3
tp378
a(S'text'
p379
I3
tp380
a(S'xdH'
p381
I3
tp382
a(S'value'
p383
I3
tp384
a(S'dynsym'
p385
I3
tp386
a(S'add'
p387
I3
tp388
a(S'match'
p389
I3
tp390
a(S'AWAVAUATI'
p391
I3
tp392
a(S'AWAVAUATE'
p393
I3
tp394
a(S'path'
p395
I3
tp396
a(S'AWAVAUATA'
p397
I3
tp398
a(S'It'
p399
I3
tp400
a(S'must'
p401
I3
tp402
a(S'end'
p403
I3
tp404
a(S'description'
p405
I3
tp406
a(S'got'
p407
I3
tp408
a(S'free'
p409
I3
tp410
a(S'already'
p411
I3
tp412
a(S'too'
p413
I3
tp414
a(S'bss'
p415
I3
tp416
a(S'random'
p417
I3
tp418
a(S'HH'
p419
I3
tp420
a(S'HL'
p421
I3
tp422
a(S'Hc'
p423
I3
tp424
a(S'rela'
p425
I3
tp426
a(S'no'
p427
I3
tp428
a(S'none'
p429
I3
tp430
a(S'port'
p431
I3
tp432
a(S'memory'
p433
I3
tp434
a(S'stream'
p435
I3
tp436
a(S'USHc'
p437
I3
tp438
a(S'FILE'
p439
I3
tp440
a(S'Received'
p441
I3
tp442
a(S'name'
p443
I3
tp444
a(S'rodata'
p445
I3
tp446
a(S'array'
p447
I3
tp448
a(S'state'
p449
I3
tp450
a(S'dyn'
p451
I3
tp452
a(S'html'
p453
I3
tp454
a(S'status'
p455
I3
tp456
a(S'IO'
p457
I3
tp458
a(S'ID'
p459
I3
tp460
a(S'without'
p461
I3
tp462
a(S'ATUSH'
p463
I3
tp464
a(S'on'
p465
I3
tp466
a(S'of'
p467
I3
tp468
a(S'or'
p469
I3
tp470
a(S'there'
p471
I3
tp472
a(S'directory'
p473
I3
tp474
a(S'init'
p475
I3
tp476
a(S'list'
p477
I3
tp478
a(S'will'
p479
I3
tp480
a(S'version'
p481
I3
tp482
a(S'Cannot'
p483
I3
tp484
a(S'AUAT'
p485
I3
tp486
a(S'store'
p487
I3
tp488
a(S'Jv'
p489
I3
tp490
a(S'registerTMCloneTable'
p491
I3
tp492
a(S'pA'
p493
I3
tp494
a(S'pE'
p495
I3
tp496
a(S'pH'
p497
I3
tp498
a(S'pI'
p499
I3
tp500
a(S'pL'
p501
I3
tp502
a(S'Invalid'
p503
I3
tp504
a(S'memset'
p505
I3
tp506
a(S'from'
p507
I3
tp508
a(S'tag'
p509
I3
tp510
a(S'Can'
p511
I3
tp512
a(S'local'
p513
I3
tp514
a(S'table'
p515
I3
tp516
a(S'rename'
p517
I3
tp518
a(S'sequence'
p519
I3
tp520
a(S'prefix'
p521
I2
tp522
a(S'errors'
p523
I2
tp524
a(S'debuglink'
p525
I2
tp526
a(S'txt'
p527
I2
tp528
a(S'AUATUH'
p529
I2
tp530
a(S'locked'
p531
I2
tp532
a(S'fdelt'
p533
I2
tp534
a(S'machine'
p535
I2
tp536
a(S'types'
p537
I2
tp538
a(S'restriction'
p539
I2
tp540
a(S'passwords'
p541
I2
tp542
a(S're'
p543
I2
tp544
a(S'xt'
p545
I2
tp546
a(S'Please'
p547
I2
tp548
a(S'needed'
p549
I2
tp550
a(S'listen'
p551
I2
tp552
a(S'VUUU'
p553
I2
tp554
a(S'object'
p555
I2
tp556
a(S'perror'
p557
I2
tp558
a(S'release'
p559
I2
tp560
a(S'mandatory'
p561
I2
tp562
a(S'result'
p563
I2
tp564
a(S'preserve'
p565
I2
tp566
a(S'PSK'
p567
I2
tp568
a(S'SRP'
p569
I2
tp570
a(S'child'
p571
I2
tp572
a(S'ATUE'
p573
I2
tp574
a(S'ATUL'
p575
I2
tp576
a(S'AUATSH'
p577
I2
tp578
a(S'CONF'
p579
I2
tp580
a(S'handshake'
p581
I2
tp582
a(S'Length'
p583
I2
tp584
a(S'old'
p585
I2
tp586
a(S'support'
p587
I2
tp588
a(S'exist'
p589
I2
tp590
a(S'successful'
p591
I2
tp592
a(S'Mc'
p593
I2
tp594
a(S'address'
p595
I2
tp596
a(S'MD'
p597
I2
tp598
a(S'strdup'
p599
I2
tp600
a(S'following'
p601
I2
tp602
a(S'sysconf'
p603
I2
tp604
a(S'strncat'
p605
I2
tp606
a(S'ioctl'
p607
I2
tp608
a(S'date'
p609
I2
tp610
a(S'ss'
p611
I2
tp612
a(S'sk'
p613
I2
tp614
a(S'matches'
p615
I2
tp616
a(S'ATE'
p617
I2
tp618
a(S'ATU'
p619
I2
tp620
a(S'bits'
p621
I2
tp622
a(S'locations'
p623
I2
tp624
a(S'Getting'
p625
I2
tp626
a(S'buffer'
p627
I2
tp628
a(S'compress'
p629
I2
tp630
a(S'Handshake'
p631
I2
tp632
a(S'going'
p633
I2
tp634
a(S'nonce'
p635
I2
tp636
a(S'where'
p637
I2
tp638
a(S'WWW'
p639
I2
tp640
a(S'many'
p641
I2
tp642
a(S'enable'
p643
I2
tp644
a(S'ctrl'
p645
I2
tp646
a(S'binary'
p647
I2
tp648
a(S'verified'
p649
I2
tp650
a(S'hostname'
p651
I2
tp652
a(S'UTF'
p653
I2
tp654
a(S'allocation'
p655
I2
tp656
a(S'being'
p657
I2
tp658
a(S'pos'
p659
I2
tp660
a(S'memmove'
p661
I2
tp662
a(S'Empty'
p663
I2
tp664
a(S'NO'
p665
I2
tp666
a(S'NG'
p667
I2
tp668
a(S'NS'
p669
I2
tp670
a(S'ad'
p671
I2
tp672
a(S'an'
p673
I2
tp674
a(S'at'
p675
I2
tp676
a(S'Read'
p677
I2
tp678
a(S'Password'
p679
I2
tp680
a(S'original'
p681
I2
tp682
a(S'consider'
p683
I2
tp684
a(S'Unable'
p685
I2
tp686
a(S'tH'
p687
I2
tp688
a(S'tD'
p689
I2
tp690
a(S'tE'
p691
I2
tp692
a(S'tC'
p693
I2
tp694
a(S'returned'
p695
I2
tp696
a(S'ASCII'
p697
I2
tp698
a(S'clock'
p699
I2
tp700
a(S'method'
p701
I2
tp702
a(S'full'
p703
I2
tp704
a(S'action'
p705
I2
tp706
a(S'verbose'
p707
I2
tp708
a(S'select'
p709
I2
tp710
a(S'Content'
p711
I2
tp712
a(S'prompt'
p713
I2
tp714
a(S'scan'
p715
I2
tp716
a(S'suggestions'
p717
I2
tp718
a(S'accept'
p719
I2
tp720
a(S'RSA'
p721
I2
tp722
a(S'always'
p723
I2
tp724
a(S'Setting'
p725
I2
tp726
a(S'really'
p727
I2
tp728
a(S'ftp'
p729
I2
tp730
a(S'IP'
p731
I2
tp732
a(S'IS'
p733
I2
tp734
a(S'SHA'
p735
I2
tp736
a(S'POST'
p737
I2
tp738
a(S'KEY'
p739
I2
tp740
a(S'internal'
p741
I2
tp742
a(S'fputc'
p743
I2
tp744
a(S'writer'
p745
I2
tp746
a(S'failed'
p747
I2
tp748
a(S'HTML'
p749
I2
tp750
a(S'bytes'
p751
I2
tp752
a(S'crl'
p753
I2
tp754
a(S'set'
p755
I2
tp756
a(S'subject'
p757
I2
tp758
a(S'Server'
p759
I2
tp760
a(S'connection'
p761
I2
tp762
a(S'construct'
p763
I2
tp764
a(S'format'
p765
I2
tp766
a(S'DER'
p767
I2
tp768
a(S'DES'
p769
I2
tp770
a(S'libssl'
p771
I2
tp772
a(S'by'
p773
I2
tp774
a(S'anything'
p775
I2
tp776
a(S'into'
p777
I2
tp778
a(S'User'
p779
I2
tp780
a(S'link'
p781
I2
tp782
a(S'don'
p783
I2
tp784
a(S'line'
p785
I2
tp786
a(S'up'
p787
I2
tp788
a(S'ul'
p789
I2
tp790
a(S'Memory'
p791
I2
tp792
a(S'invalid'
p793
I2
tp794
a(S'algorithm'
p795
I2
tp796
a(S'age'
p797
I2
tp798
a(S'existing'
p799
I2
tp800
a(S'send'
p801
I2
tp802
a(S'sent'
p803
I2
tp804
a(S'try'
p805
I2
tp806
a(S'Hcs'
p807
I2
tp808
a(S'Hct'
p809
I2
tp810
a(S'HcC'
p811
I2
tp812
a(S'receive'
p813
I2
tp814
a(S'OFFSET'
p815
I2
tp816
a(S'certificate'
p817
I2
tp818
a(S'illegal'
p819
I2
tp820
a(S'challenge'
p821
I2
tp822
a(S'lock'
p823
I2
tp824
a(S'fprintf'
p825
I2
tp826
a(S'AVAUH'
p827
I2
tp828
a(S'AVAUA'
p829
I2
tp830
a(S'comma'
p831
I2
tp832
a(S'Trying'
p833
I2
tp834
a(S'could'
p835
I2
tp836
a(S'length'
p837
I2
tp838
a(S'system'
p839
I2
tp840
a(S'LOOKUP'
p841
I2
tp842
a(S'getsockname'
p843
I2
tp844
a(S'BIO'
p845
I2
tp846
a(S'cipher'
p847
I2
tp848
a(S'device'
p849
I2
tp850
a(S'Update'
p851
I2
tp852
a(S'should'
p853
I2
tp854
a(S'handle'
p855
I2
tp856
a(S'lH'
p857
I2
tp858
a(S'WARNING'
p859
I2
tp860
a(S'PD'
p861
I2
tp862
a(S'PE'
p863
I2
tp864
a(S'PN'
p865
I2
tp866
a(S'ca'
p867
I2
tp868
a(S'Init'
p869
I2
tp870
a(S'identity'
p871
I2
tp872
a(S'off'
p873
I2
tp874
a(S'command'
p875
I2
tp876
a(S'less'
p877
I2
tp878
a(S'Filename'
p879
I2
tp880
a(S'password'
p881
I2
tp882
a(S'Warning'
p883
I2
tp884
a(S'function'
p885
I2
tp886
a(S'getenv'
p887
I2
tp888
a(S'sess'
p889
I2
tp890
a(S'placed'
p891
I2
tp892
a(S'problem'
p893
I2
tp894
a(S'sscanf'
p895
I2
tp896
a(S'lookup'
p897
I2
tp898
a(S'details'
p899
I2
tp900
a(S'PRNG'
p901
I2
tp902
a(S'ENTRY'
p903
I2
tp904
a(S'cmp'
p905
I2
tp906
a(S'CTX'
p907
I2
tp908
a(S'total'
p909
I2
tp910
a(S'separated'
p911
I2
tp912
a(S'verify'
p913
I2
tp914
a(S'OpenSSL'
p915
I2
tp916
a(S'after'
p917
I2
tp918
a(S'make'
p919
I2
tp920
a(S'they'
p921
I2
tp922
a(S'standard'
p923
I2
tp924
a(S'rejected'
p925
I2
tp926
a(S'Set'
p927
I2
tp928
a(S'target'
p929
I2
tp930
a(S'See'
p931
I2
tp932
a(S'contents'
p933
I2
tp934
a(S'ENGINE'
p935
I2
tp936
a(S'dh'
p937
I2
tp938
a(S'ds'
p939
I2
tp940
a(S'strncmp'
p941
I2
tp942
a(S'setsockopt'
p943
I2
tp944
a(S'requests'
p945
I2
tp946
a(S'character'
p947
I2
tp948
a(S'engines'
p949
I2
tp950
a(S'client'
p951
I2
tp952
a(S'CRYPTO'
p953
I2
tp954
a(S'security'
p955
I2
tp956
a(S'peek'
p957
I2
tp958
a(S'gmtime'
p959
I2
tp960
a(S'peer'
p961
I2
tp962
a(S'post'
p963
I2
tp964
a(S'obj'
p965
I2
tp966
a(S'www'
p967
I2
tp968
a(S'compression'
p969
I2
tp970
a(S'was'
p971
I2
tp972
a(S'maximum'
p973
I2
tp974
a(S'encrypt'
p975
I2
tp976
a(S'test'
p977
I2
tp978
a(S'update'
p979
I2
tp980
a(S'modules'
p981
I2
tp982
a(S'together'
p983
I2
tp984
a(S'shared'
p985
I2
tp986
a(S'tEH'
p987
I2
tp988
a(S'appears'
p989
I2
tp990
a(S'usually'
p991
I2
tp992
a(S'https'
p993
I2
tp994
a(S'ctype'
p995
I2
tp996
a(S'can'
p997
I2
tp998
a(S'ERR'
p999
I2
tp1000
a(S'attribute'
p1001
I2
tp1002
a(S'write'
p1003
I2
tp1004
a(S'RC'
p1005
I2
tp1006
a(S'domain'
p1007
I2
tp1008
a(S'ec'
p1009
I2
tp1010
a(S'ex'
p1011
I2
tp1012
a(S'args'
p1013
I2
tp1014
a(S'There'
p1015
I2
tp1016
a(S'size'
p1017
I2
tp1018
a(S'xL'
p1019
I2
tp1020
a(S'xM'
p1021
I2
tp1022
a(S'xD'
p1023
I2
tp1024
a(S'xE'
p1025
I2
tp1026
a(S'AWAVE'
p1027
I2
tp1028
a(S'recover'
p1029
I2
tp1030
a(S'begin'
p1031
I2
tp1032
a(S'egd'
p1033
I2
tp1034
a(S'title'
p1035
I2
tp1036
a(S'only'
p1037
I2
tp1038
a(S'cannot'
p1039
I2
tp1040
a(S'between'
p1041
I2
tp1042
a(S'import'
p1043
I2
tp1044
a(S'PEM'
p1045
I2
tp1046
a(S'external'
p1047
I2
tp1048
a(S'TYPE'
p1049
I2
tp1050
a(S'validate'
p1051
I2
tp1052
a(S'speed'
p1053
I2
tp1054
a(S'read'
p1055
I2
tp1056
a(S'using'
p1057
I2
tp1058
a(S'output'
p1059
I2
tp1060
a(S'src'
p1061
I2
tp1062
a(S'your'
p1063
I2
tp1064
a(S'loc'
p1065
I2
tp1066
a(S'area'
p1067
I2
tp1068
a(S'you'
p1069
I2
tp1070
a(S'strings'
p1071
I2
tp1072
a(S'BODY'
p1073
I2
tp1074
a(S'strong'
p1075
I2
tp1076
a(S'ask'
p1077
I2
tp1078
a(S'Creating'
p1079
I2
tp1080
a(S'SH'
p1081
I2
tp1082
a(S'Opening'
p1083
I2
tp1084
a(S'File'
p1085
I2
tp1086
a(S'asn'
p1087
I2
tp1088
a(S'encoding'
p1089
I2
tp1090
a(S'AVAUATUS'
p1091
I2
tp1092
a(S'The'
p1093
I2
tp1094
a(S'STORE'
p1095
I2
tp1096
a(S'close'
p1097
I2
tp1098
a(S'both'
p1099
I2
tp1100
a(S'header'
p1101
I2
tp1102
a(S'empty'
p1103
I2
tp1104
a(S'Switch'
p1105
I2
tp1106
a(S'Done'
p1107
I2
tp1108
a(S'user'
p1109
I2
tp1110
a(S'database'
p1111
I2
tp1112
a(S'fflush'
p1113
I2
tp1114
a(S'finalize'
p1115
I2
tp1116
a(S'strstr'
p1117
I2
tp1118
a(S'signal'
p1119
I2
tp1120
a(S'quote'
p1121
I2
tp1122
a(S'INTEGER'
p1123
I2
tp1124
a(S'run'
p1125
I2
tp1126
a(S'pwd'
p1127
I2
tp1128
a(S'utf'
p1129
I2
tp1130
a(S'doesn'
p1131
I2
tp1132
a(S'To'
p1133
I2
tp1134
a(S'AF'
p1135
I2
tp1136
a(S'depth'
p1137
I2
tp1138
a(S'fclose'
p1139
I2
tp1140
a(S'Not'
p1141
I2
tp1142
a(S'opaque'
p1143
I2
tp1144
a(S'values'
p1145
I2
tp1146
a(S'Created'
p1147
I2
tp1148
a(S'expiry'
p1149
I2
tp1150
a(S'convert'
p1151
I2
tp1152
a(S'realloc'
p1153
I2
tp1154
a(S'socket'
p1155
I2
tp1156
a(S'control'
p1157
I2
tp1158
a(S'converting'
p1159
I2
tp1160
a(S'Final'
p1161
I2
tp1162
a(S'auth'
p1163
I2
tp1164
a(S'mode'
p1165
I2
tp1166
a(S'Loaded'
p1167
I2
tp1168
a(S'ecb'
p1169
I2
tp1170
a(S'unsupported'
p1171
I2
tp1172
a(S'PATH'
p1173
I2
tp1174
a(S'expired'
p1175
I2
tp1176
a(S'urn'
p1177
I2
tp1178
a(S'uri'
p1179
I2
tp1180
a(S'based'
p1181
I2
tp1182
a(S'sha'
p1183
I2
tp1184
a(S'contain'
p1185
I2
tp1186
a(S'written'
p1187
I2
tp1188
a(S'key'
p1189
I2
tp1190
a(S'quit'
p1191
I2
tp1192
a(S'username'
p1193
I2
tp1194
a(S'You'
p1195
I2
tp1196
a(S'http'
p1197
I2
tp1198
a(S'BE'
p1199
I2
tp1200
a(S'BY'
p1201
I2
tp1202
a(S'edata'
p1203
I2
tp1204
a(S'page'
p1205
I2
tp1206
a(S'library'
p1207
I2
tp1208
a(S'octet'
p1209
I2
tp1210
a(S'HTTP'
p1211
I2
tp1212
a(S'additional'
p1213
I2
tp1214
a(S'STRING'
p1215
I2
tp1216
a(S'ht'
p1217
I2
tp1218
a(S'overflow'
p1219
I2
tp1220
a(S'signed'
p1221
I2
tp1222
a(S'limit'
p1223
I2
tp1224
a(S'hD'
p1225
I2
tp1226
a(S'functions'
p1227
I2
tp1228
a(S'calculate'
p1229
I2
tp1230
a(S'Host'
p1231
I2
tp1232
a(S'force'
p1233
I2
tp1234
a(S'noconf'
p1235
I2
tp1236
a(S'even'
p1237
I2
tp1238
a(S'net'
p1239
I2
tp1240
a(S'metadata'
p1241
I2
tp1242
a(S'mem'
p1243
I2
tp1244
a(S'config'
p1245
I2
tp1246
a(S'before'
p1247
I2
tp1248
a(S'aborted'
p1249
I2
tp1250
a(S'Check'
p1251
I2
tp1252
a(S'content'
p1253
I2
tp1254
a(S'Must'
p1255
I2
tp1256
a(S'resume'
p1257
I2
tp1258
a(S'messages'
p1259
I2
tp1260
a(S'SSL'
p1261
I2
tp1262
a(S'features'
p1263
I2
tp1264
a(S'qsort'
p1265
I2
tp1266
a(S'outputting'
p1267
I2
tp1268
a(S'enabled'
p1269
I2
tp1270
a(S'FINISHED'
p1271
I2
tp1272
a(S'seed'
p1273
I2
tp1274
a(S'points'
p1275
I2
tp1276
a(S'fields'
p1277
I2
tp1278
a(S'against'
p1279
I2
tp1280
a(S'urls'
p1281
I2
tp1282
a(S'CL'
p1283
I2
tp1284
a(S'NAME'
p1285
I2
tp1286
a(S'if'
p1287
I2
tp1288
a(S'protocol'
p1289
I2
tp1290
a(S'identify'
p1291
I2
tp1292
a(S'yet'
p1293
I2
tp1294
a(S'save'
p1295
I2
tp1296
a(S'reuse'
p1297
I2
tp1298
a(S'ops'
p1299
I2
tp1300
a(S'manual'
p1301
I2
tp1302
a(S'parsing'
p1303
I2
tp1304
a(S'fork'
p1305
I2
tp1306
a(S'form'
p1307
I2
tp1308
a(S'failure'
p1309
I2
tp1310
a(S'delete'
p1311
I2
tp1312
a(S'item'
p1313
I2
tp1314
a(S'addr'
p1315
I2
tp1316
a(S'template'
p1317
I2
tp1318
a(S'encode'
p1319
I2
tp1320
a(S'map'
p1321
I2
tp1322
a(S'may'
p1323
I2
tp1324
a(S'strcasecmp'
p1325
I2
tp1326
a(S'maybe'
p1327
I2
tp1328
a(S'listing'
p1329
I2
tp1330
a(S'policy'
p1331
I2
tp1332
a(S'UNKNOWN'
p1333
I2
tp1334
a(S'Name'
p1335
I2
tp1336
a(S'show'
p1337
I2
tp1338
a(S'reading'
p1339
I2
tp1340
a(S'malformed'
p1341
I2
tp1342
a(S'same'
p1343
I2
tp1344
a(S'authentication'
p1345
I2
tp1346
a(S'param'
p1347
I2
tp1348
a(S'server'
p1349
I2
tp1350
a(S'Digest'
p1351
I2
tp1352
a(S'New'
p1353
I2
tp1354
a(S'seconds'
p1355
I2
tp1356
a(S'broken'
p1357
I2
tp1358
a(S'RAND'
p1359
I2
tp1360
a(S'Output'
p1361
I2
tp1362
a(S'decode'
p1363
I2
tp1364
a(S'embed'
p1365
I2
tp1366
a(S'USE'
p1367
I2
tp1368
a(S'remote'
p1369
I2
tp1370
a(S'starting'
p1371
I2
tp1372
a(S'stderr'
p1373
I2
tp1374
a(S'zero'
p1375
I2
tp1376
a(S'share'
p1377
I2
tp1378
a(S'openssl'
p1379
I2
tp1380
a(S'response'
p1381
I2
tp1382
a(S'timestamp'
p1383
I2
tp1384
a(S'Bad'
p1385
I2
tp1386
a(S'token'
p1387
I2
tp1388
a(S'connect'
p1389
I2
tp1390
a(S'print'
p1391
I2
tp1392
a(S'EE'
p1393
I2
tp1394
a(S'ER'
p1395
I2
tp1396
a(S'done'
p1397
I2
tp1398
a(S'XI'
p1399
I2
tp1400
a(S'XD'
p1401
I2
tp1402
a(S'XZ'
p1403
I2
tp1404
a(S'headers'
p1405
I2
tp1406
a(S'Xt'
p1407
I2
tp1408
a(S'paths'
p1409
I2
tp1410
a(S'kD'
p1411
I2
tp1412
a(S'passwd'
p1413
I2
tp1414
a(S'override'
p1415
I2
tp1416
a(S'zU'
p1417
I2
tp1418
a(S'common'
p1419
I2
tp1420
a(S'SHcW'
p1421
I2
tp1422
a(S'PORT'
p1423
I2
tp1424
a(S'please'
p1425
I2
tp1426
a(S'libcrypto'
p1427
I2
tp1428
a(S'point'
p1429
I2
tp1430
a(S'shutdown'
p1431
I2
tp1432
a(S'encountered'
p1433
I2
tp1434
a(S'flags'
p1435
I2
tp1436
a(S'alternative'
p1437
I2
tp1438
a(S'source'
p1439
I2
tp1440
a(S'bin'
p1441
I2
tp1442
a(S'per'
p1443
I2
tp1444
a(S'ERROR'
p1445
I2
tp1446
a(S'extensions'
p1447
I2
tp1448
a(S'single'
p1449
I2
tp1450
a(S'query'
p1451
I2
tp1452
a(S'fatal'
p1453
I2
tp1454
a(S'snprintf'
p1455
I2
tp1456
a(S'access'
p1457
I2
tp1458
a(S'body'
p1459
I2
tp1460
a(S'cert'
p1461
I2
tp1462
a(S'Download'
p1463
I2
tp1464
a(S'named'
p1465
I2
tp1466
a(S'names'
p1467
I2
tp1468
a(S'Status'
p1469
I2
tp1470
a(S'gcc'
p1471
I2
tp1472
a(S'profile'
p1473
I2
tp1474
a(S'fallback'
p1475
I2
tp1476
a(S'ln'
p1477
I2
tp1478
a(S'lu'
p1479
I2
tp1480
a(S'lx'
p1481
I2
tp1482
a(S'xstat'
p1483
I2
tp1484
a(S'unspecified'
p1485
I2
tp1486
a(S'num'
p1487
I2
tp1488
a(S'builtin'
p1489
I2
tp1490
a(S'request'
p1491
I2
tp1492
a(S'supported'
p1493
I2
tp1494
a(S'digests'
p1495
I2
tp1496
a(S'exists'
p1497
I2
tp1498
a(S'received'
p1499
I2
tp1500
a(S'finished'
p1501
I2
tp1502
a(S'USH'
p1503
I2
tp1504
a(S'plain'
p1505
I2
tp1506
a(S'AUTH'
p1507
I2
tp1508
a(S'tmp'
p1509
I2
tp1510
a(S'host'
p1511
I2
tp1512
a(S'but'
p1513
I2
tp1514
a(S'bug'
p1515
I2
tp1516
a(S'sleep'
p1517
I2
tp1518
a(S'selected'
p1519
I2
tp1520
a(S'AWAVAUATL'
p1521
I2
tp1522
a(S'AVAU'
p1523
I2
tp1524
a(S'printf'
p1525
I2
tp1526
a(S'strerror'
p1527
I2
tp1528
a(S'env'
p1529
I2
tp1530
a(S'algorithms'
p1531
I2
tp1532
a(S'digest'
p1533
I2
tp1534
a(S'fwrite'
p1535
I2
tp1536
a(S'writing'
p1537
I2
tp1538
a(S'large'
p1539
I2
tp1540
a(S'ASN'
p1541
I2
tp1542
a(S'Unix'
p1543
I2
tp1544
a(S'USER'
p1545
I2
tp1546
a(S'bind'
p1547
I2
tp1548
a(S'INPUT'
p1549
I2
tp1550
a(S'Unsupported'
p1551
I2
tp1552
a(S'trust'
p1553
I2
tp1554
a(S'been'
p1555
I2
tp1556
a(S'Write'
p1557
I2
tp1558
a(S'ffffff'
p1559
I2
tp1560
a(S'HA'
p1561
I2
tp1562
a(S'HD'
p1563
I2
tp1564
a(S'HE'
p1565
I2
tp1566
a(S'expires'
p1567
I2
tp1568
a(S'escape'
p1569
I2
tp1570
a(S'tiH'
p1571
I2
tp1572
a(S'check'
p1573
I2
tp1574
a(S'when'
p1575
I2
tp1576
a(S'setting'
p1577
I2
tp1578
a(S'environment'
p1579
I2
tp1580
a(S'reply'
p1581
I2
tp1582
a(S'DEBUG'
p1583
I2
tp1584
a(S'AYAZ'
p1585
I2
tp1586
a(S'SSLv'
p1587
I2
tp1588
a(S'Time'
p1589
I2
tp1590
a(S'information'
p1591
I2
tp1592
a(S'turn'
p1593
I2
tp1594
a(S'given'
p1595
I2
tp1596
a(S'SET'
p1597
I2
tp1598
a(S'Data'
p1599
I2
tp1600
a(S'specify'
p1601
I2
tp1602
a(S'INFO'
p1603
I2
tp1604
a(S'pre'
p1605
I2
tp1606
a(S'any'
p1607
I2
tp1608
a(S'conversion'
p1609
I2
tp1610
a(S'multiple'
p1611
I2
tp1612
a(S'icon'
p1613
I2
tp1614
a(S'removed'
p1615
I2
tp1616
a(S'ssl'
p1617
I2
tp1618
a(S'fileno'
p1619
I2
tp1620
a(S'ignored'
p1621
I2
tp1622
a(S'connections'
p1623
I2
tp1624
a(S'quiet'
p1625
I2
tp1626
a(S'period'
p1627
I2
tp1628
a(S'pop'
p1629
I2
tp1630
a(S'parse'
p1631
I2
tp1632
a(S'downloads'
p1633
I2
tp1634
a(S'changing'
p1635
I2
tp1636
a(S'If'
p1637
I2
tp1638
a(S'Loading'
p1639
I2
tp1640
a(S'ATUSL'
p1641
I2
tp1642
a(S'fdopen'
p1643
I2
tp1644
a(S'strict'
p1645
I2
tp1646
a(S'incorrect'
p1647
I2
tp1648
a(S'included'
p1649
I2
tp1650
a(S'all'
p1651
I2
tp1652
a(S'redirections'
p1653
I2
tp1654
a(S'strrchr'
p1655
I2
tp1656
a(S'EN'
p1657
I2
tp1658
a(S'TLSv'
p1659
I2
tp1660
a(S'options'
p1661
I2
tp1662
a(S'known'
p1663
I2
tp1664
a(S'disable'
p1665
I2
tp1666
a(S'short'
p1667
I2
tp1668
a(S'callback'
p1669
I2
tp1670
a(S'style'
p1671
I2
tp1672
a(S'Reading'
p1673
I2
tp1674
a(S'cookie'
p1675
I2
tp1676
a(S'generate'
p1677
I2
tp1678
a(S'blank'
p1679
I2
tp1680
a(S'TLS'
p1681
I2
tp1682
a(S'option'
p1683
I2
tp1684
a(S'added'
p1685
I2
tp1686
a(S'GENERAL'
p1687
I2
tp1688
a(S'strchr'
p1689
I2
tp1690
a(S'Could'
p1691
I2
tp1692
a(S'context'
p1693
I2
tp1694
a(S'Updated'
p1695
I2
tp1696
a(S'due'
p1697
I2
tp1698
a(S'tgH'
p1699
I2
tp1700
a(S'PrivateKey'
p1701
I2
tp1702
a(S'questions'
p1703
I2
tp1704
a(S'extra'
p1705
I2
tp1706
a(S'ignore'
p1707
I2
tp1708
a(S'retry'
p1709
I2
tp1710
a(S'String'
p1711
I2
tp1712
a(S'fopen'
p1713
I2
tp1714
a(S'long'
p1715
I2
tp1716
a(S'files'
p1717
I2
tp1718
a(S'CRLs'
p1719
I2
tp1720
a(S'warning'
p1721
I2
tp1722
a(S'ext'
p1723
I2
tp1724
a(S'once'
p1725
I2
tp1726
a(S'AVAUATU'
p1727
I2
tp1728
a(S'issued'
p1729
I2
tp1730
a(S'AVAUATI'
p1731
I2
tp1732
a(S'issuer'
p1733
I2
tp1734
a(S'include'
p1735
I2
tp1736
a(S'compat'
p1737
I2
tp1738
a(S'app'
p1739
I2
tp1740
a(S'Input'
p1741
I2
tp1742
a(S'use'
p1743
I2
tp1744
a(S'fputs'
p1745
I2
tp1746
a(S'usr'
p1747
I2
tp1748
a(S'HOST'
p1749
I2
tp1750
a(S'instead'
p1751
I2
tp1752
a(S'Missing'
p1753
I2
tp1754
a(S'pending'
p1755
I2
tp1756
a(S'auto'
p1757
I2
tp1758
a(S'out'
p1759
I2
tp1760
a(S'This'
p1761
I2
tp1762
a(S'Only'
p1763
I2
tp1764
a(S'unknown'
p1765
I2
tp1766
a(S'which'
p1767
I2
tp1768
a(S'who'
p1769
I2
tp1770
a(S'strtol'
p1771
I2
tp1772
a(S'cache'
p1773
I2
tp1774
a(S'NID'
p1775
I2
tp1776
a(S'closed'
p1777
I2
tp1778
a(S'opening'
p1779
I2
tp1780
a(S'cxa'
p1781
I2
tp1782
a(S'present'
p1783
I2
tp1784
a(S'layer'
p1785
I2
tp1786
a(S'non'
p1787
I2
tp1788
a(S'load'
p1789
I2
tp1790
a(S'Using'
p1791
I2
tp1792
a(S'other'
p1793
I2
tp1794
a(S'because'
p1795
I2
tp1796
a(S'extension'
p1797
I2
tp1798
a(S'getting'
p1799
I2
tp1800
a(S'OPENSSL'
p1801
I2
tp1802
a(S'whether'
p1803
I2
tp1804
a(S'record'
p1805
I2
tp1806
a(S'DELAY'
p1807
I1
tp1808
a(S'inputMethodQueryEN'
p1809
I1
tp1810
a(S'QDeclarativeInputDeviceModelEiPKciiS'
p1811
I1
tp1812
a(S'sceneDistance'
p1813
I1
tp1814
a(S'Foundation'
p1815
I1
tp1816
a(S'attime'
p1817
I1
tp1818
a(S'AbstractTimerFactoryE'
p1819
I1
tp1820
a(S'QObjectRK'
p1821
I1
tp1822
a(S'SPE'
p1823
I1
tp1824
a(S'digit'
p1825
I1
tp1826
a(S'DATETIME'
p1827
I1
tp1828
a(S'prepareERK'
p1829
I1
tp1830
a(S'enddate'
p1831
I1
tp1832
a(S'wjH'
p1833
I1
tp1834
a(S'PRIMARY'
p1835
I1
tp1836
a(S'pubin'
p1837
I1
tp1838
a(S'qputenvPKcRK'
p1839
I1
tp1840
a(S'vBf'
p1841
I1
tp1842
a(S'ShortcutContext'
p1843
I1
tp1844
a(S'second'
p1845
I1
tp1846
a(S'QObjecti'
p1847
I1
tp1848
a(S'QObjectP'
p1849
I1
tp1850
a(S'setComplete'
p1851
I1
tp1852
a(S'Wrong'
p1853
I1
tp1854
a(S'QObjectC'
p1855
I1
tp1856
a(S'QObjectD'
p1857
I1
tp1858
a(S'QObjectE'
p1859
I1
tp1860
a(S'ZYti'
p1861
I1
tp1862
a(S'Logging'
p1863
I1
tp1864
a(S'formats'
p1865
I1
tp1866
a(S'here'
p1867
I1
tp1868
a(S'reported'
p1869
I1
tp1870
a(S'QCoreApplication'
p1871
I1
tp1872
a(S'serror'
p1873
I1
tp1874
a(S'HLc'
p1875
I1
tp1876
a(S'nullE'
p1877
I1
tp1878
a(S'touchSceneX'
p1879
I1
tp1880
a(S'touchSceneY'
p1881
I1
tp1882
a(S'reactivated'
p1883
I1
tp1884
a(S'maxredirect'
p1885
I1
tp1886
a(S'reports'
p1887
I1
tp1888
a(S'useragent'
p1889
I1
tp1890
a(S'LPSV'
p1891
I1
tp1892
a(S'keysig'
p1893
I1
tp1894
a(S'readLineEx'
p1895
I1
tp1896
a(S'unix'
p1897
I1
tp1898
a(S'Basic'
p1899
I1
tp1900
a(S'hoverEnterEventEP'
p1901
I1
tp1902
a(S'QQuickShortcutEEvPv'
p1903
I1
tp1904
a(S'aNULL'
p1905
I1
tp1906
a(S'txD'
p1907
I1
tp1908
a(S'dns'
p1909
I1
tp1910
a(S'until'
p1911
I1
tp1912
a(S'QQmlPrivate'
p1913
I1
tp1914
a(S'isatty'
p1915
I1
tp1916
a(S'hold'
p1917
I1
tp1918
a(S'unpack'
p1919
I1
tp1920
a(S'downloadERK'
p1921
I1
tp1922
a(S'LMK'
p1923
I1
tp1924
a(S'regextype'
p1925
I1
tp1926
a(S'fnmatch'
p1927
I1
tp1928
a(S'Ld'
p1929
I1
tp1930
a(S'lastVisitChangedEv'
p1931
I1
tp1932
a(S'smtp'
p1933
I1
tp1934
a(S'upL'
p1935
I1
tp1936
a(S'want'
p1937
I1
tp1938
a(S'noparent'
p1939
I1
tp1940
a(S'LF'
p1941
I1
tp1942
a(S'LD'
p1943
I1
tp1944
a(S'LE'
p1945
I1
tp1946
a(S'LA'
p1947
I1
tp1948
a(S'LL'
p1949
I1
tp1950
a(S'sXXXXXX'
p1951
I1
tp1952
a(S'LI'
p1953
I1
tp1954
a(S'how'
p1955
I1
tp1956
a(S'deviceRemovedERK'
p1957
I1
tp1958
a(S'LP'
p1959
I1
tp1960
a(S'QStringPKci'
p1961
I1
tp1962
a(S'DPj'
p1963
I1
tp1964
a(S'HEAD'
p1965
I1
tp1966
a(S'checkValidFolderIndexEi'
p1967
I1
tp1968
a(S'Hrvoje'
p1969
I1
tp1970
a(S'wrong'
p1971
I1
tp1972
a(S'disposeEPNS'
p1973
I1
tp1974
a(S'aliaf'
p1975
I1
tp1976
a(S'deleteLaterEv'
p1977
I1
tp1978
a(S'setMinSpeedEd'
p1979
I1
tp1980
a(S'alias'
p1981
I1
tp1982
a(S'ZGVZ'
p1983
I1
tp1984
a(S'fetchMoreERK'
p1985
I1
tp1986
a(S'TRUE'
p1987
I1
tp1988
a(S'createNewFolder'
p1989
I1
tp1990
a(S'uuid'
p1991
I1
tp1992
a(S'crlNumber'
p1993
I1
tp1994
a(S'midEiPiS'
p1995
I1
tp1996
a(S'devicePathEv'
p1997
I1
tp1998
a(S'webbrowsercommon'
p1999
I1
tp2000
a(S'hidden'
p2001
I1
tp2002
a(S'normalizedTypeEPKc'
p2003
I1
tp2004
a(S'argstring'
p2005
I1
tp2006
a(S'insertNewEntryInHiddenDatabaseERK'
p2007
I1
tp2008
a(S'askpassword'
p2009
I1
tp2010
a(S'QIdentityProxyModelD'
p2011
I1
tp2012
a(S'removeByIndexEi'
p2013
I1
tp2014
a(S'APP'
p2015
I1
tp2016
a(S'Mouse'
p2017
I1
tp2018
a(S'mdc'
p2019
I1
tp2020
a(S'QIdentityProxyModelC'
p2021
I1
tp2022
a(S'spider'
p2023
I1
tp2024
a(S'pressedOutside'
p2025
I1
tp2026
a(S'isDefaultEv'
p2027
I1
tp2028
a(S'rt'
p2029
I1
tp2030
a(S'fromStringERK'
p2031
I1
tp2032
a(S'dkey'
p2033
I1
tp2034
a(S'smi'
p2035
I1
tp2036
a(S'rc'
p2037
I1
tp2038
a(S'updateERK'
p2039
I1
tp2040
a(S'dsa'
p2041
I1
tp2042
a(S'Revoked'
p2043
I1
tp2044
a(S'Extension'
p2045
I1
tp2046
a(S'selfE'
p2047
I1
tp2048
a(S'findNodeERKiPj'
p2049
I1
tp2050
a(S'QVariantaSERKS'
p2051
I1
tp2052
a(S'wideningAngleChangedEd'
p2053
I1
tp2054
a(S'SIGNED'
p2055
I1
tp2056
a(S'ATUStDH'
p2057
I1
tp2058
a(S'QModelIndexE'
p2059
I1
tp2060
a(S'Mozilla'
p2061
I1
tp2062
a(S'hniksic'
p2063
I1
tp2064
a(S'xyLc'
p2065
I1
tp2066
a(S'dcgettext'
p2067
I1
tp2068
a(S'noout'
p2069
I1
tp2070
a(S'listed'
p2071
I1
tp2072
a(S'srpuser'
p2073
I1
tp2074
a(S'touchSceneYChanged'
p2075
I1
tp2076
a(S'autoRepeatEv'
p2077
I1
tp2078
a(S'onClearedEv'
p2079
I1
tp2080
a(S'tree'
p2081
I1
tp2082
a(S'stringprep'
p2083
I1
tp2084
a(S'QSqlQueryC'
p2085
I1
tp2086
a(S'QSqlQueryD'
p2087
I1
tp2088
a(S'Unhandled'
p2089
I1
tp2090
a(S'totalChangedEv'
p2091
I1
tp2092
a(S'Acceptable'
p2093
I1
tp2094
a(S'authnochallenge'
p2095
I1
tp2096
a(S'recommended'
p2097
I1
tp2098
a(S'UbuntuGestures'
p2099
I1
tp2100
a(S'BookmarkEntryEE'
p2101
I1
tp2102
a(S'Login'
p2103
I1
tp2104
a(S'uAIcT'
p2105
I1
tp2106
a(S'ttHct'
p2107
I1
tp2108
a(S'respline'
p2109
I1
tp2110
a(S'Deleted'
p2111
I1
tp2112
a(S'Client'
p2113
I1
tp2114
a(S'incomplete'
p2115
I1
tp2116
a(S'QSequentialIterableImplEE'
p2117
I1
tp2118
a(S'ConnectionTypeE'
p2119
I1
tp2120
a(S'OBJECT'
p2121
I1
tp2122
a(S'precompute'
p2123
I1
tp2124
a(S'authed'
p2125
I1
tp2126
a(S'gauge'
p2127
I1
tp2128
a(S'itemDataERK'
p2129
I1
tp2130
a(S'addreject'
p2131
I1
tp2132
a(S'appendERKi'
p2133
I1
tp2134
a(S'ftpuser'
p2135
I1
tp2136
a(S'allocateNodeEi'
p2137
I1
tp2138
a(S'QTextStreamC'
p2139
I1
tp2140
a(S'QTextStreamD'
p2141
I1
tp2142
a(S'QXmlStreamAttributeD'
p2143
I1
tp2144
a(S'appendERKS'
p2145
I1
tp2146
a(S'ATSA'
p2147
I1
tp2148
a(S'QXmlStreamAttributes'
p2149
I1
tp2150
a(S'respond'
p2151
I1
tp2152
a(S'typeNameEi'
p2153
I1
tp2154
a(S'resumeDownload'
p2155
I1
tp2156
a(S'verboseness'
p2157
I1
tp2158
a(S'ftpscleardataconnection'
p2159
I1
tp2160
a(S'lots'
p2161
I1
tp2162
a(S'iri'
p2163
I1
tp2164
a(S'stamps'
p2165
I1
tp2166
a(S'newlines'
p2167
I1
tp2168
a(S'updateSourceModelRoleEv'
p2169
I1
tp2170
a(S'domainChangedEv'
p2171
I1
tp2172
a(S'extent'
p2173
I1
tp2174
a(S'setStaleLockTimeEi'
p2175
I1
tp2176
a(S'exec'
p2177
I1
tp2178
a(S'logic'
p2179
I1
tp2180
a(S'setItemDataERK'
p2181
I1
tp2182
a(S'login'
p2183
I1
tp2184
a(S'workarounds'
p2185
I1
tp2186
a(S'asked'
p2187
I1
tp2188
a(S'macdef'
p2189
I1
tp2190
a(S'Closed'
p2191
I1
tp2192
a(S'diff'
p2193
I1
tp2194
a(S'gxx'
p2195
I1
tp2196
a(S'QFileInfoD'
p2197
I1
tp2198
a(S'QFileInfoC'
p2199
I1
tp2200
a(S'joinEPK'
p2201
I1
tp2202
a(S'setSearchFieldsERK'
p2203
I1
tp2204
a(S'ClientKeyExchange'
p2205
I1
tp2206
a(S'QNetworkRequestD'
p2207
I1
tp2208
a(S'much'
p2209
I1
tp2210
a(S'QNetworkRequestC'
p2211
I1
tp2212
a(S'rather'
p2213
I1
tp2214
a(S'symlinks'
p2215
I1
tp2216
a(S'warccompression'
p2217
I1
tp2218
a(S'ATUM'
p2219
I1
tp2220
a(S'QObjectPKS'
p2221
I1
tp2222
a(S'qmlregisterENS'
p2223
I1
tp2224
a(S'deferring'
p2225
I1
tp2226
a(S'Both'
p2227
I1
tp2228
a(S'Mail'
p2229
I1
tp2230
a(S'trusted'
p2231
I1
tp2232
a(S'things'
p2233
I1
tp2234
a(S'dhe'
p2235
I1
tp2236
a(S'isEmptyEv'
p2237
I1
tp2238
a(S'QObjectPKc'
p2239
I1
tp2240
a(S'Retrying'
p2241
I1
tp2242
a(S'tzD'
p2243
I1
tp2244
a(S'HistoryDomainListModelEEvPv'
p2245
I1
tp2246
a(S'AUATSI'
p2247
I1
tp2248
a(S'databasePathEv'
p2249
I1
tp2250
a(S'AUATSA'
p2251
I1
tp2252
a(S'topk'
p2253
I1
tp2254
a(S'BookmarksFolderListModelEiRK'
p2255
I1
tp2256
a(S'SINGLERESP'
p2257
I1
tp2258
a(S'UNIVERSALSTRING'
p2259
I1
tp2260
a(S'deviceRemoved'
p2261
I1
tp2262
a(S'HistoryDomainListModel'
p2263
I1
tp2264
a(S'ALPN'
p2265
I1
tp2266
a(S'WebbrowserApp'
p2267
I1
tp2268
a(S'DownloadsModelC'
p2269
I1
tp2270
a(S'DownloadsModelD'
p2271
I1
tp2272
a(S'QTouchEventC'
p2273
I1
tp2274
a(S'previous'
p2275
I1
tp2276
a(S'BrowserApplicationD'
p2277
I1
tp2278
a(S'BrowserApplicationC'
p2279
I1
tp2280
a(S'Offer'
p2281
I1
tp2282
a(S'TouchEvent'
p2283
I1
tp2284
a(S'gendsa'
p2285
I1
tp2286
a(S'bnf'
p2287
I1
tp2288
a(S'REQUEST'
p2289
I1
tp2290
a(S'possible'
p2291
I1
tp2292
a(S'possibly'
p2293
I1
tp2294
a(S'unique'
p2295
I1
tp2296
a(S'setTermsERK'
p2297
I1
tp2298
a(S'ECPrivateKey'
p2299
I1
tp2300
a(S'ftpproxy'
p2301
I1
tp2302
a(S'initEv'
p2303
I1
tp2304
a(S'truncated'
p2305
I1
tp2306
a(S'touchXChangedEd'
p2307
I1
tp2308
a(S'TouchEventE'
p2309
I1
tp2310
a(S'TouchEventC'
p2311
I1
tp2312
a(S'unversionedAppId'
p2313
I1
tp2314
a(S'ifIPK'
p2315
I1
tp2316
a(S'initEi'
p2317
I1
tp2318
a(S'Ciphersuite'
p2319
I1
tp2320
a(S'LastVisitDate'
p2321
I1
tp2322
a(S'destroyEPPv'
p2323
I1
tp2324
a(S'timestamps'
p2325
I1
tp2326
a(S'platformName'
p2327
I1
tp2328
a(S'cancelDownloadERK'
p2329
I1
tp2330
a(S'toStringEN'
p2331
I1
tp2332
a(S'oHSI'
p2333
I1
tp2334
a(S'First'
p2335
I1
tp2336
a(S'setApplicationNameERK'
p2337
I1
tp2338
a(S'OS'
p2339
I1
tp2340
a(S'QPersistentModelIndexEE'
p2341
I1
tp2342
a(S'isVerticalENS'
p2343
I1
tp2344
a(S'sgckey'
p2345
I1
tp2346
a(S'uu'
p2347
I1
tp2348
a(S'Use'
p2349
I1
tp2350
a(S'createNodeEiiP'
p2351
I1
tp2352
a(S'sop'
p2353
I1
tp2354
a(S'wrap'
p2355
I1
tp2356
a(S'compressEventEP'
p2357
I1
tp2358
a(S'warcinfo'
p2359
I1
tp2360
a(S'singleShotEiPK'
p2361
I1
tp2362
a(S'TimerFactory'
p2363
I1
tp2364
a(S'urlEv'
p2365
I1
tp2366
a(S'opiekey'
p2367
I1
tp2368
a(S'refcount'
p2369
I1
tp2370
a(S'pointInsideAllowedAreaEv'
p2371
I1
tp2372
a(S'releaseResourcesEv'
p2373
I1
tp2374
a(S'HELLO'
p2375
I1
tp2376
a(S'criticalEv'
p2377
I1
tp2378
a(S'printUsageEv'
p2379
I1
tp2380
a(S'devices'
p2381
I1
tp2382
a(S'mbrtowc'
p2383
I1
tp2384
a(S'PREFIX'
p2385
I1
tp2386
a(S'FakeTimerC'
p2387
I1
tp2388
a(S'ABCDEFGHIJKLMNOPQRSTUVWXYZ'
p2389
I1
tp2390
a(S'statusChangedENS'
p2391
I1
tp2392
a(S'role'
p2393
I1
tp2394
a(S'setSingleShotEb'
p2395
I1
tp2396
a(S'models'
p2397
I1
tp2398
a(S'ntop'
p2399
I1
tp2400
a(S'variable'
p2401
I1
tp2402
a(S'iconForMimetypeERK'
p2403
I1
tp2404
a(S'cacerts'
p2405
I1
tp2406
a(S'push'
p2407
I1
tp2408
a(S'idna'
p2409
I1
tp2410
a(S'chain'
p2411
I1
tp2412
a(S'isCanceledEv'
p2413
I1
tp2414
a(S'activated'
p2415
I1
tp2416
a(S'nls'
p2417
I1
tp2418
a(S'QQmlParserStatus'
p2419
I1
tp2420
a(S'gpgme'
p2421
I1
tp2422
a(S'RegistrationTypeEPv'
p2423
I1
tp2424
a(S'XsPL'
p2425
I1
tp2426
a(S'Peer'
p2427
I1
tp2428
a(S'downloading'
p2429
I1
tp2430
a(S'VERSION'
p2431
I1
tp2432
a(S'insertRowsEiiRK'
p2433
I1
tp2434
a(S'exact'
p2435
I1
tp2436
a(S'TouchDispatcherC'
p2437
I1
tp2438
a(S'leave'
p2439
I1
tp2440
a(S'setRunnableEP'
p2441
I1
tp2442
a(S'Tab'
p2443
I1
tp2444
a(S'Keyboard'
p2445
I1
tp2446
a(S'TimeSourceENS'
p2447
I1
tp2448
a(S'QInputDeviceManagerPrivateD'
p2449
I1
tp2450
a(S'QInputDeviceManagerPrivateC'
p2451
I1
tp2452
a(S'FileOperationsLi'
p2453
I1
tp2454
a(S'forceFullscreen'
p2455
I1
tp2456
a(S'FileOperationsLb'
p2457
I1
tp2458
a(S'sign'
p2459
I1
tp2460
a(S'strlcat'
p2461
I1
tp2462
a(S'current'
p2463
I1
tp2464
a(S'setSceneRectERK'
p2465
I1
tp2466
a(S'ttgcE'
p2467
I1
tp2468
a(S'True'
p2469
I1
tp2470
a(S'Mg'
p2471
I1
tp2472
a(S'Mb'
p2473
I1
tp2474
a(S'Ms'
p2475
I1
tp2476
a(S'along'
p2477
I1
tp2478
a(S'developerExtrasEnabled'
p2479
I1
tp2480
a(S'MB'
p2481
I1
tp2482
a(S'MM'
p2483
I1
tp2484
a(S'AbstractTimerE'
p2485
I1
tp2486
a(S'MH'
p2487
I1
tp2488
a(S'MK'
p2489
I1
tp2490
a(S'MW'
p2491
I1
tp2492
a(S'certform'
p2493
I1
tp2494
a(S'MS'
p2495
I1
tp2496
a(S'xHc'
p2497
I1
tp2498
a(S'Continuing'
p2499
I1
tp2500
a(S'prefer'
p2501
I1
tp2502
a(S'ipv'
p2503
I1
tp2504
a(S'fake'
p2505
I1
tp2506
a(S'bookmarks'
p2507
I1
tp2508
a(S'ListIJEEEvE'
p2509
I1
tp2510
a(S'working'
p2511
I1
tp2512
a(S'positive'
p2513
I1
tp2514
a(S'onNewInstanceConnected'
p2515
I1
tp2516
a(S'dispatchFullyOwnedEventsEv'
p2517
I1
tp2518
a(S'XTS'
p2519
I1
tp2520
a(S'Default'
p2521
I1
tp2522
a(S'QPersistentModelIndex'
p2523
I1
tp2524
a(S'oaep'
p2525
I1
tp2526
a(S'classBeginEv'
p2527
I1
tp2528
a(S'dispatchAsTouchEN'
p2529
I1
tp2530
a(S'lastVisitedIconChangedEv'
p2531
I1
tp2532
a(S'descriptor'
p2533
I1
tp2534
a(S'printing'
p2535
I1
tp2536
a(S'ENUMERATED'
p2537
I1
tp2538
a(S'detached'
p2539
I1
tp2540
a(S'Out'
p2541
I1
tp2542
a(S'Revoking'
p2543
I1
tp2544
a(S'uHH'
p2545
I1
tp2546
a(S'BAD'
p2547
I1
tp2548
a(S'compareERKS'
p2549
I1
tp2550
a(S'feof'
p2551
I1
tp2552
a(S'AUATM'
p2553
I1
tp2554
a(S'vFH'
p2555
I1
tp2556
a(S'eContentType'
p2557
I1
tp2558
a(S'dpass'
p2559
I1
tp2560
a(S'xhtml'
p2561
I1
tp2562
a(S'pauseDownload'
p2563
I1
tp2564
a(S'parameter'
p2565
I1
tp2566
a(S'autoRepeatChanged'
p2567
I1
tp2568
a(S'QFlagsINS'
p2569
I1
tp2570
a(S'lidn'
p2571
I1
tp2572
a(S'touchUngrabEventEv'
p2573
I1
tp2574
a(S'grabShortcutERK'
p2575
I1
tp2576
a(S'sS'
p2577
I1
tp2578
a(S'sP'
p2579
I1
tp2580
a(S'sK'
p2581
I1
tp2582
a(S'such'
p2583
I1
tp2584
a(S'unownedTouchEventEP'
p2585
I1
tp2586
a(S'TabsModelEiPKciiS'
p2587
I1
tp2588
a(S'sw'
p2589
I1
tp2590
a(S'sv'
p2591
I1
tp2592
a(S'si'
p2593
I1
tp2594
a(S'sn'
p2595
I1
tp2596
a(S'QVectorIiED'
p2597
I1
tp2598
a(S'TouchPointEE'
p2599
I1
tp2600
a(S'definitions'
p2601
I1
tp2602
a(S'se'
p2603
I1
tp2604
a(S'tty'
p2605
I1
tp2606
a(S'QListIN'
p2607
I1
tp2608
a(S'QListIP'
p2609
I1
tp2610
a(S'QListIS'
p2611
I1
tp2612
a(S'msgtype'
p2613
I1
tp2614
a(S'msgfile'
p2615
I1
tp2616
a(S'revisit'
p2617
I1
tp2618
a(S'Rightwards'
p2619
I1
tp2620
a(S'Direction'
p2621
I1
tp2622
a(S'derive'
p2623
I1
tp2624
a(S'dropMimeDataEPK'
p2625
I1
tp2626
a(S'ttH'
p2627
I1
tp2628
a(S'touchXEv'
p2629
I1
tp2630
a(S'QFile'
p2631
I1
tp2632
a(S'records'
p2633
I1
tp2634
a(S'BASE'
p2635
I1
tp2636
a(S'mmqp'
p2637
I1
tp2638
a(S'queryfile'
p2639
I1
tp2640
a(S'didn'
p2641
I1
tp2642
a(S'receipt'
p2643
I1
tp2644
a(S'updateDeviceListEv'
p2645
I1
tp2646
a(S'QHashDummyValueE'
p2647
I1
tp2648
a(S'passwds'
p2649
I1
tp2650
a(S'Added'
p2651
I1
tp2652
a(S'dropEventEP'
p2653
I1
tp2654
a(S'contained'
p2655
I1
tp2656
a(S'downloadFinishedEP'
p2657
I1
tp2658
a(S'quite'
p2659
I1
tp2660
a(S'emulation'
p2661
I1
tp2662
a(S'byte'
p2663
I1
tp2664
a(S'postfile'
p2665
I1
tp2666
a(S'TABLET'
p2667
I1
tp2668
a(S'QUrleqERKS'
p2669
I1
tp2670
a(S'initiate'
p2671
I1
tp2672
a(S'idEv'
p2673
I1
tp2674
a(S'hideERK'
p2675
I1
tp2676
a(S'RealTimeSource'
p2677
I1
tp2678
a(S'QQuickItemEEC'
p2679
I1
tp2680
a(S'saving'
p2681
I1
tp2682
a(S'searchPathsChanged'
p2683
I1
tp2684
a(S'QQuickItemEED'
p2685
I1
tp2686
a(S'insecurely'
p2687
I1
tp2688
a(S'QDragEnterEvent'
p2689
I1
tp2690
a(S'QAbstractItemModelLi'
p2691
I1
tp2692
a(S'searchFieldsChangedEv'
p2693
I1
tp2694
a(S'moveColumnsERK'
p2695
I1
tp2696
a(S'AGENT'
p2697
I1
tp2698
a(S'QAbstractItemModelLb'
p2699
I1
tp2700
a(S'authsafes'
p2701
I1
tp2702
a(S'params'
p2703
I1
tp2704
a(S'userinfo'
p2705
I1
tp2706
a(S'ZeqRK'
p2707
I1
tp2708
a(S'BookmarksFolderModelLb'
p2709
I1
tp2710
a(S'padding'
p2711
I1
tp2712
a(S'deallocateEPS'
p2713
I1
tp2714
a(S'touchYChangedEd'
p2715
I1
tp2716
a(S'encrypting'
p2717
I1
tp2718
a(S'rmd'
p2719
I1
tp2720
a(S'addButtonEi'
p2721
I1
tp2722
a(S'turned'
p2723
I1
tp2724
a(S'fromLatin'
p2725
I1
tp2726
a(S'Issued'
p2727
I1
tp2728
a(S'DownloadEntryD'
p2729
I1
tp2730
a(S'DownloadEntryE'
p2731
I1
tp2732
a(S'take'
p2733
I1
tp2734
a(S'supply'
p2735
I1
tp2736
a(S'destroy'
p2737
I1
tp2738
a(S'touchX'
p2739
I1
tp2740
a(S'Drop'
p2741
I1
tp2742
a(S'strpbrk'
p2743
I1
tp2744
a(S'opterr'
p2745
I1
tp2746
a(S'strparse'
p2747
I1
tp2748
a(S'QByteArrayNS'
p2749
I1
tp2750
a(S'LimitProxyModelEEvPv'
p2751
I1
tp2752
a(S'downloadFinished'
p2753
I1
tp2754
a(S'salt'
p2755
I1
tp2756
a(S'hmac'
p2757
I1
tp2758
a(S'QMapDataIS'
p2759
I1
tp2760
a(S'QByteArrayaSEPKc'
p2761
I1
tp2762
a(S'pressedEv'
p2763
I1
tp2764
a(S'qop'
p2765
I1
tp2766
a(S'errorEv'
p2767
I1
tp2768
a(S'reportspeed'
p2769
I1
tp2770
a(S'Gestures'
p2771
I1
tp2772
a(S'newInstanceLaunchedERK'
p2773
I1
tp2774
a(S'unauthoritative'
p2775
I1
tp2776
a(S'getEi'
p2777
I1
tp2778
a(S'preferfamily'
p2779
I1
tp2780
a(S'warningEv'
p2781
I1
tp2782
a(S'nconf'
p2783
I1
tp2784
a(S'awaiting'
p2785
I1
tp2786
a(S'Werror'
p2787
I1
tp2788
a(S'Reusing'
p2789
I1
tp2790
a(S'prime'
p2791
I1
tp2792
a(S'resource'
p2793
I1
tp2794
a(S'DownloadId'
p2795
I1
tp2796
a(S'mouseDoubleClickIntervalEv'
p2797
I1
tp2798
a(S'elapsedEv'
p2799
I1
tp2800
a(S'itemChangeENS'
p2801
I1
tp2802
a(S'insertEPS'
p2803
I1
tp2804
a(S'SYMLINK'
p2805
I1
tp2806
a(S'toIntEPbi'
p2807
I1
tp2808
a(S'BookmarksFolderListModelEEvPv'
p2809
I1
tp2810
a(S'sname'
p2811
I1
tp2812
a(S'screen'
p2813
I1
tp2814
a(S'ListIIiS'
p2815
I1
tp2816
a(S'QUrlRK'
p2817
I1
tp2818
a(S'libapparmor'
p2819
I1
tp2820
a(S'Directory'
p2821
I1
tp2822
a(S'ItemChangeDataE'
p2823
I1
tp2824
a(S'suppressed'
p2825
I1
tp2826
a(S'cutdirs'
p2827
I1
tp2828
a(S'crlfeol'
p2829
I1
tp2830
a(S'Spider'
p2831
I1
tp2832
a(S'expression'
p2833
I1
tp2834
a(S'focusInEventEP'
p2835
I1
tp2836
a(S'seeding'
p2837
I1
tp2838
a(S'CaseSensitivityENS'
p2839
I1
tp2840
a(S'tQL'
p2841
I1
tp2842
a(S'locally'
p2843
I1
tp2844
a(S'fk'
p2845
I1
tp2846
a(S'ZTI'
p2847
I1
tp2848
a(S'QMapNodeBaseb'
p2849
I1
tp2850
a(S'QMapNodeBasei'
p2851
I1
tp2852
a(S'ZTV'
p2853
I1
tp2854
a(S'QWindow'
p2855
I1
tp2856
a(S'WebBrowserWindow'
p2857
I1
tp2858
a(S'DownloadEntryEE'
p2859
I1
tp2860
a(S'keygen'
p2861
I1
tp2862
a(S'policies'
p2863
I1
tp2864
a(S'nextEv'
p2865
I1
tp2866
a(S'removelisting'
p2867
I1
tp2868
a(S'Alocalhost'
p2869
I1
tp2870
a(S'ntNH'
p2871
I1
tp2872
a(S'Validating'
p2873
I1
tp2874
a(S'DIY'
p2875
I1
tp2876
a(S'ascii'
p2877
I1
tp2878
a(S'DIR'
p2879
I1
tp2880
a(S'Profile'
p2881
I1
tp2882
a(S'freeChangedEv'
p2883
I1
tp2884
a(S'shouldCache'
p2885
I1
tp2886
a(S'verifier'
p2887
I1
tp2888
a(S'daysToERKS'
p2889
I1
tp2890
a(S'extentions'
p2891
I1
tp2892
a(S'MouseButtonE'
p2893
I1
tp2894
a(S'IRI'
p2895
I1
tp2896
a(S'calloc'
p2897
I1
tp2898
a(S'affiliationChanged'
p2899
I1
tp2900
a(S'HIGH'
p2901
I1
tp2902
a(S'undefined'
p2903
I1
tp2904
a(S'clobber'
p2905
I1
tp2906
a(S'toHexEv'
p2907
I1
tp2908
a(S'PWD'
p2909
I1
tp2910
a(S'resp'
p2911
I1
tp2912
a(S'ECPKParameters'
p2913
I1
tp2914
a(S'ALTER'
p2915
I1
tp2916
a(S'setDatabaseNameERK'
p2917
I1
tp2918
a(S'generator'
p2919
I1
tp2920
a(S'nocrl'
p2921
I1
tp2922
a(S'MimeDatabaseD'
p2923
I1
tp2924
a(S'rshift'
p2925
I1
tp2926
a(S'libm'
p2927
I1
tp2928
a(S'libz'
p2929
I1
tp2930
a(S'Token'
p2931
I1
tp2932
a(S'Algorithms'
p2933
I1
tp2934
a(S'mapERK'
p2935
I1
tp2936
a(S'AlgorithmE'
p2937
I1
tp2938
a(S'itemChangeEN'
p2939
I1
tp2940
a(S'conditional'
p2941
I1
tp2942
a(S'setEnabledEb'
p2943
I1
tp2944
a(S'udev'
p2945
I1
tp2946
a(S'wideningAngleChanged'
p2947
I1
tp2948
a(S'KeyboardModifierEES'
p2949
I1
tp2950
a(S'InputInfoPluginD'
p2951
I1
tp2952
a(S'KeyboardModifierEEb'
p2953
I1
tp2954
a(S'ddu'
p2955
I1
tp2956
a(S'infile'
p2957
I1
tp2958
a(S'MACOS'
p2959
I1
tp2960
a(S'crlfile'
p2961
I1
tp2962
a(S'removedERK'
p2963
I1
tp2964
a(S'PARAM'
p2965
I1
tp2966
a(S'acc'
p2967
I1
tp2968
a(S'holdInstruction'
p2969
I1
tp2970
a(S'QLockFileC'
p2971
I1
tp2972
a(S'QLockFileD'
p2973
I1
tp2974
a(S'ack'
p2975
I1
tp2976
a(S'timerEventEP'
p2977
I1
tp2978
a(S'Message'
p2979
I1
tp2980
a(S'convertlinks'
p2981
I1
tp2982
a(S'indexOfERK'
p2983
I1
tp2984
a(S'Nk'
p2985
I1
tp2986
a(S'Nl'
p2987
I1
tp2988
a(S'image'
p2989
I1
tp2990
a(S'lastVisitChanged'
p2991
I1
tp2992
a(S'InputMethodQueryE'
p2993
I1
tp2994
a(S'setAutoRepeatEb'
p2995
I1
tp2996
a(S'NB'
p2997
I1
tp2998
a(S'hex'
p2999
I1
tp3000
a(S'redirection'
p3001
I1
tp3002
a(S'emacs'
p3003
I1
tp3004
a(S'series'
p3005
I1
tp3006
a(S'NT'
p3007
I1
tp3008
a(S'avbofpd'
p3009
I1
tp3010
a(S'BookmarksFolderModel'
p3011
I1
tp3012
a(S'SSLEAY'
p3013
I1
tp3014
a(S'PropertyH'
p3015
I1
tp3016
a(S'Close'
p3017
I1
tp3018
a(S'PropertyL'
p3019
I1
tp3020
a(S'aa'
p3021
I1
tp3022
a(S'QUrlaSERKS'
p3023
I1
tp3024
a(S'ab'
p3025
I1
tp3026
a(S'exhausted'
p3027
I1
tp3028
a(S'AZA'
p3029
I1
tp3030
a(S'am'
p3031
I1
tp3032
a(S'al'
p3033
I1
tp3034
a(S'aq'
p3035
I1
tp3036
a(S'How'
p3037
I1
tp3038
a(S'au'
p3039
I1
tp3040
a(S'aE'
p3041
I1
tp3042
a(S'putStringEPK'
p3043
I1
tp3044
a(S'aH'
p3045
I1
tp3046
a(S'lssl'
p3047
I1
tp3048
a(S'aP'
p3049
I1
tp3050
a(S'dragLeaveEventEP'
p3051
I1
tp3052
a(S'aT'
p3053
I1
tp3054
a(S'filenameToMimeTypeERK'
p3055
I1
tp3056
a(S'QTextStream'
p3057
I1
tp3058
a(S'Username'
p3059
I1
tp3060
a(S'CAserial'
p3061
I1
tp3062
a(S'noverify'
p3063
I1
tp3064
a(S'getuid'
p3065
I1
tp3066
a(S'mask'
p3067
I1
tp3068
a(S'UNSUPPORTED'
p3069
I1
tp3070
a(S'tZ'
p3071
I1
tp3072
a(S'tW'
p3073
I1
tp3074
a(S'fileNameEv'
p3075
I1
tp3076
a(S'tS'
p3077
I1
tp3078
a(S'tP'
p3079
I1
tp3080
a(S'tQ'
p3081
I1
tp3082
a(S'tN'
p3083
I1
tp3084
a(S'tL'
p3085
I1
tp3086
a(S'touchToMouseEventEN'
p3087
I1
tp3088
a(S'tG'
p3089
I1
tp3090
a(S'tB'
p3091
I1
tp3092
a(S'setStartScreenPosERK'
p3093
I1
tp3094
a(S'tu'
p3095
I1
tp3096
a(S'ts'
p3097
I1
tp3098
a(S'tm'
p3099
I1
tp3100
a(S'tj'
p3101
I1
tp3102
a(S'Entries'
p3103
I1
tp3104
a(S'tf'
p3105
I1
tp3106
a(S'tg'
p3107
I1
tp3108
a(S'HistoryDomainListModelD'
p3109
I1
tp3110
a(S'HistoryDomainListModelC'
p3111
I1
tp3112
a(S'QMimeDataN'
p3113
I1
tp3114
a(S'nameChanged'
p3115
I1
tp3116
a(S'QStringj'
p3117
I1
tp3118
a(S'TimerC'
p3119
I1
tp3120
a(S'QStringb'
p3121
I1
tp3122
a(S'condition'
p3123
I1
tp3124
a(S'clipRectEv'
p3125
I1
tp3126
a(S'QStringS'
p3127
I1
tp3128
a(S'QStringP'
p3129
I1
tp3130
a(S'QStringN'
p3131
I1
tp3132
a(S'adjust'
p3133
I1
tp3134
a(S'Malformed'
p3135
I1
tp3136
a(S'small'
p3137
I1
tp3138
a(S'QStringD'
p3139
I1
tp3140
a(S'QStringE'
p3141
I1
tp3142
a(S'QStringC'
p3143
I1
tp3144
a(S'relativeonly'
p3145
I1
tp3146
a(S'infiles'
p3147
I1
tp3148
a(S'Recursion'
p3149
I1
tp3150
a(S'OpenModeFlagEE'
p3151
I1
tp3152
a(S'onUDevChanges'
p3153
I1
tp3154
a(S'qml'
p3155
I1
tp3156
a(S'pass'
p3157
I1
tp3158
a(S'startdate'
p3159
I1
tp3160
a(S'section'
p3161
I1
tp3162
a(S'QModelIndexRK'
p3163
I1
tp3164
a(S'aAxis'
p3165
I1
tp3166
a(S'hours'
p3167
I1
tp3168
a(S'fips'
p3169
I1
tp3170
a(S'deviceCountChangedEi'
p3171
I1
tp3172
a(S'tKUSH'
p3173
I1
tp3174
a(S'moveToDownloads'
p3175
I1
tp3176
a(S'QFileD'
p3177
I1
tp3178
a(S'validChangedEv'
p3179
I1
tp3180
a(S'populateFromDatabaseEv'
p3181
I1
tp3182
a(S'followed'
p3183
I1
tp3184
a(S'DOCTYPE'
p3185
I1
tp3186
a(S'lastVisitedTitleEv'
p3187
I1
tp3188
a(S'GNU'
p3189
I1
tp3190
a(S'tested'
p3191
I1
tp3192
a(S'nomac'
p3193
I1
tp3194
a(S'Found'
p3195
I1
tp3196
a(S'FTP'
p3197
I1
tp3198
a(S'TouchOwnershipEvent'
p3199
I1
tp3200
a(S'resources'
p3201
I1
tp3202
a(S'CipherInit'
p3203
I1
tp3204
a(S'chainCAfile'
p3205
I1
tp3206
a(S'states'
p3207
I1
tp3208
a(S'QDebugiPK'
p3209
I1
tp3210
a(S'sysname'
p3211
I1
tp3212
a(S'aprintf'
p3213
I1
tp3214
a(S'numurls'
p3215
I1
tp3216
a(S'attributeEN'
p3217
I1
tp3218
a(S'variant'
p3219
I1
tp3220
a(S'mapping'
p3221
I1
tp3222
a(S'gethostbyname'
p3223
I1
tp3224
a(S'Bsymbolic'
p3225
I1
tp3226
a(S'register'
p3227
I1
tp3228
a(S'keyfile'
p3229
I1
tp3230
a(S'currentIndexChangedEv'
p3231
I1
tp3232
a(S'insertNewEntryInDatabaseERKNS'
p3233
I1
tp3234
a(S'filenameEv'
p3235
I1
tp3236
a(S'wrI'
p3237
I1
tp3238
a(S'deviceFilterChanged'
p3239
I1
tp3240
a(S'signs'
p3241
I1
tp3242
a(S'its'
p3243
I1
tp3244
a(S'setThreadPoolEP'
p3245
I1
tp3246
a(S'QKeySequenceeqERKS'
p3247
I1
tp3248
a(S'odir'
p3249
I1
tp3250
a(S'gfffffffH'
p3251
I1
tp3252
a(S'skipped'
p3253
I1
tp3254
a(S'devicesEv'
p3255
I1
tp3256
a(S'ConnectionD'
p3257
I1
tp3258
a(S'URI'
p3259
I1
tp3260
a(S'IPv'
p3261
I1
tp3262
a(S'CacheDeleterRK'
p3263
I1
tp3264
a(S'QStringRK'
p3265
I1
tp3266
a(S'IPV'
p3267
I1
tp3268
a(S'LIBUDEV'
p3269
I1
tp3270
a(S'QStringaSERKS'
p3271
I1
tp3272
a(S'multiArgEiPPKS'
p3273
I1
tp3274
a(S'touchOwnershipEventTypeEv'
p3275
I1
tp3276
a(S'ATSH'
p3277
I1
tp3278
a(S'nextNodeEv'
p3279
I1
tp3280
a(S'operation'
p3281
I1
tp3282
a(S'missed'
p3283
I1
tp3284
a(S'setShortcutAutoRepeatEbiP'
p3285
I1
tp3286
a(S'misses'
p3287
I1
tp3288
a(S'pagerequisites'
p3289
I1
tp3290
a(S'removeFromCRL'
p3291
I1
tp3292
a(S'proxy'
p3293
I1
tp3294
a(S'DTLS'
p3295
I1
tp3296
a(S'definition'
p3297
I1
tp3298
a(S'pairs'
p3299
I1
tp3300
a(S'TIMESTAMP'
p3301
I1
tp3302
a(S'crlhours'
p3303
I1
tp3304
a(S'DigestVerifyFinal'
p3305
I1
tp3306
a(S'Wdate'
p3307
I1
tp3308
a(S'clrreject'
p3309
I1
tp3310
a(S'Cache'
p3311
I1
tp3312
a(S'resetDatabaseERK'
p3313
I1
tp3314
a(S'SATPVL'
p3315
I1
tp3316
a(S'QListIiEEEvPKvPPv'
p3317
I1
tp3318
a(S'followtags'
p3319
I1
tp3320
a(S'removeEntryByUrl'
p3321
I1
tp3322
a(S'aad'
p3323
I1
tp3324
a(S'Refers'
p3325
I1
tp3326
a(S'grabTouchPointsERK'
p3327
I1
tp3328
a(S'IPADDRESS'
p3329
I1
tp3330
a(S'vsnprintf'
p3331
I1
tp3332
a(S'postdata'
p3333
I1
tp3334
a(S'TextSearchFilterModel'
p3335
I1
tp3336
a(S'childMouseEventFilterEPS'
p3337
I1
tp3338
a(S'nomaciter'
p3339
I1
tp3340
a(S'TIMEOUT'
p3341
I1
tp3342
a(S'Iv'
p3343
I1
tp3344
a(S'MemInfoC'
p3345
I1
tp3346
a(S'MemInfoD'
p3347
I1
tp3348
a(S'self'
p3349
I1
tp3350
a(S'ERiPPc'
p3351
I1
tp3352
a(S'also'
p3353
I1
tp3354
a(S'startpos'
p3355
I1
tp3356
a(S'AbstractTimer'
p3357
I1
tp3358
a(S'play'
p3359
I1
tp3360
a(S'components'
p3361
I1
tp3362
a(S'tpH'
p3363
I1
tp3364
a(S'unused'
p3365
I1
tp3366
a(S'QIdentityProxyModel'
p3367
I1
tp3368
a(S'HistoryDomainListModelED'
p3369
I1
tp3370
a(S'accepting'
p3371
I1
tp3372
a(S'suggestionsUrlTemplateChangedEv'
p3373
I1
tp3374
a(S'QDebugRK'
p3375
I1
tp3376
a(S'TOUCHSCREEN'
p3377
I1
tp3378
a(S'appendEPKc'
p3379
I1
tp3380
a(S'FROM'
p3381
I1
tp3382
a(S'dataFileEv'
p3383
I1
tp3384
a(S'StandardLocationE'
p3385
I1
tp3386
a(S'exp'
p3387
I1
tp3388
a(S'defaulted'
p3389
I1
tp3390
a(S'tDUSH'
p3391
I1
tp3392
a(S'AXH'
p3393
I1
tp3394
a(S'AXt'
p3395
I1
tp3396
a(S'intervalChanged'
p3397
I1
tp3398
a(S'METHOD'
p3399
I1
tp3400
a(S'columns'
p3401
I1
tp3402
a(S'Emulation'
p3403
I1
tp3404
a(S'connectToServerERK'
p3405
I1
tp3406
a(S'indexOfERKS'
p3407
I1
tp3408
a(S'deviceListOfType'
p3409
I1
tp3410
a(S'FALSE'
p3411
I1
tp3412
a(S'logfile'
p3413
I1
tp3414
a(S'respin'
p3415
I1
tp3416
a(S'metalink'
p3417
I1
tp3418
a(S'addTouchWatcherEiP'
p3419
I1
tp3420
a(S'GROUP'
p3421
I1
tp3422
a(S'DirectionalDragAreaEEvPv'
p3423
I1
tp3424
a(S'For'
p3425
I1
tp3426
a(S'sep'
p3427
I1
tp3428
a(S'iteration'
p3429
I1
tp3430
a(S'startup'
p3431
I1
tp3432
a(S'see'
p3433
I1
tp3434
a(S'sec'
p3435
I1
tp3436
a(S'passphrase'
p3437
I1
tp3438
a(S'deleteDownload'
p3439
I1
tp3440
a(S'project'
p3441
I1
tp3442
a(S'currently'
p3443
I1
tp3444
a(S'readElementTextENS'
p3445
I1
tp3446
a(S'absoluteFilePathERK'
p3447
I1
tp3448
a(S'touchEvent'
p3449
I1
tp3450
a(S'available'
p3451
I1
tp3452
a(S'listenERK'
p3453
I1
tp3454
a(S'urlTemplateChanged'
p3455
I1
tp3456
a(S'interface'
p3457
I1
tp3458
a(S'dispatchTouchEventToTargetERKNS'
p3459
I1
tp3460
a(S'hashERK'
p3461
I1
tp3462
a(S'Modifying'
p3463
I1
tp3464
a(S'PURPOSE'
p3465
I1
tp3466
a(S'pdf'
p3467
I1
tp3468
a(S'WARRANTY'
p3469
I1
tp3470
a(S'Timeout'
p3471
I1
tp3472
a(S'setHeaderENS'
p3473
I1
tp3474
a(S'tlsv'
p3475
I1
tp3476
a(S'clcerts'
p3477
I1
tp3478
a(S'notAfter'
p3479
I1
tp3480
a(S'MimeDatabaseLi'
p3481
I1
tp3482
a(S'lessThanERK'
p3483
I1
tp3484
a(S'MimeDatabaseLb'
p3485
I1
tp3486
a(S'projectOntoDirectionVectorERK'
p3487
I1
tp3488
a(S'crlext'
p3489
I1
tp3490
a(S'Starting'
p3491
I1
tp3492
a(S'handling'
p3493
I1
tp3494
a(S'pressed'
p3495
I1
tp3496
a(S'toTime'
p3497
I1
tp3498
a(S'TypeERKN'
p3499
I1
tp3500
a(S'deviceFilterEv'
p3501
I1
tp3502
a(S'binding'
p3503
I1
tp3504
a(S'triple'
p3505
I1
tp3506
a(S'warckeeplog'
p3507
I1
tp3508
a(S'shorten'
p3509
I1
tp3510
a(S'MANIFEST'
p3511
I1
tp3512
a(S'rules'
p3513
I1
tp3514
a(S'Address'
p3515
I1
tp3516
a(S'addFolderERK'
p3517
I1
tp3518
a(S'SessionStorageED'
p3519
I1
tp3520
a(S'SessionStorageEE'
p3521
I1
tp3522
a(S'alert'
p3523
I1
tp3524
a(S'registerNormalizedTypeERK'
p3525
I1
tp3526
a(S'MbP'
p3527
I1
tp3528
a(S'sortEiN'
p3529
I1
tp3530
a(S'errorChangedERK'
p3531
I1
tp3532
a(S'Unlinking'
p3533
I1
tp3534
a(S'QtSharedPointer'
p3535
I1
tp3536
a(S'syspath'
p3537
I1
tp3538
a(S'nochain'
p3539
I1
tp3540
a(S'tMH'
p3541
I1
tp3542
a(S'uSIcU'
p3543
I1
tp3544
a(S'nocerts'
p3545
I1
tp3546
a(S'Oe'
p3547
I1
tp3548
a(S'httpkeepalive'
p3549
I1
tp3550
a(S'localUrlChangedEv'
p3551
I1
tp3552
a(S'ON'
p3553
I1
tp3554
a(S'OL'
p3555
I1
tp3556
a(S'OK'
p3557
I1
tp3558
a(S'QArrayData'
p3559
I1
tp3560
a(S'OD'
p3561
I1
tp3562
a(S'continue'
p3563
I1
tp3564
a(S'OY'
p3565
I1
tp3566
a(S'clearAll'
p3567
I1
tp3568
a(S'OP'
p3569
I1
tp3570
a(S'DEv'
p3571
I1
tp3572
a(S'setPath'
p3573
I1
tp3574
a(S'QTimerEvent'
p3575
I1
tp3576
a(S'crls'
p3577
I1
tp3578
a(S'bf'
p3579
I1
tp3580
a(S'kfile'
p3581
I1
tp3582
a(S'bn'
p3583
I1
tp3584
a(S'RESUMPTION'
p3585
I1
tp3586
a(S'eventEP'
p3587
I1
tp3588
a(S'crlf'
p3589
I1
tp3590
a(S'wget'
p3591
I1
tp3592
a(S'Domain'
p3593
I1
tp3594
a(S'maxlen'
p3595
I1
tp3596
a(S'bP'
p3597
I1
tp3598
a(S'QSlotObjectBaseEN'
p3599
I1
tp3600
a(S'openE'
p3601
I1
tp3602
a(S'NEW'
p3603
I1
tp3604
a(S'NET'
p3605
I1
tp3606
a(S'hexR'
p3607
I1
tp3608
a(S'pcre'
p3609
I1
tp3610
a(S'span'
p3611
I1
tp3612
a(S'retrieving'
p3613
I1
tp3614
a(S'sock'
p3615
I1
tp3616
a(S'duplicate'
p3617
I1
tp3618
a(S'textual'
p3619
I1
tp3620
a(S'custom'
p3621
I1
tp3622
a(S'fgetc'
p3623
I1
tp3624
a(S'AVAUATSH'
p3625
I1
tp3626
a(S'certification'
p3627
I1
tp3628
a(S'opens'
p3629
I1
tp3630
a(S'uY'
p3631
I1
tp3632
a(S'poster'
p3633
I1
tp3634
a(S'uW'
p3635
I1
tp3636
a(S'uQ'
p3637
I1
tp3638
a(S'uL'
p3639
I1
tp3640
a(S'uN'
p3641
I1
tp3642
a(S'uH'
p3643
I1
tp3644
a(S'uE'
p3645
I1
tp3646
a(S'CAfile'
p3647
I1
tp3648
a(S'Vdo'
p3649
I1
tp3650
a(S'MEM'
p3651
I1
tp3652
a(S'currentTabChanged'
p3653
I1
tp3654
a(S'un'
p3655
I1
tp3656
a(S'verification'
p3657
I1
tp3658
a(S'impl'
p3659
I1
tp3660
a(S'pkey'
p3661
I1
tp3662
a(S'defined'
p3663
I1
tp3664
a(S'latestdraft'
p3665
I1
tp3666
a(S'parser'
p3667
I1
tp3668
a(S'HistoryEntryEE'
p3669
I1
tp3670
a(S'Detected'
p3671
I1
tp3672
a(S'defines'
p3673
I1
tp3674
a(S'TabsModelEE'
p3675
I1
tp3676
a(S'TabsModelED'
p3677
I1
tp3678
a(S'QObject'
p3679
I1
tp3680
a(S'STATUS'
p3681
I1
tp3682
a(S'TouchScreen'
p3683
I1
tp3684
a(S'lockedChanged'
p3685
I1
tp3686
a(S'robots'
p3687
I1
tp3688
a(S'DefinedntsrSA'
p3689
I1
tp3690
a(S'KGS'
p3691
I1
tp3692
a(S'Skipping'
p3693
I1
tp3694
a(S'partial'
p3695
I1
tp3696
a(S'scratch'
p3697
I1
tp3698
a(S'results'
p3699
I1
tp3700
a(S'ignorecase'
p3701
I1
tp3702
a(S'IQcd'
p3703
I1
tp3704
a(S'CPU'
p3705
I1
tp3706
a(S'nocontrol'
p3707
I1
tp3708
a(S'distanceThreshold'
p3709
I1
tp3710
a(S'derefEPN'
p3711
I1
tp3712
a(S'SearchEngineLb'
p3713
I1
tp3714
a(S'SearchEngineLi'
p3715
I1
tp3716
a(S'sourceRowsInsertedERK'
p3717
I1
tp3718
a(S'recip'
p3719
I1
tp3720
a(S'magic'
p3721
I1
tp3722
a(S'ONLY'
p3723
I1
tp3724
a(S'limitEv'
p3725
I1
tp3726
a(S'evp'
p3727
I1
tp3728
a(S'Hcr'
p3729
I1
tp3730
a(S'NVUb'
p3731
I1
tp3732
a(S'Currently'
p3733
I1
tp3734
a(S'video'
p3735
I1
tp3736
a(S'NONHTTP'
p3737
I1
tp3738
a(S'licenses'
p3739
I1
tp3740
a(S'PBEPARAM'
p3741
I1
tp3742
a(S'odd'
p3743
I1
tp3744
a(S'SELECT'
p3745
I1
tp3746
a(S'HcP'
p3747
I1
tp3748
a(S'HcW'
p3749
I1
tp3750
a(S'HcB'
p3751
I1
tp3752
a(S'HcA'
p3753
I1
tp3754
a(S'HcG'
p3755
I1
tp3756
a(S'HcE'
p3757
I1
tp3758
a(S'HcJ'
p3759
I1
tp3760
a(S'HcK'
p3761
I1
tp3762
a(S'HcH'
p3763
I1
tp3764
a(S'distanceThresholdChangedEd'
p3765
I1
tp3766
a(S'HcO'
p3767
I1
tp3768
a(S'indef'
p3769
I1
tp3770
a(S'dataEi'
p3771
I1
tp3772
a(S'len'
p3773
I1
tp3774
a(S'spkac'
p3775
I1
tp3776
a(S'ABEDABELABETABLEABUTACHEACIDACMEACREACTAACTSADAMADDSADENAFARAFROAGEEAHEMAHOYAIDAAIDEAIDSAIRYAJARAKINALANALECALGAALIAALLYALMAALOEALSOALTOALUMALVAAMENAMESAMIDAMMOAMOKAMOSAMRAANDYANEWANNAANNEANTEANTIAQUAARABARCHAREAARGOARIDARMYARTSARTYASIAASKSATOMAUNTAURAAUTOAVERAVIDAVISAVONAVOWAWAYAWRYBABEBABYBACHBACKBADEBAILBAITBAKEBALDBALEBALIBALKBALLBALMBANDBANEBANGBANKBARBBARDBAREBARKBARNBARRBASEBASHBASKBASSBATEBATHBAWDBAWLBEADBEAKBEAMBEANBEARBEATBEAUBECKBEEFBEENBEERBEETBELABELLBELTBENDBENTBERGBERNBERTBESSBESTBETABETHBHOYBIASBIDEBIENBILEBILKBILLBINDBINGBIRDBITEBITSBLABBLATBLEDBLEWBLOBBLOCBLOTBLOWBLUEBLUMBLURBOARBOATBOCABOCKBODEBODYBOGYBOHRBOILBOLDBOLOBOLTBOMBBONABONDBONEBONGBONNBONYBOOKBOOMBOONBOOTBOREBORGBORNBOSEBOSSBOTHBOUTBOWLBOYDBRADBRAEBRAGBRANBRAYBREDBREWBRIGBRIMBROWBUCKBUDDBUFFBULBBULKBULLBUNKBUNTBUOYBURGBURLBURNBURRBURTBURYBUSHBUSSBUSTBUSYBYTECADYCAFECAGECAINCAKECALFCALLCALMCAMECANECANTCARDCARECARLCARRCARTCASECASHCASKCASTCAVECEILCELLCENTCERNCHADCHARCHATCHAWCHEFCHENCHEWCHICCHINCHOUCHOWCHUBCHUGCHUMCITECITYCLADCLAMCLANCLAWCLAYCLODCLOGCLOTCLUBCLUECOALCOATCOCACOCKCOCOCODACODECODYCOEDCOILCOINCOKECOLACOLDCOLTCOMACOMBCOMECOOKCOOLCOONCOOTCORDCORECORKCORNCOSTCOVECOWLCRABCRAGCRAMCRAYCREWCRIBCROWCRUDCUBACUBECUFFCULLCULTCUNYCURBCURDCURECURLCURTCUTSDADEDALEDAMEDANADANEDANGDANKDAREDARKDARNDARTDASHDATADATEDAVEDAVYDAWNDAYSDEADDEAFDEALDEANDEARDEBTDECKDEEDDEEMDEERDEFTDEFYDELLDENTDENYDESKDIALDICEDIEDDIETDIMEDINEDINGDINTDIREDIRTDISCDISHDISKDIVEDOCKDOESDOLEDOLLDOLTDOMEDONEDOOMDOORDORADOSEDOTEDOUGDOURDOVEDOWNDRABDRAGDRAMDRAWDREWDRUBDRUGDRUMDUALDUCKDUCTDUELDUETDUKEDULLDUMBDUNEDUNKDUSKDUSTDUTYEACHEARLEARNEASEEASTEASYEBENECHOEDDYEDENEDGEEDGYEDITEDNAEGANELANELBAELLAELSEEMILEMITEMMAENDSERICEROSEVENEVEREVILEYEDFACEFACTFADEFAILFAINFAIRFAKEFALLFAMEFANGFARMFASTFATEFAWNFEARFEATFEEDFEELFEETFELLFELTFENDFERNFESTFEUDFIEFFIGSFILEFILLFILMFINDFINEFINKFIREFIRMFISHFISKFISTFITSFIVEFLAGFLAKFLAMFLATFLAWFLEAFLEDFLEWFLITFLOCFLOGFLOWFLUBFLUEFOALFOAMFOGYFOILFOLDFOLKFONDFONTFOODFOOLFOOTFORDFOREFORKFORMFORTFOSSFOULFOURFOWLFRAUFRAYFREDFREEFRETFREYFROGFROMFUELFULLFUMEFUNDFUNKFURYFUSEFUSSGAFFGAGEGAILGAINGAITGALAGALEGALLGALTGAMEGANGGARBGARYGASHGATEGAULGAURGAVEGAWKGEARGELDGENEGENTGERMGETSGIBEGIFTGILDGILLGILTGINAGIRDGIRLGISTGIVEGLADGLEEGLENGLIBGLOBGLOMGLOWGLUEGLUMGLUTGOADGOALGOATGOERGOESGOLDGOLFGONEGONGGOODGOOFGOREGORYGOSHGOUTGOWNGRABGRADGRAYGREGGREWGREYGRIDGRIMGRINGRITGROWGRUBGULFGULLGUNKGURUGUSHGUSTGWENGWYNHAAGHAASHACKHAILHAIRHALEHALFHALLHALOHALTHANDHANGHANKHANSHARDHARKHARMHARTHASHHASTHATEHATHHAULHAVEHAWKHAYSHEADHEALHEARHEATHEBEHECKHEEDHEELHEFTHELDHELLHELMHERBHERDHEREHEROHERSHESSHEWNHICKHIDEHIGHHIKEHILLHILTHINDHINTHIREHISSHIVEHOBOHOCKHOFFHOLDHOLEHOLMHOLTHOMEHONEHONKHOODHOOFHOOKHOOTHORNHOSEHOSTHOURHOVEHOWEHOWLHOYTHUCKHUEDHUFFHUGEHUGHHUGOHULKHULLHUNKHUNTHURDHURLHURTHUSHHYDEHYMNIBISICONIDEAIDLEIFFYINCAINCHINTOIONSIOTAIOWAIRISIRMAIRONISLEITCHITEMIVANJACKJADEJAILJAKEJANEJAVAJEANJEFFJERKJESSJESTJIBEJILLJILTJIVEJOANJOBSJOCKJOELJOEYJOHNJOINJOKEJOLTJOVEJUDDJUDEJUDOJUDYJUJUJUKEJULYJUNEJUNKJUNOJURYJUSTJUTEKAHNKALEKANEKANTKARLKATEKEELKEENKENOKENTKERNKERRKEYSKICKKILLKINDKINGKIRKKISSKITEKLANKNEEKNEWKNITKNOBKNOTKNOWKOCHKONGKUDOKURDKURTKYLELACELACKLACYLADYLAIDLAINLAIRLAKELAMBLAMELANDLANELANGLARDLARKLASSLASTLATELAUDLAVALAWNLAWSLAYSLEADLEAFLEAKLEANLEARLEEKLEERLEFTLENDLENSLENTLEONLESKLESSLESTLETSLIARLICELICKLIEDLIENLIESLIEULIFELIFTLIKELILALILTLILYLIMALIMBLIMELINDLINELINKLINTLIONLISALISTLIVELOADLOAFLOAMLOANLOCKLOFTLOGELOISLOLALONELONGLOOKLOONLOOTLORDLORELOSELOSSLOSTLOUDLOVELOWELUCKLUCYLUGELUKELULULUNDLUNGLURALURELURKLUSHLUSTLYLELYNNLYONLYRAMACEMADEMAGIMAIDMAILMAINMAKEMALEMALIMALLMALTMANAMANNMANYMARCMAREMARKMARSMARTMARYMASHMASKMASSMASTMATEMATHMAULMAYOMEADMEALMEANMEATMEEKMEETMELDMELTMEMOMENDMENUMERTMESHMESSMICEMIKEMILDMILEMILKMILLMILTMIMIMINDMINEMINIMINKMINTMIREMISSMISTMITEMITTMOANMOATMOCKMODEMOLDMOLEMOLLMOLTMONAMONKMONTMOODMOONMOORMOOTMOREMORNMORTMOSSMOSTMOTHMOVEMUCHMUCKMUDDMUFFMULEMULLMURKMUSHMUSTMUTEMUTTMYRAMYTHNAGYNAILNAIRNAMENARYNASHNAVENAVYNEALNEARNEATNECKNEEDNEILNELLNEONNERONESSNESTNEWSNEWTNIBSNICENICKNILENINANINENOAHNODENOELNOLLNONENOOKNOONNORMNOSENOTENOUNNOVANUDENULLNUMBOATHOBEYOBOEODINOHIOOILYOINTOKAYOLAFOLDYOLGAOLINOMANOMENOMITONCEONESONLYONTOONUSORALORGYOSLOOTISOTTOOUCHOUSTOUTSOVALOVENOVEROWLYOWNSQUADQUITQUODRACERACKRACYRAFTRAGERAIDRAILRAINRAKERANKRANTRARERASHRATERAVERAYSREADREALREAMREARRECKREEDREEFREEKREELREIDREINRENARENDRENTRESTRICERICHRICKRIDERIFTRILLRIMERINGRINKRISERISKRITEROADROAMROARROBEROCKRODEROILROLLROMEROODROOFROOKROOMROOTROSAROSEROSSROSYROTHROUTROVEROWEROWSRUBERUBYRUDERUDYRUINRULERUNGRUNSRUNTRUSERUSHRUSKRUSSRUSTRUTHSACKSAFESAGESAIDSAILSALESALKSALTSAMESANDSANESANGSANKSARASAULSAVESAYSSCANSCARSCATSCOTSEALSEAMSEARSEATSEEDSEEKSEEMSEENSEESSELFSELLSENDSENTSETSSEWNSHAGSHAMSHAWSHAYSHEDSHIMSHINSHODSHOESHOTSHOWSHUNSHUTSICKSIDESIFTSIGHSIGNSILKSILLSILOSILTSINESINGSINKSIRESITESITSSITUSKATSKEWSKIDSKIMSKINSKITSLABSLAMSLATSLAYSLEDSLEWSLIDSLIMSLITSLOBSLOGSLOTSLOWSLUGSLUMSLURSMOGSMUGSNAGSNOBSNOWSNUBSNUGSOAKSOARSOCKSODASOFASOFTSOILSOLDSOMESONGSOONSOOTSORESORTSOULSOURSOWNSTABSTAGSTANSTARSTAYSTEMSTEWSTIRSTOWSTUBSTUNSUCHSUDSSUITSULKSUMSSUNGSUNKSURESURFSWABSWAGSWAMSWANSWATSWAYSWIMSWUMTACKTACTTAILTAKETALETALKTALLTANKTASKTATETAUTTEALTEAMTEARTECHTEEMTEENTEETTELLTENDTENTTERMTERNTESSTESTTHANTHATTHEETHEMTHENTHEYTHINTHISTHUDTHUGTICKTIDETIDYTIEDTIERTILETILLTILTTIMETINATINETINTTINYTIRETOADTOGOTOILTOLDTOLLTONETONGTONYTOOKTOOLTOOTTORETORNTOTETOURTOUTTOWNTRAGTRAMTRAYTREETREKTRIGTRIMTRIOTRODTROTTROYTRUETUBATUBETUCKTUFTTUNATUNETUNGTURFTURNTUSKTWIGTWINTWITULANUNITURGEUSEDUSERUSESUTAHVAILVAINVALEVARYVASEVASTVEALVEDAVEILVEINVENDVENTVERBVERYVETOVICEVIEWVINEVISEVOIDVOLTVOTEWACKWADEWAGEWAILWAITWAKEWALEWALKWALLWALTWANDWANEWANGWANTWARDWARMWARNWARTWASHWASTWATSWATTWAVEWAVYWAYSWEAKWEALWEANWEARWEEDWEEKWEIRWELDWELLWELTWENTWEREWERTWESTWHAMWHATWHEEWHENWHETWHOAWHOMWICKWIFEWILDWILLWINDWINEWINGWINKWINOWIREWISEWISHWITHWOLFWONTWOODWOOLWORDWOREWORKWORMWORNWOVEWRITWYNNYALEYANGYANKYARDYARNYAWLYAWNYEAHYEARYELLYOGAYOKE'
p3777
I1
tp3778
a(S'ctx'
p3779
I1
tp3780
a(S'registerConverterEiE'
p3781
I1
tp3782
a(S'rdn'
p3783
I1
tp3784
a(S'ItemChangeERKNS'
p3785
I1
tp3786
a(S'POINT'
p3787
I1
tp3788
a(S'currentIndexEv'
p3789
I1
tp3790
a(S'CAkeyform'
p3791
I1
tp3792
a(S'TimeSourceE'
p3793
I1
tp3794
a(S'carrying'
p3795
I1
tp3796
a(S'QTimer'
p3797
I1
tp3798
a(S'acceptregex'
p3799
I1
tp3800
a(S'Library'
p3801
I1
tp3802
a(S'QTimeC'
p3803
I1
tp3804
a(S'dgst'
p3805
I1
tp3806
a(S'QMetaTypeFunctionHelperI'
p3807
I1
tp3808
a(S'process'
p3809
I1
tp3810
a(S'purposes'
p3811
I1
tp3812
a(S'signers'
p3813
I1
tp3814
a(S'sceneDistanceChangedEd'
p3815
I1
tp3816
a(S'Policy'
p3817
I1
tp3818
a(S'uncompressed'
p3819
I1
tp3820
a(S'nameForMimetypeERK'
p3821
I1
tp3822
a(S'blocks'
p3823
I1
tp3824
a(S'Request'
p3825
I1
tp3826
a(S'QKeySequence'
p3827
I1
tp3828
a(S'applicationFilePathEv'
p3829
I1
tp3830
a(S'certsout'
p3831
I1
tp3832
a(S'alloc'
p3833
I1
tp3834
a(S'rowsAboutToBeRemoved'
p3835
I1
tp3836
a(S'CONFIG'
p3837
I1
tp3838
a(S'One'
p3839
I1
tp3840
a(S'allow'
p3841
I1
tp3842
a(S'AVAUL'
p3843
I1
tp3844
a(S'AVAUM'
p3845
I1
tp3846
a(S'vmi'
p3847
I1
tp3848
a(S'move'
p3849
I1
tp3850
a(S'AVAUE'
p3851
I1
tp3852
a(S'rAUATE'
p3853
I1
tp3854
a(S'onRowsRemovedERK'
p3855
I1
tp3856
a(S'reallocDataEii'
p3857
I1
tp3858
a(S'vms'
p3859
I1
tp3860
a(S'CAPABILITY'
p3861
I1
tp3862
a(S'nrequest'
p3863
I1
tp3864
a(S'chosen'
p3865
I1
tp3866
a(S'setAttributeEN'
p3867
I1
tp3868
a(S'devicePath'
p3869
I1
tp3870
a(S'castEP'
p3871
I1
tp3872
a(S'SequenceFormatE'
p3873
I1
tp3874
a(S'QDateED'
p3875
I1
tp3876
a(S'folderEv'
p3877
I1
tp3878
a(S'SERVER'
p3879
I1
tp3880
a(S'merge'
p3881
I1
tp3882
a(S'allocateEmmm'
p3883
I1
tp3884
a(S'Network'
p3885
I1
tp3886
a(S'doing'
p3887
I1
tp3888
a(S'toreq'
p3889
I1
tp3890
a(S'meta'
p3891
I1
tp3892
a(S'static'
p3893
I1
tp3894
a(S'meth'
p3895
I1
tp3896
a(S'patch'
p3897
I1
tp3898
a(S'relro'
p3899
I1
tp3900
a(S'dataChangedERK'
p3901
I1
tp3902
a(S'dbfile'
p3903
I1
tp3904
a(S'Attempt'
p3905
I1
tp3906
a(S'Tolerate'
p3907
I1
tp3908
a(S'Passing'
p3909
I1
tp3910
a(S'fseeko'
p3911
I1
tp3912
a(S'Point'
p3913
I1
tp3914
a(S'QListIiEP'
p3915
I1
tp3916
a(S'Prot'
p3917
I1
tp3918
a(S'owned'
p3919
I1
tp3920
a(S'QInputDeviceED'
p3921
I1
tp3922
a(S'QInputDeviceEE'
p3923
I1
tp3924
a(S'owner'
p3925
I1
tp3926
a(S'ordering'
p3927
I1
tp3928
a(S'KMG'
p3929
I1
tp3930
a(S'wrappings'
p3931
I1
tp3932
a(S'AVAUATUSLcw'
p3933
I1
tp3934
a(S'convertEiPv'
p3935
I1
tp3936
a(S'connectImplEPKS'
p3937
I1
tp3938
a(S'tlsextdebug'
p3939
I1
tp3940
a(S'getEntryIndexERK'
p3941
I1
tp3942
a(S'dirprefix'
p3943
I1
tp3944
a(S'typeEv'
p3945
I1
tp3946
a(S'applicationNameEv'
p3947
I1
tp3948
a(S'QWheelEvent'
p3949
I1
tp3950
a(S'ERKS'
p3951
I1
tp3952
a(S'false'
p3953
I1
tp3954
a(S'REASON'
p3955
I1
tp3956
a(S'totalEv'
p3957
I1
tp3958
a(S'verifyrecover'
p3959
I1
tp3960
a(S'DigestInit'
p3961
I1
tp3962
a(S'minSpeedChangedEd'
p3963
I1
tp3964
a(S'element'
p3965
I1
tp3966
a(S'deviceFilter'
p3967
I1
tp3968
a(S'documents'
p3969
I1
tp3970
a(S'fseek'
p3971
I1
tp3972
a(S'numberEii'
p3973
I1
tp3974
a(S'ZYxG'
p3975
I1
tp3976
a(S'moveToDownloadsERK'
p3977
I1
tp3978
a(S'accuracy'
p3979
I1
tp3980
a(S'DefinedntsrS'
p3981
I1
tp3982
a(S'GFp'
p3983
I1
tp3984
a(S'QHashIi'
p3985
I1
tp3986
a(S'HEADER'
p3987
I1
tp3988
a(S'TypeFlagEEPK'
p3989
I1
tp3990
a(S'addImportPathERK'
p3991
I1
tp3992
a(S'lD'
p3993
I1
tp3994
a(S'dbg'
p3995
I1
tp3996
a(S'trackedPositionChangedEd'
p3997
I1
tp3998
a(S'FakeTimerFactoryE'
p3999
I1
tp4000
a(S'FakeTimerFactoryD'
p4001
I1
tp4002
a(S'DirectionLi'
p4003
I1
tp4004
a(S'redirect'
p4005
I1
tp4006
a(S'pause'
p4007
I1
tp4008
a(S'unHide'
p4009
I1
tp4010
a(S'buttons'
p4011
I1
tp4012
a(S'genconf'
p4013
I1
tp4014
a(S'onUrlChangedEv'
p4015
I1
tp4016
a(S'means'
p4017
I1
tp4018
a(S'SignerInfo'
p4019
I1
tp4020
a(S'lateuser'
p4021
I1
tp4022
a(S'Keep'
p4023
I1
tp4024
a(S'RELATIVE'
p4025
I1
tp4026
a(S'qmlRegisterTypeI'
p4027
I1
tp4028
a(S'aes'
p4029
I1
tp4030
a(S'updatedb'
p4031
I1
tp4032
a(S'pauseDownloadERK'
p4033
I1
tp4034
a(S'nist'
p4035
I1
tp4036
a(S'requisites'
p4037
I1
tp4038
a(S'Recursive'
p4039
I1
tp4040
a(S'Pu'
p4041
I1
tp4042
a(S'TextSearchFilterModelLi'
p4043
I1
tp4044
a(S'Source'
p4045
I1
tp4046
a(S'Pj'
p4047
I1
tp4048
a(S'TextSearchFilterModelLb'
p4049
I1
tp4050
a(S'CRL'
p4051
I1
tp4052
a(S'PR'
p4053
I1
tp4054
a(S'PP'
p4055
I1
tp4056
a(S'PY'
p4057
I1
tp4058
a(S'updateSceneDirectionVectorEv'
p4059
I1
tp4060
a(S'hasTouchScreen'
p4061
I1
tp4062
a(S'PK'
p4063
I1
tp4064
a(S'email'
p4065
I1
tp4066
a(S'PM'
p4067
I1
tp4068
a(S'ContentH'
p4069
I1
tp4070
a(S'gencrl'
p4071
I1
tp4072
a(S'negotiated'
p4073
I1
tp4074
a(S'newhdr'
p4075
I1
tp4076
a(S'configuration'
p4077
I1
tp4078
a(S'tls'
p4079
I1
tp4080
a(S'attributesEv'
p4081
I1
tp4082
a(S'QByteArrayi'
p4083
I1
tp4084
a(S'eta'
p4085
I1
tp4086
a(S'streams'
p4087
I1
tp4088
a(S'QPointF'
p4089
I1
tp4090
a(S'Contents'
p4091
I1
tp4092
a(S'addShortcutEP'
p4093
I1
tp4094
a(S'cb'
p4095
I1
tp4096
a(S'xcert'
p4097
I1
tp4098
a(S'cf'
p4099
I1
tp4100
a(S'QStyleHints'
p4101
I1
tp4102
a(S'cw'
p4103
I1
tp4104
a(S'SCSV'
p4105
I1
tp4106
a(S'unownedTouchEvent'
p4107
I1
tp4108
a(S'windowChanged'
p4109
I1
tp4110
a(S'cP'
p4111
I1
tp4112
a(S'touchSceneXEv'
p4113
I1
tp4114
a(S'QUrlED'
p4115
I1
tp4116
a(S'QUrlEC'
p4117
I1
tp4118
a(S'EPKci'
p4119
I1
tp4120
a(S'Compile'
p4121
I1
tp4122
a(S'RunFunctionTaskBaseIvEE'
p4123
I1
tp4124
a(S'addDatabaseERK'
p4125
I1
tp4126
a(S'BookmarksFolderListModelEE'
p4127
I1
tp4128
a(S'BookmarksFolderListModelED'
p4129
I1
tp4130
a(S'ZlsR'
p4131
I1
tp4132
a(S'Number'
p4133
I1
tp4134
a(S'SEED'
p4135
I1
tp4136
a(S'ZTS'
p4137
I1
tp4138
a(S'STDOUT'
p4139
I1
tp4140
a(S'vj'
p4141
I1
tp4142
a(S'vl'
p4143
I1
tp4144
a(S'site'
p4145
I1
tp4146
a(S'setCompositionTimeEi'
p4147
I1
tp4148
a(S'hardware'
p4149
I1
tp4150
a(S'Strict'
p4151
I1
tp4152
a(S'QQuickShortcutLb'
p4153
I1
tp4154
a(S'setPreviousPosERK'
p4155
I1
tp4156
a(S'QQuickShortcutLi'
p4157
I1
tp4158
a(S'QNetworkInterface'
p4159
I1
tp4160
a(S'libudev'
p4161
I1
tp4162
a(S'vA'
p4163
I1
tp4164
a(S'vE'
p4165
I1
tp4166
a(S'vJ'
p4167
I1
tp4168
a(S'psl'
p4169
I1
tp4170
a(S'vM'
p4171
I1
tp4172
a(S'vS'
p4173
I1
tp4174
a(S'keysize'
p4175
I1
tp4176
a(S'longjmp'
p4177
I1
tp4178
a(S'CLOSED'
p4179
I1
tp4180
a(S'infinite'
p4181
I1
tp4182
a(S'php'
p4183
I1
tp4184
a(S'ofb'
p4185
I1
tp4186
a(S'renegotiates'
p4187
I1
tp4188
a(S'Need'
p4189
I1
tp4190
a(S'audio'
p4191
I1
tp4192
a(S'calculateEv'
p4193
I1
tp4194
a(S'CHARSETALIASDIR'
p4195
I1
tp4196
a(S'localencoding'
p4197
I1
tp4198
a(S'HistoryLastVisitDateListModelEiRK'
p4199
I1
tp4200
a(S'DigestVerifyInit'
p4201
I1
tp4202
a(S'Reason'
p4203
I1
tp4204
a(S'terminating'
p4205
I1
tp4206
a(S'desx'
p4207
I1
tp4208
a(S'checking'
p4209
I1
tp4210
a(S'INVALID'
p4211
I1
tp4212
a(S'XAW'
p4213
I1
tp4214
a(S'msecsSinceReferenceEv'
p4215
I1
tp4216
a(S'Unterminated'
p4217
I1
tp4218
a(S'desc'
p4219
I1
tp4220
a(S'CandidateInfoEED'
p4221
I1
tp4222
a(S'disconnectNotifyERK'
p4223
I1
tp4224
a(S'tlsext'
p4225
I1
tp4226
a(S'TimerFactoryD'
p4227
I1
tp4228
a(S'TimerFactoryE'
p4229
I1
tp4230
a(S'CRLform'
p4231
I1
tp4232
a(S'QListIiEN'
p4233
I1
tp4234
a(S'QMouseEventC'
p4235
I1
tp4236
a(S'removeExistingEntryFromDatabaseERK'
p4237
I1
tp4238
a(S'choosing'
p4239
I1
tp4240
a(S'QUrlneERKS'
p4241
I1
tp4242
a(S'HelloVerifyRequest'
p4243
I1
tp4244
a(S'hasThemeIconERK'
p4245
I1
tp4246
a(S'symlink'
p4247
I1
tp4248
a(S'VOx'
p4249
I1
tp4250
a(S'setFolderERK'
p4251
I1
tp4252
a(S'insertEiPK'
p4253
I1
tp4254
a(S'QQmlExtensionPluginD'
p4255
I1
tp4256
a(S'QQmlExtensionPluginC'
p4257
I1
tp4258
a(S'insufficient'
p4259
I1
tp4260
a(S'software'
p4261
I1
tp4262
a(S'terminatev'
p4263
I1
tp4264
a(S'QKeyEvent'
p4265
I1
tp4266
a(S'Zhxd'
p4267
I1
tp4268
a(S'ftpsimplicit'
p4269
I1
tp4270
a(S'putc'
p4271
I1
tp4272
a(S'tearDownEventFilteringEv'
p4273
I1
tp4274
a(S'SMIME'
p4275
I1
tp4276
a(S'compute'
p4277
I1
tp4278
a(S'onIconChangedEv'
p4279
I1
tp4280
a(S'suggestionsUrlTemplateEv'
p4281
I1
tp4282
a(S'localeconv'
p4283
I1
tp4284
a(S'frequency'
p4285
I1
tp4286
a(S'Qml'
p4287
I1
tp4288
a(S'certopt'
p4289
I1
tp4290
a(S'ADequeuing'
p4291
I1
tp4292
a(S'totalChanged'
p4293
I1
tp4294
a(S'inf'
p4295
I1
tp4296
a(S'bufsize'
p4297
I1
tp4298
a(S'uflow'
p4299
I1
tp4300
a(S'httpsproxy'
p4301
I1
tp4302
a(S'waitForReadyReadEi'
p4303
I1
tp4304
a(S'lname'
p4305
I1
tp4306
a(S'getopt'
p4307
I1
tp4308
a(S'lastVisitedIconChanged'
p4309
I1
tp4310
a(S'regerror'
p4311
I1
tp4312
a(S'rehashEi'
p4313
I1
tp4314
a(S'Context'
p4315
I1
tp4316
a(S'eof'
p4317
I1
tp4318
a(S'rule'
p4319
I1
tp4320
a(S'isLockedEv'
p4321
I1
tp4322
a(S'QMetaObjectPKc'
p4323
I1
tp4324
a(S'entropy'
p4325
I1
tp4326
a(S'qtmetadata'
p4327
I1
tp4328
a(S'saved'
p4329
I1
tp4330
a(S'HcrH'
p4331
I1
tp4332
a(S'const'
p4333
I1
tp4334
a(S'QFutureInterfaceBase'
p4335
I1
tp4336
a(S'Changing'
p4337
I1
tp4338
a(S'Inserted'
p4339
I1
tp4340
a(S'QModelIndex'
p4341
I1
tp4342
a(S'CURRENT'
p4343
I1
tp4344
a(S'onDomainDataChanged'
p4345
I1
tp4346
a(S'QQmlList'
p4347
I1
tp4348
a(S'tickets'
p4349
I1
tp4350
a(S'cmd'
p4351
I1
tp4352
a(S'MAC'
p4353
I1
tp4354
a(S'removedDevice'
p4355
I1
tp4356
a(S'cms'
p4357
I1
tp4358
a(S'nameEv'
p4359
I1
tp4360
a(S'runEv'
p4361
I1
tp4362
a(S'keyReleaseEventEP'
p4363
I1
tp4364
a(S'QDateTimeeqERKS'
p4365
I1
tp4366
a(S'EVP'
p4367
I1
tp4368
a(S'QDebugD'
p4369
I1
tp4370
a(S'genericIconNameEv'
p4371
I1
tp4372
a(S'Available'
p4373
I1
tp4374
a(S'tcgetattr'
p4375
I1
tp4376
a(S'Generating'
p4377
I1
tp4378
a(S'libevdev'
p4379
I1
tp4380
a(S'StatusE'
p4381
I1
tp4382
a(S'localUrlEv'
p4383
I1
tp4384
a(S'YATE'
p4385
I1
tp4386
a(S'CERTIFIED'
p4387
I1
tp4388
a(S'vLH'
p4389
I1
tp4390
a(S'QQuickItemE'
p4391
I1
tp4392
a(S'equals'
p4393
I1
tp4394
a(S'UPDATE'
p4395
I1
tp4396
a(S'protection'
p4397
I1
tp4398
a(S'nextprotoneg'
p4399
I1
tp4400
a(S'items'
p4401
I1
tp4402
a(S'windowToItemTransformEv'
p4403
I1
tp4404
a(S'secure'
p4405
I1
tp4406
a(S'lastVisitedTitleChangedEv'
p4407
I1
tp4408
a(S'removeDeviceERK'
p4409
I1
tp4410
a(S'QWindowm'
p4411
I1
tp4412
a(S'ItRE'
p4413
I1
tp4414
a(S'keepalive'
p4415
I1
tp4416
a(S'removeEventFilterEPS'
p4417
I1
tp4418
a(S'negative'
p4419
I1
tp4420
a(S'retriever'
p4421
I1
tp4422
a(S'EwnW'
p4423
I1
tp4424
a(S'RecipientInfo'
p4425
I1
tp4426
a(S'QSequentialIterableImplENS'
p4427
I1
tp4428
a(S'activeChanged'
p4429
I1
tp4430
a(S'blocking'
p4431
I1
tp4432
a(S'Signing'
p4433
I1
tp4434
a(S'word'
p4435
I1
tp4436
a(S'domainChanged'
p4437
I1
tp4438
a(S'err'
p4439
I1
tp4440
a(S'work'
p4441
I1
tp4442
a(S'Header'
p4443
I1
tp4444
a(S'instanceEv'
p4445
I1
tp4446
a(S'Initialise'
p4447
I1
tp4448
a(S'mostRecentStartTimeEv'
p4449
I1
tp4450
a(S'VAfile'
p4451
I1
tp4452
a(S'rewind'
p4453
I1
tp4454
a(S'uaE'
p4455
I1
tp4456
a(S'ListIJS'
p4457
I1
tp4458
a(S'iteratorEE'
p4459
I1
tp4460
a(S'CertificateRequest'
p4461
I1
tp4462
a(S'Will'
p4463
I1
tp4464
a(S'Alias'
p4465
I1
tp4466
a(S'HeartbeatResponse'
p4467
I1
tp4468
a(S'law'
p4469
I1
tp4470
a(S'US'
p4471
I1
tp4472
a(S'Curves'
p4473
I1
tp4474
a(S'FALLBACK'
p4475
I1
tp4476
a(S'yytext'
p4477
I1
tp4478
a(S'nosigs'
p4479
I1
tp4480
a(S'FakeTimerFactory'
p4481
I1
tp4482
a(S'protocolEv'
p4483
I1
tp4484
a(S'setWideningAngleEd'
p4485
I1
tp4486
a(S'QQmlListPropertyI'
p4487
I1
tp4488
a(S'QHashData'
p4489
I1
tp4490
a(S'SOURCE'
p4491
I1
tp4492
a(S'Leftwards'
p4493
I1
tp4494
a(S'absoluteAxisEv'
p4495
I1
tp4496
a(S'urlencoded'
p4497
I1
tp4498
a(S'giveUpIfDisabledOrInvisible'
p4499
I1
tp4500
a(S'then'
p4501
I1
tp4502
a(S'them'
p4503
I1
tp4504
a(S'fragment'
p4505
I1
tp4506
a(S'safe'
p4507
I1
tp4508
a(S'Ignoring'
p4509
I1
tp4510
a(S'updateEv'
p4511
I1
tp4512
a(S'Specifying'
p4513
I1
tp4514
a(S'AWAVAUATSH'
p4515
I1
tp4516
a(S'Control'
p4517
I1
tp4518
a(S'pressedOutsideEv'
p4519
I1
tp4520
a(S'appened'
p4521
I1
tp4522
a(S'iE'
p4523
I1
tp4524
a(S'updateEP'
p4525
I1
tp4526
a(S'Connecting'
p4527
I1
tp4528
a(S'QQmlComponentC'
p4529
I1
tp4530
a(S'QObjectPPvPb'
p4531
I1
tp4532
a(S'schemes'
p4533
I1
tp4534
a(S'flock'
p4535
I1
tp4536
a(S'staticMetaObjectE'
p4537
I1
tp4538
a(S'network'
p4539
I1
tp4540
a(S'startScenePosEv'
p4541
I1
tp4542
a(S'QDeclarativeInputDeviceModelEEvPv'
p4543
I1
tp4544
a(S'sprintf'
p4545
I1
tp4546
a(S'Originally'
p4547
I1
tp4548
a(S'certified'
p4549
I1
tp4550
a(S'reneg'
p4551
I1
tp4552
a(S'PPPPPP'
p4553
I1
tp4554
a(S'Encrypted'
p4555
I1
tp4556
a(S'incorporated'
p4557
I1
tp4558
a(S'QMimeType'
p4559
I1
tp4560
a(S'SECTION'
p4561
I1
tp4562
a(S'Going'
p4563
I1
tp4564
a(S'maxDeviationChanged'
p4565
I1
tp4566
a(S'onIconChanged'
p4567
I1
tp4568
a(S'LastVisitedTitle'
p4569
I1
tp4570
a(S'rejects'
p4571
I1
tp4572
a(S'checkSpeedEv'
p4573
I1
tp4574
a(S'clearEv'
p4575
I1
tp4576
a(S'compromise'
p4577
I1
tp4578
a(S'uYf'
p4579
I1
tp4580
a(S'SessionStorageC'
p4581
I1
tp4582
a(S'SessionStorageD'
p4583
I1
tp4584
a(S'MultiNet'
p4585
I1
tp4586
a(S'updateSearchRolesEPK'
p4587
I1
tp4588
a(S'DirectionalDragAreaEE'
p4589
I1
tp4590
a(S'DirectionalDragAreaED'
p4591
I1
tp4592
a(S'tef'
p4593
I1
tp4594
a(S'VMS'
p4595
I1
tp4596
a(S'targetItemChanged'
p4597
I1
tp4598
a(S'supportedDragActionsEv'
p4599
I1
tp4600
a(S'strength'
p4601
I1
tp4602
a(S'realm'
p4603
I1
tp4604
a(S'includeSubdomains'
p4605
I1
tp4606
a(S'TouchPoint'
p4607
I1
tp4608
a(S'maxcount'
p4609
I1
tp4610
a(S'QTouchEventRK'
p4611
I1
tp4612
a(S'Qt'
p4613
I1
tp4614
a(S'Qw'
p4615
I1
tp4616
a(S'updatePaintNodeEP'
p4617
I1
tp4618
a(S'Button'
p4619
I1
tp4620
a(S'Resolving'
p4621
I1
tp4622
a(S'pwri'
p4623
I1
tp4624
a(S'Qc'
p4625
I1
tp4626
a(S'Qj'
p4627
I1
tp4628
a(S'CandidateInactivityTimerEFvvENS'
p4629
I1
tp4630
a(S'outputdocument'
p4631
I1
tp4632
a(S'responder'
p4633
I1
tp4634
a(S'QH'
p4635
I1
tp4636
a(S'QMetaMethod'
p4637
I1
tp4638
a(S'responded'
p4639
I1
tp4640
a(S'iRKS'
p4641
I1
tp4642
a(S'folderAddedERK'
p4643
I1
tp4644
a(S'ftps'
p4645
I1
tp4646
a(S'devtype'
p4647
I1
tp4648
a(S'toDateEv'
p4649
I1
tp4650
a(S'noindef'
p4651
I1
tp4652
a(S'just'
p4653
I1
tp4654
a(S'implementation'
p4655
I1
tp4656
a(S'setDevicePathERK'
p4657
I1
tp4658
a(S'appended'
p4659
I1
tp4660
a(S'QPrivateSignalE'
p4661
I1
tp4662
a(S'futureInterfaceEv'
p4663
I1
tp4664
a(S'localUrlChanged'
p4665
I1
tp4666
a(S'QDebuglsEPKc'
p4667
I1
tp4668
a(S'personality'
p4669
I1
tp4670
a(S'dn'
p4671
I1
tp4672
a(S'dl'
p4673
I1
tp4674
a(S'tKE'
p4675
I1
tp4676
a(S'tKA'
p4677
I1
tp4678
a(S'dd'
p4679
I1
tp4680
a(S'findTouchInfoEi'
p4681
I1
tp4682
a(S'db'
p4683
I1
tp4684
a(S'preferred'
p4685
I1
tp4686
a(S'da'
p4687
I1
tp4688
a(S'rawmemchr'
p4689
I1
tp4690
a(S'Quick'
p4691
I1
tp4692
a(S'tKf'
p4693
I1
tp4694
a(S'runs'
p4695
I1
tp4696
a(S'YYYYMMDDHHMMSSZ'
p4697
I1
tp4698
a(S'srandom'
p4699
I1
tp4700
a(S'dE'
p4701
I1
tp4702
a(S'Agent'
p4703
I1
tp4704
a(S'dA'
p4705
I1
tp4706
a(S'dT'
p4707
I1
tp4708
a(S'setLastPosERK'
p4709
I1
tp4710
a(S'AES'
p4711
I1
tp4712
a(S'adjustextension'
p4713
I1
tp4714
a(S'strcat'
p4715
I1
tp4716
a(S'Auth'
p4717
I1
tp4718
a(S'BUF'
p4719
I1
tp4720
a(S'trackedPositionChanged'
p4721
I1
tp4722
a(S'terms'
p4723
I1
tp4724
a(S'QStringRef'
p4725
I1
tp4726
a(S'wh'
p4727
I1
tp4728
a(S'wu'
p4729
I1
tp4730
a(S'COMMAND'
p4731
I1
tp4732
a(S'wz'
p4733
I1
tp4734
a(S'wC'
p4735
I1
tp4736
a(S'StandardKeyE'
p4737
I1
tp4738
a(S'isRunningInstalledvE'
p4739
I1
tp4740
a(S'com'
p4741
I1
tp4742
a(S'negotiation'
p4743
I1
tp4744
a(S'WPzHuFf'
p4745
I1
tp4746
a(S'COMPLETE'
p4747
I1
tp4748
a(S'Releasing'
p4749
I1
tp4750
a(S'Authorization'
p4751
I1
tp4752
a(S'Disabling'
p4753
I1
tp4754
a(S'ContentInfo'
p4755
I1
tp4756
a(S'curves'
p4757
I1
tp4758
a(S'setError'
p4759
I1
tp4760
a(S'ABCDEF'
p4761
I1
tp4762
a(S'vRO'
p4763
I1
tp4764
a(S'applied'
p4765
I1
tp4766
a(S'inhibit'
p4767
I1
tp4768
a(S'zlib'
p4769
I1
tp4770
a(S'endpoints'
p4771
I1
tp4772
a(S'conv'
p4773
I1
tp4774
a(S'setiv'
p4775
I1
tp4776
a(S'foldersEv'
p4777
I1
tp4778
a(S'skipping'
p4779
I1
tp4780
a(S'conf'
p4781
I1
tp4782
a(S'Falling'
p4783
I1
tp4784
a(S'QLocalSocketD'
p4785
I1
tp4786
a(S'QLocalSocketC'
p4787
I1
tp4788
a(S'perform'
p4789
I1
tp4790
a(S'BookmarksFolderModelE'
p4791
I1
tp4792
a(S'BookmarksFolderModelD'
p4793
I1
tp4794
a(S'nil'
p4795
I1
tp4796
a(S'customEventEP'
p4797
I1
tp4798
a(S'gzdopen'
p4799
I1
tp4800
a(S'nid'
p4801
I1
tp4802
a(S'pplicatiH'
p4803
I1
tp4804
a(S'InputTypeE'
p4805
I1
tp4806
a(S'onFolderDataChangedEv'
p4807
I1
tp4808
a(S'isReadyEv'
p4809
I1
tp4810
a(S'kept'
p4811
I1
tp4812
a(S'QSequentialIterableImplELb'
p4813
I1
tp4814
a(S'thf'
p4815
I1
tp4816
a(S'lpsv'
p4817
I1
tp4818
a(S'Conversion'
p4819
I1
tp4820
a(S'retryconnrefused'
p4821
I1
tp4822
a(S'adding'
p4823
I1
tp4824
a(S'QDateTimeaSERKS'
p4825
I1
tp4826
a(S'passive'
p4827
I1
tp4828
a(S'transformed'
p4829
I1
tp4830
a(S'ListIIEEEvE'
p4831
I1
tp4832
a(S'QQuickShortcutD'
p4833
I1
tp4834
a(S'QQuickShortcutC'
p4835
I1
tp4836
a(S'Try'
p4837
I1
tp4838
a(S'onTitleChangedEv'
p4839
I1
tp4840
a(S'rejectregex'
p4841
I1
tp4842
a(S'QSortFilterProxyModelD'
p4843
I1
tp4844
a(S'INTERFACE'
p4845
I1
tp4846
a(S'QSlotObjectIMN'
p4847
I1
tp4848
a(S'submitEv'
p4849
I1
tp4850
a(S'nsdb'
p4851
I1
tp4852
a(S'Downwards'
p4853
I1
tp4854
a(S'freeaddrinfo'
p4855
I1
tp4856
a(S'maxDeviation'
p4857
I1
tp4858
a(S'reportExceptionERK'
p4859
I1
tp4860
a(S'isEnabledEv'
p4861
I1
tp4862
a(S'ExternalRefCountWithCustomDeleterIN'
p4863
I1
tp4864
a(S'comments'
p4865
I1
tp4866
a(S'External'
p4867
I1
tp4868
a(S'denied'
p4869
I1
tp4870
a(S'dataFileChangedEv'
p4871
I1
tp4872
a(S'KMGTPE'
p4873
I1
tp4874
a(S'Property'
p4875
I1
tp4876
a(S'properties'
p4877
I1
tp4878
a(S'Unwind'
p4879
I1
tp4880
a(S'AYAZH'
p4881
I1
tp4882
a(S'accepts'
p4883
I1
tp4884
a(S'opie'
p4885
I1
tp4886
a(S'onTimeout'
p4887
I1
tp4888
a(S'helperEPK'
p4889
I1
tp4890
a(S'PPPPPPPPPP'
p4891
I1
tp4892
a(S'way'
p4893
I1
tp4894
a(S'JL'
p4895
I1
tp4896
a(S'RHcp'
p4897
I1
tp4898
a(S'TextSearchFilterModelELb'
p4899
I1
tp4900
a(S'genrsa'
p4901
I1
tp4902
a(S'something'
p4903
I1
tp4904
a(S'encoded'
p4905
I1
tp4906
a(S'true'
p4907
I1
tp4908
a(S'Distinguished'
p4909
I1
tp4910
a(S'reset'
p4911
I1
tp4912
a(S'mtu'
p4913
I1
tp4914
a(S'ParamTypeFlagEE'
p4915
I1
tp4916
a(S'QDirD'
p4917
I1
tp4918
a(S'QDirC'
p4919
I1
tp4920
a(S'minSpeed'
p4921
I1
tp4922
a(S'ftello'
p4923
I1
tp4924
a(S'NUMBER'
p4925
I1
tp4926
a(S'decrypting'
p4927
I1
tp4928
a(S'DHxparams'
p4929
I1
tp4930
a(S'Validity'
p4931
I1
tp4932
a(S'ShortcutContextE'
p4933
I1
tp4934
a(S'mouseUngrabEventEv'
p4935
I1
tp4936
a(S'QIODevice'
p4937
I1
tp4938
a(S'interval'
p4939
I1
tp4940
a(S'SessionStorageEiRK'
p4941
I1
tp4942
a(S'reception'
p4943
I1
tp4944
a(S'conformsTo'
p4945
I1
tp4946
a(S'EOF'
p4947
I1
tp4948
a(S'global'
p4949
I1
tp4950
a(S'QMetaTypeIdIN'
p4951
I1
tp4952
a(S'switches'
p4953
I1
tp4954
a(S'QMetaTypeIdIP'
p4955
I1
tp4956
a(S'serverpref'
p4957
I1
tp4958
a(S'giga'
p4959
I1
tp4960
a(S'helperEPFvPNS'
p4961
I1
tp4962
a(S'TouchGateD'
p4963
I1
tp4964
a(S'compositionTimeChanged'
p4965
I1
tp4966
a(S'Roles'
p4967
I1
tp4968
a(S'anonymous'
p4969
I1
tp4970
a(S'unencrypted'
p4971
I1
tp4972
a(S'Just'
p4973
I1
tp4974
a(S'presented'
p4975
I1
tp4976
a(S'EXT'
p4977
I1
tp4978
a(S'WILL'
p4979
I1
tp4980
a(S'recursing'
p4981
I1
tp4982
a(S'ESTABLISHED'
p4983
I1
tp4984
a(S'QSharedPointerIN'
p4985
I1
tp4986
a(S'htm'
p4987
I1
tp4988
a(S'digestbyname'
p4989
I1
tp4990
a(S'setupOrTearDownEventFilteringEv'
p4991
I1
tp4992
a(S'CMS'
p4993
I1
tp4994
a(S'appear'
p4995
I1
tp4996
a(S'chainCApath'
p4997
I1
tp4998
a(S'createTimerEP'
p4999
I1
tp5000
a(S'suggestionsUrlTemplateChanged'
p5001
I1
tp5002
a(S'QMapIiN'
p5003
I1
tp5004
a(S'waitForConnectedEi'
p5005
I1
tp5006
a(S'change'
p5007
I1
tp5008
a(S'sending'
p5009
I1
tp5010
a(S'tEj'
p5011
I1
tp5012
a(S'tEf'
p5013
I1
tp5014
a(S'INS'
p5015
I1
tp5016
a(S'Inc'
p5017
I1
tp5018
a(S'tEv'
p5019
I1
tp5020
a(S'unHideERK'
p5021
I1
tp5022
a(S'deviceCountEv'
p5023
I1
tp5024
a(S'uzf'
p5025
I1
tp5026
a(S'onRowsInserted'
p5027
I1
tp5028
a(S'beginMoveRowsERK'
p5029
I1
tp5030
a(S'regex'
p5031
I1
tp5032
a(S'terminal'
p5033
I1
tp5034
a(S'retcode'
p5035
I1
tp5036
a(S'QFileInfoEC'
p5037
I1
tp5038
a(S'directionChangedEN'
p5039
I1
tp5040
a(S'QFileInfoED'
p5041
I1
tp5042
a(S'SIZE'
p5043
I1
tp5044
a(S'deviceCountEN'
p5045
I1
tp5046
a(S'Require'
p5047
I1
tp5048
a(S'Required'
p5049
I1
tp5050
a(S'QModelIndexiRK'
p5051
I1
tp5052
a(S'ripemd'
p5053
I1
tp5054
a(S'QInputDeviceManagerPrivate'
p5055
I1
tp5056
a(S'sourceRowsAboutToBeInsertedERK'
p5057
I1
tp5058
a(S'iframe'
p5059
I1
tp5060
a(S'QModelIndexii'
p5061
I1
tp5062
a(S'QMessageLogger'
p5063
I1
tp5064
a(S'QSortFilterProxyModel'
p5065
I1
tp5066
a(S'resetEv'
p5067
I1
tp5068
a(S'paused'
p5069
I1
tp5070
a(S'exclude'
p5071
I1
tp5072
a(S'toStringEv'
p5073
I1
tp5074
a(S'Shows'
p5075
I1
tp5076
a(S'BLACKLIST'
p5077
I1
tp5078
a(S'DLOCALEDIR'
p5079
I1
tp5080
a(S'License'
p5081
I1
tp5082
a(S'extfile'
p5083
I1
tp5084
a(S'setDirectionEN'
p5085
I1
tp5086
a(S'FakeTimerEEE'
p5087
I1
tp5088
a(S'produce'
p5089
I1
tp5090
a(S'metacastEPKc'
p5091
I1
tp5092
a(S'vPL'
p5093
I1
tp5094
a(S'reallocDataEj'
p5095
I1
tp5096
a(S'compatibility'
p5097
I1
tp5098
a(S'Locale'
p5099
I1
tp5100
a(S'explicit'
p5101
I1
tp5102
a(S'CAs'
p5103
I1
tp5104
a(S'PressedOutsideNotifierC'
p5105
I1
tp5106
a(S'PressedOutsideNotifierD'
p5107
I1
tp5108
a(S'QDeclarativeInputDeviceModelLb'
p5109
I1
tp5110
a(S'EPSV'
p5111
I1
tp5112
a(S'tryLockEi'
p5113
I1
tp5114
a(S'QDeclarativeInputDeviceModelLi'
p5115
I1
tp5116
a(S'opts'
p5117
I1
tp5118
a(S'Rt'
p5119
I1
tp5120
a(S'Ru'
p5121
I1
tp5122
a(S'CBCKCTC'
p5123
I1
tp5124
a(S'Jan'
p5125
I1
tp5126
a(S'nocert'
p5127
I1
tp5128
a(S'getDomainFromSourceModelERK'
p5129
I1
tp5130
a(S'acknowledge'
p5131
I1
tp5132
a(S'forms'
p5133
I1
tp5134
a(S'window'
p5135
I1
tp5136
a(S'multiline'
p5137
I1
tp5138
a(S'NAMES'
p5139
I1
tp5140
a(S'RL'
p5141
I1
tp5142
a(S'RK'
p5143
I1
tp5144
a(S'QFileDevice'
p5145
I1
tp5146
a(S'now'
p5147
I1
tp5148
a(S'QFutureWatcherIvE'
p5149
I1
tp5150
a(S'drop'
p5151
I1
tp5152
a(S'eventFilterEP'
p5153
I1
tp5154
a(S'spanERK'
p5155
I1
tp5156
a(S'ey'
p5157
I1
tp5158
a(S'year'
p5159
I1
tp5160
a(S'naming'
p5161
I1
tp5162
a(S'eq'
p5163
I1
tp5164
a(S'es'
p5165
I1
tp5166
a(S'space'
p5167
I1
tp5168
a(S'eE'
p5169
I1
tp5170
a(S'eG'
p5171
I1
tp5172
a(S'eA'
p5173
I1
tp5174
a(S'eC'
p5175
I1
tp5176
a(S'eB'
p5177
I1
tp5178
a(S'opener'
p5179
I1
tp5180
a(S'receiving'
p5181
I1
tp5182
a(S'eP'
p5183
I1
tp5184
a(S'QCryptographicHash'
p5185
I1
tp5186
a(S'argv'
p5187
I1
tp5188
a(S'couldn'
p5189
I1
tp5190
a(S'takeERKS'
p5191
I1
tp5192
a(S'libuuid'
p5193
I1
tp5194
a(S'Parsing'
p5195
I1
tp5196
a(S'criticalEPKcz'
p5197
I1
tp5198
a(S'activatedAmbiguously'
p5199
I1
tp5200
a(S'xz'
p5201
I1
tp5202
a(S'QMapNodeI'
p5203
I1
tp5204
a(S'addEP'
p5205
I1
tp5206
a(S'certpbe'
p5207
I1
tp5208
a(S'checked'
p5209
I1
tp5210
a(S'bookmark'
p5211
I1
tp5212
a(S'xA'
p5213
I1
tp5214
a(S'Fingerprint'
p5215
I1
tp5216
a(S'initialising'
p5217
I1
tp5218
a(S'Response'
p5219
I1
tp5220
a(S'QInputDeviceEEvPv'
p5221
I1
tp5222
a(S'cnonce'
p5223
I1
tp5224
a(S'DirectionalDragAreaFvvENS'
p5225
I1
tp5226
a(S'FIPS'
p5227
I1
tp5228
a(S'png'
p5229
I1
tp5230
a(S'keymatexport'
p5231
I1
tp5232
a(S'endResetModelEv'
p5233
I1
tp5234
a(S'showFullScreenEv'
p5235
I1
tp5236
a(S'AWAVL'
p5237
I1
tp5238
a(S'kludge'
p5239
I1
tp5240
a(S'applet'
p5241
I1
tp5242
a(S'QQuickShortcutEiPKciiS'
p5243
I1
tp5244
a(S'QQuickWindowE'
p5245
I1
tp5246
a(S'titleChanged'
p5247
I1
tp5248
a(S'QGenericReturnArgument'
p5249
I1
tp5250
a(S'inkey'
p5251
I1
tp5252
a(S'setDistanceThresholdEd'
p5253
I1
tp5254
a(S'ssign'
p5255
I1
tp5256
a(S'getImplI'
p5257
I1
tp5258
a(S'keypbe'
p5259
I1
tp5260
a(S'crldays'
p5261
I1
tp5262
a(S'bgsound'
p5263
I1
tp5264
a(S'Candidate'
p5265
I1
tp5266
a(S'uUE'
p5267
I1
tp5268
a(S'WEBVIEW'
p5269
I1
tp5270
a(S'overwritten'
p5271
I1
tp5272
a(S'cipherbyname'
p5273
I1
tp5274
a(S'descert'
p5275
I1
tp5276
a(S'sceneDistanceEv'
p5277
I1
tp5278
a(S'verbosity'
p5279
I1
tp5280
a(S'keymatexportlen'
p5281
I1
tp5282
a(S'keyex'
p5283
I1
tp5284
a(S'QInputDevicePrivateD'
p5285
I1
tp5286
a(S'QInputDevicePrivateC'
p5287
I1
tp5288
a(S'AbstractConverterFunctionEii'
p5289
I1
tp5290
a(S'Location'
p5291
I1
tp5292
a(S'nonstandard'
p5293
I1
tp5294
a(S'IMPRINT'
p5295
I1
tp5296
a(S'regcomp'
p5297
I1
tp5298
a(S'lastUpdate'
p5299
I1
tp5300
a(S'Target'
p5301
I1
tp5302
a(S'QWq'
p5303
I1
tp5304
a(S'onRowsMoved'
p5305
I1
tp5306
a(S'QApplication'
p5307
I1
tp5308
a(S'enabling'
p5309
I1
tp5310
a(S'storeTouchEventEPK'
p5311
I1
tp5312
a(S'FileOperations'
p5313
I1
tp5314
a(S'dispatch'
p5315
I1
tp5316
a(S'wFH'
p5317
I1
tp5318
a(S'tlH'
p5319
I1
tp5320
a(S'skey'
p5321
I1
tp5322
a(S'openUrls'
p5323
I1
tp5324
a(S'Known'
p5325
I1
tp5326
a(S'propertyEPKc'
p5327
I1
tp5328
a(S'INET'
p5329
I1
tp5330
a(S'these'
p5331
I1
tp5332
a(S'className'
p5333
I1
tp5334
a(S'toStringE'
p5335
I1
tp5336
a(S'QUERY'
p5337
I1
tp5338
a(S'canceled'
p5339
I1
tp5340
a(S'QBufferC'
p5341
I1
tp5342
a(S'QBufferD'
p5343
I1
tp5344
a(S'QTextStreamlsERK'
p5345
I1
tp5346
a(S'AIA'
p5347
I1
tp5348
a(S'Complete'
p5349
I1
tp5350
a(S'proto'
p5351
I1
tp5352
a(S'LimitProxyModel'
p5353
I1
tp5354
a(S'uxL'
p5355
I1
tp5356
a(S'document'
p5357
I1
tp5358
a(S'addBindValueERK'
p5359
I1
tp5360
a(S'finish'
p5361
I1
tp5362
a(S'freeChanged'
p5363
I1
tp5364
a(S'ActiveTouchesInfoC'
p5365
I1
tp5366
a(S'DigestUpdate'
p5367
I1
tp5368
a(S'cxxabiv'
p5369
I1
tp5370
a(S'qRegisterNormalizedMetaTypeIP'
p5371
I1
tp5372
a(S'deleteafter'
p5373
I1
tp5374
a(S'PublicKey'
p5375
I1
tp5376
a(S'implEiPNS'
p5377
I1
tp5378
a(S'KQU'
p5379
I1
tp5380
a(S'EPS'
p5381
I1
tp5382
a(S'EPN'
p5383
I1
tp5384
a(S'ftppassword'
p5385
I1
tp5386
a(S'EPK'
p5387
I1
tp5388
a(S'touch'
p5389
I1
tp5390
a(S'RSAPublicKey'
p5391
I1
tp5392
a(S'mmap'
p5393
I1
tp5394
a(S'TouchInfoC'
p5395
I1
tp5396
a(S'QFutureWatcherIvED'
p5397
I1
tp5398
a(S'LastVisit'
p5399
I1
tp5400
a(S'psk'
p5401
I1
tp5402
a(S'ZTVN'
p5403
I1
tp5404
a(S'MemInfoLb'
p5405
I1
tp5406
a(S'distanceEv'
p5407
I1
tp5408
a(S'screenPosEv'
p5409
I1
tp5410
a(S'MemInfoLi'
p5411
I1
tp5412
a(S'early'
p5413
I1
tp5414
a(S'rsigner'
p5415
I1
tp5416
a(S'HPAVH'
p5417
I1
tp5418
a(S'recipient'
p5419
I1
tp5420
a(S'assignEPPvPKS'
p5421
I1
tp5422
a(S'HPAVL'
p5423
I1
tp5424
a(S'Show'
p5425
I1
tp5426
a(S'greeting'
p5427
I1
tp5428
a(S'ChangeCipherSpec'
p5429
I1
tp5430
a(S'QMetaObject'
p5431
I1
tp5432
a(S'QHostAddress'
p5433
I1
tp5434
a(S'CacheDeleter'
p5435
I1
tp5436
a(S'Before'
p5437
I1
tp5438
a(S'AVAUATSA'
p5439
I1
tp5440
a(S'DSAparams'
p5441
I1
tp5442
a(S'AVAUATSI'
p5443
I1
tp5444
a(S'uppercase'
p5445
I1
tp5446
a(S'fgets'
p5447
I1
tp5448
a(S'trustservernames'
p5449
I1
tp5450
a(S'unlocked'
p5451
I1
tp5452
a(S'libstdc'
p5453
I1
tp5454
a(S'ungrabShortcutEv'
p5455
I1
tp5456
a(S'Forced'
p5457
I1
tp5458
a(S'Modified'
p5459
I1
tp5460
a(S'compositionTime'
p5461
I1
tp5462
a(S'keysEv'
p5463
I1
tp5464
a(S'Signature'
p5465
I1
tp5466
a(S'throw'
p5467
I1
tp5468
a(S'keying'
p5469
I1
tp5470
a(S'srl'
p5471
I1
tp5472
a(S'srp'
p5473
I1
tp5474
a(S'backup'
p5475
I1
tp5476
a(S'Xaasr'
p5477
I1
tp5478
a(S'UnownedTouchEvent'
p5479
I1
tp5480
a(S'preserveDN'
p5481
I1
tp5482
a(S'AVAUATSLc'
p5483
I1
tp5484
a(S'Add'
p5485
I1
tp5486
a(S'log'
p5487
I1
tp5488
a(S'assumed'
p5489
I1
tp5490
a(S'Cookie'
p5491
I1
tp5492
a(S'enabledChanged'
p5493
I1
tp5494
a(S'BrowserApplication'
p5495
I1
tp5496
a(S'ALGOR'
p5497
I1
tp5498
a(S'REVOKED'
p5499
I1
tp5500
a(S'FRAGMENT'
p5501
I1
tp5502
a(S'lpcre'
p5503
I1
tp5504
a(S'QtMetaTypePrivate'
p5505
I1
tp5506
a(S'genparam'
p5507
I1
tp5508
a(S'embedded'
p5509
I1
tp5510
a(S'QMimeDatabase'
p5511
I1
tp5512
a(S'filePathERK'
p5513
I1
tp5514
a(S'fallbacking'
p5515
I1
tp5516
a(S'ReadElementTextBehaviourE'
p5517
I1
tp5518
a(S'scanner'
p5519
I1
tp5520
a(S'VoidStoredMemberFunctionPointerCall'
p5521
I1
tp5522
a(S'QList'
p5523
I1
tp5524
a(S'translateTouchPointFromScreenToWindowCoordsERN'
p5525
I1
tp5526
a(S'QJSValueLb'
p5527
I1
tp5528
a(S'FakeTimerEEED'
p5529
I1
tp5530
a(S'PBSZ'
p5531
I1
tp5532
a(S'PRAGMA'
p5533
I1
tp5534
a(S'Entry'
p5535
I1
tp5536
a(S'building'
p5537
I1
tp5538
a(S'assert'
p5539
I1
tp5540
a(S'lookups'
p5541
I1
tp5542
a(S'QNetworkAccessManager'
p5543
I1
tp5544
a(S'SYSTEM'
p5545
I1
tp5546
a(S'argumentsEv'
p5547
I1
tp5548
a(S'suiteB'
p5549
I1
tp5550
a(S'validator'
p5551
I1
tp5552
a(S'updateSceneDistanceEv'
p5553
I1
tp5554
a(S'Compression'
p5555
I1
tp5556
a(S'month'
p5557
I1
tp5558
a(S'BookmarksFolderListModelEiPKciiS'
p5559
I1
tp5560
a(S'URLs'
p5561
I1
tp5562
a(S'renego'
p5563
I1
tp5564
a(S'NETSCAPE'
p5565
I1
tp5566
a(S'iconv'
p5567
I1
tp5568
a(S'disconnectEPKS'
p5569
I1
tp5570
a(S'relativeAxisEv'
p5571
I1
tp5572
a(S'RETR'
p5573
I1
tp5574
a(S'nodes'
p5575
I1
tp5576
a(S'QListINS'
p5577
I1
tp5578
a(S'Incomplete'
p5579
I1
tp5580
a(S'sourceModelChangedEv'
p5581
I1
tp5582
a(S'QSocketNotifierC'
p5583
I1
tp5584
a(S'flushEv'
p5585
I1
tp5586
a(S'setTrackedPositionEd'
p5587
I1
tp5588
a(S'SearchEngine'
p5589
I1
tp5590
a(S'cookies'
p5591
I1
tp5592
a(S'optind'
p5593
I1
tp5594
a(S'APAQAPAQL'
p5595
I1
tp5596
a(S'UBUNTU'
p5597
I1
tp5598
a(S'TST'
p5599
I1
tp5600
a(S'mapFromSourceERK'
p5601
I1
tp5602
a(S'toDateTimeEv'
p5603
I1
tp5604
a(S'yyleng'
p5605
I1
tp5606
a(S'certificates'
p5607
I1
tp5608
a(S'cfile'
p5609
I1
tp5610
a(S'modify'
p5611
I1
tp5612
a(S'bQr'
p5613
I1
tp5614
a(S'reqexts'
p5615
I1
tp5616
a(S'suggestionsUrlTemplate'
p5617
I1
tp5618
a(S'rectEv'
p5619
I1
tp5620
a(S'wcwidth'
p5621
I1
tp5622
a(S'amount'
p5623
I1
tp5624
a(S'noattr'
p5625
I1
tp5626
a(S'family'
p5627
I1
tp5628
a(S'requiring'
p5629
I1
tp5630
a(S'REQ'
p5631
I1
tp5632
a(S'unlimitedCount'
p5633
I1
tp5634
a(S'href'
p5635
I1
tp5636
a(S'toIntEPb'
p5637
I1
tp5638
a(S'lastupdate'
p5639
I1
tp5640
a(S'taken'
p5641
I1
tp5642
a(S'fPIE'
p5643
I1
tp5644
a(S'Su'
p5645
I1
tp5646
a(S'St'
p5647
I1
tp5648
a(S'WGET'
p5649
I1
tp5650
a(S'SearchEngineEiPKciiS'
p5651
I1
tp5652
a(S'Sg'
p5653
I1
tp5654
a(S'SZ'
p5655
I1
tp5656
a(S'applicationDirPathEv'
p5657
I1
tp5658
a(S'setWindowEP'
p5659
I1
tp5660
a(S'SJ'
p5661
I1
tp5662
a(S'SO'
p5663
I1
tp5664
a(S'history'
p5665
I1
tp5666
a(S'vv'
p5667
I1
tp5668
a(S'isPositive'
p5669
I1
tp5670
a(S'removeAllERKS'
p5671
I1
tp5672
a(S'phrase'
p5673
I1
tp5674
a(S'RunFunctionTaskIvE'
p5675
I1
tp5676
a(S'Pragma'
p5677
I1
tp5678
a(S'noclobber'
p5679
I1
tp5680
a(S'fp'
p5681
I1
tp5682
a(S'fr'
p5683
I1
tp5684
a(S'fs'
p5685
I1
tp5686
a(S'Blank'
p5687
I1
tp5688
a(S'derived'
p5689
I1
tp5690
a(S'tries'
p5691
I1
tp5692
a(S'setOrganizationDomainERK'
p5693
I1
tp5694
a(S'unlink'
p5695
I1
tp5696
a(S'tAI'
p5697
I1
tp5698
a(S'scsv'
p5699
I1
tp5700
a(S'bugs'
p5701
I1
tp5702
a(S'fK'
p5703
I1
tp5704
a(S'MemInfoEiRK'
p5705
I1
tp5706
a(S'basename'
p5707
I1
tp5708
a(S'TextSearchFilterModelEEvPv'
p5709
I1
tp5710
a(S'jUMp'
p5711
I1
tp5712
a(S'AVAILABLE'
p5713
I1
tp5714
a(S'QTextStreamlsEi'
p5715
I1
tp5716
a(S'QTextStreamlsEc'
p5717
I1
tp5718
a(S'QAbstractItemModel'
p5719
I1
tp5720
a(S'getpid'
p5721
I1
tp5722
a(S'QMetaTypeId'
p5723
I1
tp5724
a(S'yh'
p5725
I1
tp5726
a(S'AVAUATUL'
p5727
I1
tp5728
a(S'yg'
p5729
I1
tp5730
a(S'yf'
p5731
I1
tp5732
a(S'yy'
p5733
I1
tp5734
a(S'dataERK'
p5735
I1
tp5736
a(S'yr'
p5737
I1
tp5738
a(S'DirectionalDragArea'
p5739
I1
tp5740
a(S'yM'
p5741
I1
tp5742
a(S'fully'
p5743
I1
tp5744
a(S'yR'
p5745
I1
tp5746
a(S'yU'
p5747
I1
tp5748
a(S'deliverTouchUpdatesToUndecidedCandidatesAndWatchersEPK'
p5749
I1
tp5750
a(S'iF'
p5751
I1
tp5752
a(S'event'
p5753
I1
tp5754
a(S'fromUtf'
p5755
I1
tp5756
a(S'since'
p5757
I1
tp5758
a(S'CAcreateserial'
p5759
I1
tp5760
a(S'SingleInstanceManager'
p5761
I1
tp5762
a(S'removeEntryFromDatabaseByUrlERK'
p5763
I1
tp5764
a(S'regexec'
p5765
I1
tp5766
a(S'issue'
p5767
I1
tp5768
a(S'msie'
p5769
I1
tp5770
a(S'dirs'
p5771
I1
tp5772
a(S'None'
p5773
I1
tp5774
a(S'QMetaTypeFunctionHelperIN'
p5775
I1
tp5776
a(S'ciphers'
p5777
I1
tp5778
a(S'CAform'
p5779
I1
tp5780
a(S'pub'
p5781
I1
tp5782
a(S'asc'
p5783
I1
tp5784
a(S'supportedDropActionsEv'
p5785
I1
tp5786
a(S'reason'
p5787
I1
tp5788
a(S'QMetaTypeFunctionHelperIP'
p5789
I1
tp5790
a(S'put'
p5791
I1
tp5792
a(S'deviceAddedERK'
p5793
I1
tp5794
a(S'recv'
p5795
I1
tp5796
a(S'touchYChanged'
p5797
I1
tp5798
a(S'QMouseEvent'
p5799
I1
tp5800
a(S'QtConcurrent'
p5801
I1
tp5802
a(S'heartbeat'
p5803
I1
tp5804
a(S'QJSValueEiPKcPT'
p5805
I1
tp5806
a(S'singleton'
p5807
I1
tp5808
a(S'Copyright'
p5809
I1
tp5810
a(S'qBadAllocv'
p5811
I1
tp5812
a(S'miss'
p5813
I1
tp5814
a(S'Keying'
p5815
I1
tp5816
a(S'meths'
p5817
I1
tp5818
a(S'QQuickItemPrivate'
p5819
I1
tp5820
a(S'addedDeviceERK'
p5821
I1
tp5822
a(S'scheme'
p5823
I1
tp5824
a(S'windowDeactivateEventEv'
p5825
I1
tp5826
a(S'deviceAdded'
p5827
I1
tp5828
a(S'invalidateFilterEv'
p5829
I1
tp5830
a(S'distanceChangedEd'
p5831
I1
tp5832
a(S'Label'
p5833
I1
tp5834
a(S'nosmimecap'
p5835
I1
tp5836
a(S'HistoryDomainListModelEiRK'
p5837
I1
tp5838
a(S'VBASE'
p5839
I1
tp5840
a(S'str'
p5841
I1
tp5842
a(S'yyin'
p5843
I1
tp5844
a(S'QByteArrayPT'
p5845
I1
tp5846
a(S'numSamplesEv'
p5847
I1
tp5848
a(S'invalidateEv'
p5849
I1
tp5850
a(S'EXCEEDED'
p5851
I1
tp5852
a(S'Got'
p5853
I1
tp5854
a(S'Switching'
p5855
I1
tp5856
a(S'getFolderIdERK'
p5857
I1
tp5858
a(S'maxDelta'
p5859
I1
tp5860
a(S'Generated'
p5861
I1
tp5862
a(S'QBuffer'
p5863
I1
tp5864
a(S'Forked'
p5865
I1
tp5866
a(S'TouchEventEE'
p5867
I1
tp5868
a(S'Thu'
p5869
I1
tp5870
a(S'quota'
p5871
I1
tp5872
a(S'toseq'
p5873
I1
tp5874
a(S'SessionStorage'
p5875
I1
tp5876
a(S'clean'
p5877
I1
tp5878
a(S'GLIBCXX'
p5879
I1
tp5880
a(S'certs'
p5881
I1
tp5882
a(S'renegotiate'
p5883
I1
tp5884
a(S'LcL'
p5885
I1
tp5886
a(S'ABSOLUTE'
p5887
I1
tp5888
a(S'QJSValueC'
p5889
I1
tp5890
a(S'QJSValueD'
p5891
I1
tp5892
a(S'QJSValueE'
p5893
I1
tp5894
a(S'parameters'
p5895
I1
tp5896
a(S'Lcd'
p5897
I1
tp5898
a(S'DigestSignInit'
p5899
I1
tp5900
a(S'Initiating'
p5901
I1
tp5902
a(S'Verify'
p5903
I1
tp5904
a(S'unownedTouchEventTypeEv'
p5905
I1
tp5906
a(S'during'
p5907
I1
tp5908
a(S'querying'
p5909
I1
tp5910
a(S'mbtowc'
p5911
I1
tp5912
a(S'lastModifiedEv'
p5913
I1
tp5914
a(S'GOST'
p5915
I1
tp5916
a(S'locale'
p5917
I1
tp5918
a(S'QMetaTypeFunctionHelperINS'
p5919
I1
tp5920
a(S'lastScenePosEv'
p5921
I1
tp5922
a(S'probably'
p5923
I1
tp5924
a(S'isoc'
p5925
I1
tp5926
a(S'WebbrowserAppD'
p5927
I1
tp5928
a(S'WebbrowserAppC'
p5929
I1
tp5930
a(S'createNewFolderERK'
p5931
I1
tp5932
a(S'mega'
p5933
I1
tp5934
a(S'CONNECTION'
p5935
I1
tp5936
a(S'xYLc'
p5937
I1
tp5938
a(S'protector'
p5939
I1
tp5940
a(S'SSLeay'
p5941
I1
tp5942
a(S'protos'
p5943
I1
tp5944
a(S'dnscache'
p5945
I1
tp5946
a(S'Was'
p5947
I1
tp5948
a(S'QInputDeviceEaSERKS'
p5949
I1
tp5950
a(S'globalInstanceEv'
p5951
I1
tp5952
a(S'stamp'
p5953
I1
tp5954
a(S'boundingRectEv'
p5955
I1
tp5956
a(S'Creation'
p5957
I1
tp5958
a(S'nokeys'
p5959
I1
tp5960
a(S'wait'
p5961
I1
tp5962
a(S'ATLc'
p5963
I1
tp5964
a(S'generating'
p5965
I1
tp5966
a(S'DownloadsModel'
p5967
I1
tp5968
a(S'spksect'
p5969
I1
tp5970
a(S'AWAVAUATLc'
p5971
I1
tp5972
a(S'YYMMDDHHMMSSZ'
p5973
I1
tp5974
a(S'compromised'
p5975
I1
tp5976
a(S'DigestSignFinal'
p5977
I1
tp5978
a(S'folderId'
p5979
I1
tp5980
a(S'imap'
p5981
I1
tp5982
a(S'Software'
p5983
I1
tp5984
a(S'lastVisitedIcon'
p5985
I1
tp5986
a(S'look'
p5987
I1
tp5988
a(S'TimeSpecE'
p5989
I1
tp5990
a(S'ZpE'
p5991
I1
tp5992
a(S'dkeyform'
p5993
I1
tp5994
a(S'loop'
p5995
I1
tp5996
a(S'Issuer'
p5997
I1
tp5998
a(S'ready'
p5999
I1
tp6000
a(S'rbio'
p6001
I1
tp6002
a(S'lastVisitedIconEv'
p6003
I1
tp6004
a(S'kari'
p6005
I1
tp6006
a(S'NTLM'
p6007
I1
tp6008
a(S'Alert'
p6009
I1
tp6010
a(S'modification'
p6011
I1
tp6012
a(S'tDHcV'
p6013
I1
tp6014
a(S'cachePath'
p6015
I1
tp6016
a(S'temporary'
p6017
I1
tp6018
a(S'Exiting'
p6019
I1
tp6020
a(S'elapsed'
p6021
I1
tp6022
a(S'iswprint'
p6023
I1
tp6024
a(S'setitimer'
p6025
I1
tp6026
a(S'consistency'
p6027
I1
tp6028
a(S'isVisibleEv'
p6029
I1
tp6030
a(S'CERTID'
p6031
I1
tp6032
a(S'overflows'
p6033
I1
tp6034
a(S'fstack'
p6035
I1
tp6036
a(S'shortcut'
p6037
I1
tp6038
a(S'isUndefinedEv'
p6039
I1
tp6040
a(S'isPositiveENS'
p6041
I1
tp6042
a(S'EncryptUpdate'
p6043
I1
tp6044
a(S'pubkey'
p6045
I1
tp6046
a(S'remaining'
p6047
I1
tp6048
a(S'TabsModelEiRK'
p6049
I1
tp6050
a(S'inputMethodEventEP'
p6051
I1
tp6052
a(S'RENEGOTIATION'
p6053
I1
tp6054
a(S'CandidateInfoEEC'
p6055
I1
tp6056
a(S'secretkeyid'
p6057
I1
tp6058
a(S'manifest'
p6059
I1
tp6060
a(S'HistoryEntryE'
p6061
I1
tp6062
a(S'HistoryEntryD'
p6063
I1
tp6064
a(S'Encryption'
p6065
I1
tp6066
a(S'QListIiEEEPKvS'
p6067
I1
tp6068
a(S'creation'
p6069
I1
tp6070
a(S'some'
p6071
I1
tp6072
a(S'BLOCK'
p6073
I1
tp6074
a(S'addCandidateOwnerForTouchEiP'
p6075
I1
tp6076
a(S'FILENAME'
p6077
I1
tp6078
a(S'Disposition'
p6079
I1
tp6080
a(S'minimal'
p6081
I1
tp6082
a(S'QInputMethodEvent'
p6083
I1
tp6084
a(S'processing'
p6085
I1
tp6086
a(S'fromUserInputERK'
p6087
I1
tp6088
a(S'step'
p6089
I1
tp6090
a(S'ruH'
p6091
I1
tp6092
a(S'CaseSensitivityE'
p6093
I1
tp6094
a(S'ids'
p6095
I1
tp6096
a(S'idn'
p6097
I1
tp6098
a(S'CandidateInfoEE'
p6099
I1
tp6100
a(S'block'
p6101
I1
tp6102
a(S'wheelEventEP'
p6103
I1
tp6104
a(S'traitsIcESaIcEE'
p6105
I1
tp6106
a(S'statistics'
p6107
I1
tp6108
a(S'endsWithEc'
p6109
I1
tp6110
a(S'TouchPointEERK'
p6111
I1
tp6112
a(S'readyRead'
p6113
I1
tp6114
a(S'QLocalSocket'
p6115
I1
tp6116
a(S'hoverLeaveEventEP'
p6117
I1
tp6118
a(S'Resuming'
p6119
I1
tp6120
a(S'ERiPPci'
p6121
I1
tp6122
a(S'newer'
p6123
I1
tp6124
a(S'info'
p6125
I1
tp6126
a(S'Attribute'
p6127
I1
tp6128
a(S'QStringRefeqEPKc'
p6129
I1
tp6130
a(S'QIcon'
p6131
I1
tp6132
a(S'ungetc'
p6133
I1
tp6134
a(S'NormalDeleterEE'
p6135
I1
tp6136
a(S'QQmlExtensionInterface'
p6137
I1
tp6138
a(S'onUDevChangesEv'
p6139
I1
tp6140
a(S'onRowsRemoved'
p6141
I1
tp6142
a(S'QInputDeviceManager'
p6143
I1
tp6144
a(S'vvvv'
p6145
I1
tp6146
a(S'TS'
p6147
I1
tp6148
a(S'TL'
p6149
I1
tp6150
a(S'TH'
p6151
I1
tp6152
a(S'TE'
p6153
I1
tp6154
a(S'IcT'
p6155
I1
tp6156
a(S'ecdsak'
p6157
I1
tp6158
a(S'ecdsab'
p6159
I1
tp6160
a(S'resign'
p6161
I1
tp6162
a(S'commentEv'
p6163
I1
tp6164
a(S'AR'
p6165
I1
tp6166
a(S'validity'
p6167
I1
tp6168
a(S'AX'
p6169
I1
tp6170
a(S'ecdsap'
p6171
I1
tp6172
a(S'paramgen'
p6173
I1
tp6174
a(S'Aj'
p6175
I1
tp6176
a(S'At'
p6177
I1
tp6178
a(S'QQmlParserStatusC'
p6179
I1
tp6180
a(S'Apparently'
p6181
I1
tp6182
a(S'QQmlParserStatusD'
p6183
I1
tp6184
a(S'unlimitedRowCountERK'
p6185
I1
tp6186
a(S'gz'
p6187
I1
tp6188
a(S'TimeSourceEEP'
p6189
I1
tp6190
a(S'gb'
p6191
I1
tp6192
a(S'go'
p6193
I1
tp6194
a(S'gn'
p6195
I1
tp6196
a(S'gl'
p6197
I1
tp6198
a(S'Non'
p6199
I1
tp6200
a(S'gS'
p6201
I1
tp6202
a(S'setLastScenePosERK'
p6203
I1
tp6204
a(S'gD'
p6205
I1
tp6206
a(S'excluded'
p6207
I1
tp6208
a(S'gN'
p6209
I1
tp6210
a(S'Now'
p6211
I1
tp6212
a(S'friendly'
p6213
I1
tp6214
a(S'lowercase'
p6215
I1
tp6216
a(S'tkrY'
p6217
I1
tp6218
a(S'QStringEeqERKS'
p6219
I1
tp6220
a(S'zl'
p6221
I1
tp6222
a(S'Index'
p6223
I1
tp6224
a(S'QStringListRK'
p6225
I1
tp6226
a(S'zM'
p6227
I1
tp6228
a(S'activeEv'
p6229
I1
tp6230
a(S'setDataFileERK'
p6231
I1
tp6232
a(S'setStartScenePosERK'
p6233
I1
tp6234
a(S'munmap'
p6235
I1
tp6236
a(S'addDeviceEP'
p6237
I1
tp6238
a(S'LastVisitedIcon'
p6239
I1
tp6240
a(S'Lying'
p6241
I1
tp6242
a(S'pkeyutl'
p6243
I1
tp6244
a(S'QImage'
p6245
I1
tp6246
a(S'addresses'
p6247
I1
tp6248
a(S'tqLc'
p6249
I1
tp6250
a(S'fromDataEPKhiPKc'
p6251
I1
tp6252
a(S'removeEntriesFromDatabaseByDomainERK'
p6253
I1
tp6254
a(S'onRowsInsertedERK'
p6255
I1
tp6256
a(S'boolean'
p6257
I1
tp6258
a(S'warccdx'
p6259
I1
tp6260
a(S'wiH'
p6261
I1
tp6262
a(S'started'
p6263
I1
tp6264
a(S'mismatch'
p6265
I1
tp6266
a(S'disabling'
p6267
I1
tp6268
a(S'warcmaxsize'
p6269
I1
tp6270
a(S'retries'
p6271
I1
tp6272
a(S'databasePath'
p6273
I1
tp6274
a(S'Syntax'
p6275
I1
tp6276
a(S'RunFunctionTaskBaseIvE'
p6277
I1
tp6278
a(S'links'
p6279
I1
tp6280
a(S'QFutureInterfaceBaseaSERKS'
p6281
I1
tp6282
a(S'newdir'
p6283
I1
tp6284
a(S'QInputDevicePrivate'
p6285
I1
tp6286
a(S'Paused'
p6287
I1
tp6288
a(S'dotspacing'
p6289
I1
tp6290
a(S'leftEi'
p6291
I1
tp6292
a(S'vfprintf'
p6293
I1
tp6294
a(S'lxstat'
p6295
I1
tp6296
a(S'QPostEventList'
p6297
I1
tp6298
a(S'Specifiy'
p6299
I1
tp6300
a(S'hashed'
p6301
I1
tp6302
a(S'unlimits'
p6303
I1
tp6304
a(S'QInputDeviceELb'
p6305
I1
tp6306
a(S'outdir'
p6307
I1
tp6308
a(S'xmlns'
p6309
I1
tp6310
a(S'onDomainRowsRemoved'
p6311
I1
tp6312
a(S'computations'
p6313
I1
tp6314
a(S'temp'
p6315
I1
tp6316
a(S'GZIP'
p6317
I1
tp6318
a(S'contextEv'
p6319
I1
tp6320
a(S'readAllEv'
p6321
I1
tp6322
a(S'WGETRC'
p6323
I1
tp6324
a(S'EGD'
p6325
I1
tp6326
a(S'Multiple'
p6327
I1
tp6328
a(S'Allocation'
p6329
I1
tp6330
a(S'growEPii'
p6331
I1
tp6332
a(S'updateIdleTimeEv'
p6333
I1
tp6334
a(S'getInputTypeFlagsEP'
p6335
I1
tp6336
a(S'CURVE'
p6337
I1
tp6338
a(S'YYYY'
p6339
I1
tp6340
a(S'Hosts'
p6341
I1
tp6342
a(S'termsChanged'
p6343
I1
tp6344
a(S'Respond'
p6345
I1
tp6346
a(S'MOUSE'
p6347
I1
tp6348
a(S'QMapDataI'
p6349
I1
tp6350
a(S'reqopt'
p6351
I1
tp6352
a(S'includedirectories'
p6353
I1
tp6354
a(S'ExternalRefCountData'
p6355
I1
tp6356
a(S'isLoopbackEv'
p6357
I1
tp6358
a(S'iPPv'
p6359
I1
tp6360
a(S'configfile'
p6361
I1
tp6362
a(S'measure'
p6363
I1
tp6364
a(S'separating'
p6365
I1
tp6366
a(S'directionChanged'
p6367
I1
tp6368
a(S'insertColumnsEiiRK'
p6369
I1
tp6370
a(S'maximized'
p6371
I1
tp6372
a(S'DownloadsModelLb'
p6373
I1
tp6374
a(S'DownloadsModelLi'
p6375
I1
tp6376
a(S'DSYSTEM'
p6377
I1
tp6378
a(S'showEv'
p6379
I1
tp6380
a(S'QEvent'
p6381
I1
tp6382
a(S'times'
p6383
I1
tp6384
a(S'timed'
p6385
I1
tp6386
a(S'SingleInstanceManagerC'
p6387
I1
tp6388
a(S'QListIiEEEiPKv'
p6389
I1
tp6390
a(S'connecttimeout'
p6391
I1
tp6392
a(S'QMetaType'
p6393
I1
tp6394
a(S'rother'
p6395
I1
tp6396
a(S'quality'
p6397
I1
tp6398
a(S'DSAPrivateKey'
p6399
I1
tp6400
a(S'management'
p6401
I1
tp6402
a(S'mkdir'
p6403
I1
tp6404
a(S'grow'
p6405
I1
tp6406
a(S'NUL'
p6407
I1
tp6408
a(S'Removing'
p6409
I1
tp6410
a(S'TouchPointEm'
p6411
I1
tp6412
a(S'final'
p6413
I1
tp6414
a(S'Remote'
p6415
I1
tp6416
a(S'Bind'
p6417
I1
tp6418
a(S'rsa'
p6419
I1
tp6420
a(S'dtls'
p6421
I1
tp6422
a(S'pkeyparam'
p6423
I1
tp6424
a(S'fscanf'
p6425
I1
tp6426
a(S'distinguished'
p6427
I1
tp6428
a(S'sp'
p6429
I1
tp6430
a(S'HSTS'
p6431
I1
tp6432
a(S'unchanged'
p6433
I1
tp6434
a(S'Undecided'
p6435
I1
tp6436
a(S'need'
p6437
I1
tp6438
a(S'bindtextdomain'
p6439
I1
tp6440
a(S'pvk'
p6441
I1
tp6442
a(S'EPKc'
p6443
I1
tp6444
a(S'ephemeral'
p6445
I1
tp6446
a(S'CERT'
p6447
I1
tp6448
a(S'instance'
p6449
I1
tp6450
a(S'setTimeERK'
p6451
I1
tp6452
a(S'sm'
p6453
I1
tp6454
a(S'rkey'
p6455
I1
tp6456
a(S'connected'
p6457
I1
tp6458
a(S'Enter'
p6459
I1
tp6460
a(S'Damper'
p6461
I1
tp6462
a(S'contextChangedEv'
p6463
I1
tp6464
a(S'rAxis'
p6465
I1
tp6466
a(S'Export'
p6467
I1
tp6468
a(S'talk'
p6469
I1
tp6470
a(S'focusOutEventEP'
p6471
I1
tp6472
a(S'ZrsR'
p6473
I1
tp6474
a(S'isTouchPointOwnedEi'
p6475
I1
tp6476
a(S'encrypted'
p6477
I1
tp6478
a(S'anyway'
p6479
I1
tp6480
a(S'Public'
p6481
I1
tp6482
a(S'MUST'
p6483
I1
tp6484
a(S'buf'
p6485
I1
tp6486
a(S'flagsERK'
p6487
I1
tp6488
a(S'QDragMoveEvent'
p6489
I1
tp6490
a(S'InputTypeELb'
p6491
I1
tp6492
a(S'mapToSceneERK'
p6493
I1
tp6494
a(S'xuIH'
p6495
I1
tp6496
a(S'tbS'
p6497
I1
tp6498
a(S'tbI'
p6499
I1
tp6500
a(S'processed'
p6501
I1
tp6502
a(S'legacy'
p6503
I1
tp6504
a(S'RealTimeSourceE'
p6505
I1
tp6506
a(S'CAkeyTime'
p6507
I1
tp6508
a(S'RealTimeSourceC'
p6509
I1
tp6510
a(S'NONE'
p6511
I1
tp6512
a(S'stats'
p6513
I1
tp6514
a(S'correctly'
p6515
I1
tp6516
a(S'bound'
p6517
I1
tp6518
a(S'hits'
p6519
I1
tp6520
a(S'nextUpdate'
p6521
I1
tp6522
a(S'QMimeDatabaseC'
p6523
I1
tp6524
a(S'QMimeDatabaseD'
p6525
I1
tp6526
a(S'onUrlChanged'
p6527
I1
tp6528
a(S'setDomainERK'
p6529
I1
tp6530
a(S'QStringListPK'
p6531
I1
tp6532
a(S'setLimitEi'
p6533
I1
tp6534
a(S'addedERK'
p6535
I1
tp6536
a(S'NTLMSSP'
p6537
I1
tp6538
a(S'QLocalServer'
p6539
I1
tp6540
a(S'orif'
p6541
I1
tp6542
a(S'orig'
p6543
I1
tp6544
a(S'HistoryDomainListModelELb'
p6545
I1
tp6546
a(S'gNid'
p6547
I1
tp6548
a(S'SECS'
p6549
I1
tp6550
a(S'oriL'
p6551
I1
tp6552
a(S'treat'
p6553
I1
tp6554
a(S'removeEntriesByDomainERK'
p6555
I1
tp6556
a(S'Horizontal'
p6557
I1
tp6558
a(S'AND'
p6559
I1
tp6560
a(S'SessionStorageEEvPv'
p6561
I1
tp6562
a(S'AbstractTimerEFvvENS'
p6563
I1
tp6564
a(S'pid'
p6565
I1
tp6566
a(S'currentDateTimeUtcEv'
p6567
I1
tp6568
a(S'MimeDatabaseEiRK'
p6569
I1
tp6570
a(S'CertificateVerify'
p6571
I1
tp6572
a(S'undecidedEP'
p6573
I1
tp6574
a(S'buddyERK'
p6575
I1
tp6576
a(S'owns'
p6577
I1
tp6578
a(S'getpwuid'
p6579
I1
tp6580
a(S'TypeE'
p6581
I1
tp6582
a(S'atImplI'
p6583
I1
tp6584
a(S'draggingChangedEb'
p6585
I1
tp6586
a(S'NULL'
p6587
I1
tp6588
a(S'GENERALIZEDTIME'
p6589
I1
tp6590
a(S'Niksic'
p6591
I1
tp6592
a(S'PPL'
p6593
I1
tp6594
a(S'strange'
p6595
I1
tp6596
a(S'fromTime'
p6597
I1
tp6598
a(S'tapped'
p6599
I1
tp6600
a(S'Types'
p6601
I1
tp6602
a(S'Upwards'
p6603
I1
tp6604
a(S'transaction'
p6605
I1
tp6606
a(S'setScreenRectERK'
p6607
I1
tp6608
a(S'tZf'
p6609
I1
tp6610
a(S'BF'
p6611
I1
tp6612
a(S'BL'
p6613
I1
tp6614
a(S'keytype'
p6615
I1
tp6616
a(S'keepsessioncookies'
p6617
I1
tp6618
a(S'pP'
p6619
I1
tp6620
a(S'BV'
p6621
I1
tp6622
a(S'BP'
p6623
I1
tp6624
a(S'sorted'
p6625
I1
tp6626
a(S'LimitProxyModelC'
p6627
I1
tp6628
a(S'LimitProxyModelD'
p6629
I1
tp6630
a(S'Bn'
p6631
I1
tp6632
a(S'reasons'
p6633
I1
tp6634
a(S'Bv'
p6635
I1
tp6636
a(S'Bs'
p6637
I1
tp6638
a(S'LPRT'
p6639
I1
tp6640
a(S'clrtrust'
p6641
I1
tp6642
a(S'touchSceneXChanged'
p6643
I1
tp6644
a(S'QDeclarativeInputDeviceModelELb'
p6645
I1
tp6646
a(S'Attributes'
p6647
I1
tp6648
a(S'contentdisposition'
p6649
I1
tp6650
a(S'sizes'
p6651
I1
tp6652
a(S'AttributeE'
p6653
I1
tp6654
a(S'QQuickItemEiPKcPT'
p6655
I1
tp6656
a(S'getdelim'
p6657
I1
tp6658
a(S'FTPS'
p6659
I1
tp6660
a(S'eraseEPS'
p6661
I1
tp6662
a(S'EEE'
p6663
I1
tp6664
a(S'overlay'
p6665
I1
tp6666
a(S'storeERK'
p6667
I1
tp6668
a(S'moveToEndImplI'
p6669
I1
tp6670
a(S'pubout'
p6671
I1
tp6672
a(S'APPARMOR'
p6673
I1
tp6674
a(S'reaching'
p6675
I1
tp6676
a(S'QDate'
p6677
I1
tp6678
a(S'expansion'
p6679
I1
tp6680
a(S'dataFileChanged'
p6681
I1
tp6682
a(S'offset'
p6683
I1
tp6684
a(S'Microsoft'
p6685
I1
tp6686
a(S'wideningAngle'
p6687
I1
tp6688
a(S'UZ'
p6689
I1
tp6690
a(S'recognized'
p6691
I1
tp6692
a(S'compatible'
p6693
I1
tp6694
a(S'QFutureInterfaceIvE'
p6695
I1
tp6696
a(S'strcpy'
p6697
I1
tp6698
a(S'UI'
p6699
I1
tp6700
a(S'headerDataEiN'
p6701
I1
tp6702
a(S'toLatin'
p6703
I1
tp6704
a(S'OPTION'
p6705
I1
tp6706
a(S'readyEv'
p6707
I1
tp6708
a(S'DirectionD'
p6709
I1
tp6710
a(S'Redirection'
p6711
I1
tp6712
a(S'Internal'
p6713
I1
tp6714
a(S'backups'
p6715
I1
tp6716
a(S'macalg'
p6717
I1
tp6718
a(S'gendelta'
p6719
I1
tp6720
a(S'toULongLongEPb'
p6721
I1
tp6722
a(S'utility'
p6723
I1
tp6724
a(S'InputDeviceModel'
p6725
I1
tp6726
a(S'IDs'
p6727
I1
tp6728
a(S'QStringNS'
p6729
I1
tp6730
a(S'urlTemplate'
p6731
I1
tp6732
a(S'pf'
p6733
I1
tp6734
a(S'componentCompleteEv'
p6735
I1
tp6736
a(S'hr'
p6737
I1
tp6738
a(S'hu'
p6739
I1
tp6740
a(S'hk'
p6741
I1
tp6742
a(S'databaseNameEv'
p6743
I1
tp6744
a(S'unimplemented'
p6745
I1
tp6746
a(S'FAILURE'
p6747
I1
tp6748
a(S'hM'
p6749
I1
tp6750
a(S'signer'
p6751
I1
tp6752
a(S'hC'
p6753
I1
tp6754
a(S'ZGVZN'
p6755
I1
tp6756
a(S'hE'
p6757
I1
tp6758
a(S'universal'
p6759
I1
tp6760
a(S'MSG'
p6761
I1
tp6762
a(S'authority'
p6763
I1
tp6764
a(S'RULES'
p6765
I1
tp6766
a(S'Wgetrc'
p6767
I1
tp6768
a(S'Ciphers'
p6769
I1
tp6770
a(S'AQM'
p6771
I1
tp6772
a(S'nooldmime'
p6773
I1
tp6774
a(S'cancelDownload'
p6775
I1
tp6776
a(S'setStartPosERK'
p6777
I1
tp6778
a(S'rowsRemoved'
p6779
I1
tp6780
a(S'additionally'
p6781
I1
tp6782
a(S'clearERK'
p6783
I1
tp6784
a(S'tWUSH'
p6785
I1
tp6786
a(S'persistent'
p6787
I1
tp6788
a(S'DWm'
p6789
I1
tp6790
a(S'paramfile'
p6791
I1
tp6792
a(S'QQuickItemEE'
p6793
I1
tp6794
a(S'unregisterConverterFunctionEii'
p6795
I1
tp6796
a(S'mkpathERK'
p6797
I1
tp6798
a(S'Apache'
p6799
I1
tp6800
a(S'aux'
p6801
I1
tp6802
a(S'reportFinishedEv'
p6803
I1
tp6804
a(S'updated'
p6805
I1
tp6806
a(S'HistoryDomainModel'
p6807
I1
tp6808
a(S'void'
p6809
I1
tp6810
a(S'connects'
p6811
I1
tp6812
a(S'libdriver'
p6813
I1
tp6814
a(S'VALUES'
p6815
I1
tp6816
a(S'noconfig'
p6817
I1
tp6818
a(S'nodetach'
p6819
I1
tp6820
a(S'toUtf'
p6821
I1
tp6822
a(S'selfsign'
p6823
I1
tp6824
a(S'preferences'
p6825
I1
tp6826
a(S'gettime'
p6827
I1
tp6828
a(S'QApplicationD'
p6829
I1
tp6830
a(S'InputTypeFlags'
p6831
I1
tp6832
a(S'QApplicationC'
p6833
I1
tp6834
a(S'isTextureProviderEv'
p6835
I1
tp6836
a(S'ever'
p6837
I1
tp6838
a(S'PKCS'
p6839
I1
tp6840
a(S'SEQUENCE'
p6841
I1
tp6842
a(S'never'
p6843
I1
tp6844
a(S'SUCCESS'
p6845
I1
tp6846
a(S'detachEi'
p6847
I1
tp6848
a(S'active'
p6849
I1
tp6850
a(S'QTouchDeviceED'
p6851
I1
tp6852
a(S'QByteArray'
p6853
I1
tp6854
a(S'Extra'
p6855
I1
tp6856
a(S'Suspended'
p6857
I1
tp6858
a(S'nextNodeEPNS'
p6859
I1
tp6860
a(S'Serial'
p6861
I1
tp6862
a(S'waitForBytesWrittenEi'
p6863
I1
tp6864
a(S'valueERK'
p6865
I1
tp6866
a(S'getpeername'
p6867
I1
tp6868
a(S'rejectCandidateOwnerForTouchEiP'
p6869
I1
tp6870
a(S'freeNodeEPv'
p6871
I1
tp6872
a(S'SearchEngineEiRK'
p6873
I1
tp6874
a(S'leaks'
p6875
I1
tp6876
a(S'call'
p6877
I1
tp6878
a(S'TABLE'
p6879
I1
tp6880
a(S'Removed'
p6881
I1
tp6882
a(S'exceptionD'
p6883
I1
tp6884
a(S'usersalt'
p6885
I1
tp6886
a(S'webbrowser'
p6887
I1
tp6888
a(S'retrsymlinks'
p6889
I1
tp6890
a(S'PKvEi'
p6891
I1
tp6892
a(S'warc'
p6893
I1
tp6894
a(S'QFutureWatcherBase'
p6895
I1
tp6896
a(S'limitChanged'
p6897
I1
tp6898
a(S'IRIs'
p6899
I1
tp6900
a(S'srpvfile'
p6901
I1
tp6902
a(S'give'
p6903
I1
tp6904
a(S'setPathERK'
p6905
I1
tp6906
a(S'warningEPKcz'
p6907
I1
tp6908
a(S'removeEntriesByDate'
p6909
I1
tp6910
a(S'checkhost'
p6911
I1
tp6912
a(S'neccessarily'
p6913
I1
tp6914
a(S'HistoryDomainListModelEiPKciiS'
p6915
I1
tp6916
a(S'LimitProxyModelEiRK'
p6917
I1
tp6918
a(S'faulty'
p6919
I1
tp6920
a(S'QSql'
p6921
I1
tp6922
a(S'mimetype'
p6923
I1
tp6924
a(S'All'
p6925
I1
tp6926
a(S'BookmarksFolderModelLi'
p6927
I1
tp6928
a(S'setDataERK'
p6929
I1
tp6930
a(S'QQuickShortcutELb'
p6931
I1
tp6932
a(S'operations'
p6933
I1
tp6934
a(S'onTimeoutEv'
p6935
I1
tp6936
a(S'LIMIT'
p6937
I1
tp6938
a(S'PRF'
p6939
I1
tp6940
a(S'TypeEP'
p6941
I1
tp6942
a(S'debugOperatorR'
p6943
I1
tp6944
a(S'Path'
p6945
I1
tp6946
a(S'sequenceChangedEv'
p6947
I1
tp6948
a(S'combination'
p6949
I1
tp6950
a(S'onDisconnectedEv'
p6951
I1
tp6952
a(S'QAbstractListModelC'
p6953
I1
tp6954
a(S'QAbstractListModelD'
p6955
I1
tp6956
a(S'tTA'
p6957
I1
tp6958
a(S'sigalgs'
p6959
I1
tp6960
a(S'ADDRESS'
p6961
I1
tp6962
a(S'mean'
p6963
I1
tp6964
a(S'QString'
p6965
I1
tp6966
a(S'Expansion'
p6967
I1
tp6968
a(S'reader'
p6969
I1
tp6970
a(S'QSqlDatabase'
p6971
I1
tp6972
a(S'turning'
p6973
I1
tp6974
a(S'QSequentialIterableImpl'
p6975
I1
tp6976
a(S'folderAdded'
p6977
I1
tp6978
a(S'logging'
p6979
I1
tp6980
a(S'isn'
p6981
I1
tp6982
a(S'signature'
p6983
I1
tp6984
a(S'prependEv'
p6985
I1
tp6986
a(S'UTCTIME'
p6987
I1
tp6988
a(S'enumerate'
p6989
I1
tp6990
a(S'TIMEZONE'
p6991
I1
tp6992
a(S'payload'
p6993
I1
tp6994
a(S'debugEv'
p6995
I1
tp6996
a(S'yylineno'
p6997
I1
tp6998
a(S'FaviconFetcherC'
p6999
I1
tp7000
a(S'FaviconFetcherD'
p7001
I1
tp7002
a(S'activatedAmbiguouslyEv'
p7003
I1
tp7004
a(S'Converted'
p7005
I1
tp7006
a(S'mkostemp'
p7007
I1
tp7008
a(S'nostr'
p7009
I1
tp7010
a(S'PVK'
p7011
I1
tp7012
a(S'distance'
p7013
I1
tp7014
a(S'TextSearchFilterModelC'
p7015
I1
tp7016
a(S'TextSearchFilterModelD'
p7017
I1
tp7018
a(S'Consider'
p7019
I1
tp7020
a(S'HistoryLastVisitDateListModelELb'
p7021
I1
tp7022
a(S'onModelReset'
p7023
I1
tp7024
a(S'AUATUSL'
p7025
I1
tp7026
a(S'efbcf'
p7027
I1
tp7028
a(S'usages'
p7029
I1
tp7030
a(S'QStringList'
p7031
I1
tp7032
a(S'QRegExp'
p7033
I1
tp7034
a(S'entryInfoListERK'
p7035
I1
tp7036
a(S'ABAKATA'
p7037
I1
tp7038
a(S'windowEv'
p7039
I1
tp7040
a(S'minSpeedChanged'
p7041
I1
tp7042
a(S'QVariant'
p7043
I1
tp7044
a(S'shouldCacheEv'
p7045
I1
tp7046
a(S'rethrow'
p7047
I1
tp7048
a(S'QHoverEvent'
p7049
I1
tp7050
a(S'regular'
p7051
I1
tp7052
a(S'HistoryDomainListModelLb'
p7053
I1
tp7054
a(S'Caching'
p7055
I1
tp7056
a(S'HistoryDomainListModelLi'
p7057
I1
tp7058
a(S'tyH'
p7059
I1
tp7060
a(S'alarm'
p7061
I1
tp7062
a(S'dot'
p7063
I1
tp7064
a(S'Illegal'
p7065
I1
tp7066
a(S'attempts'
p7067
I1
tp7068
a(S'errstr'
p7069
I1
tp7070
a(S'proxypasswd'
p7071
I1
tp7072
a(S'setContextEN'
p7073
I1
tp7074
a(S'VxD'
p7075
I1
tp7076
a(S'Free'
p7077
I1
tp7078
a(S'cadirectory'
p7079
I1
tp7080
a(S'AWL'
p7081
I1
tp7082
a(S'folder'
p7083
I1
tp7084
a(S'DHparams'
p7085
I1
tp7086
a(S'Days'
p7087
I1
tp7088
a(S'emailAddress'
p7089
I1
tp7090
a(S'WHERE'
p7091
I1
tp7092
a(S'databasePathChangedEv'
p7093
I1
tp7094
a(S'bar'
p7095
I1
tp7096
a(S'ietf'
p7097
I1
tp7098
a(S'bag'
p7099
I1
tp7100
a(S'countChanged'
p7101
I1
tp7102
a(S'EXPERIMENTAL'
p7103
I1
tp7104
a(S'reference'
p7105
I1
tp7106
a(S'testing'
p7107
I1
tp7108
a(S'connectOutputInterfaceEv'
p7109
I1
tp7110
a(S'QMetaTypeIdI'
p7111
I1
tp7112
a(S'keyPressEventEP'
p7113
I1
tp7114
a(S'updatePolishEv'
p7115
I1
tp7116
a(S'Run'
p7117
I1
tp7118
a(S'Registered'
p7119
I1
tp7120
a(S'BookmarksModel'
p7121
I1
tp7122
a(S'timeoutENS'
p7123
I1
tp7124
a(S'QAbstractListModel'
p7125
I1
tp7126
a(S'Queue'
p7127
I1
tp7128
a(S'unE'
p7129
I1
tp7130
a(S'certificatetype'
p7131
I1
tp7132
a(S'xp'
p7133
I1
tp7134
a(S'Supported'
p7135
I1
tp7136
a(S'duplicateNodeEPN'
p7137
I1
tp7138
a(S'filesInDirectory'
p7139
I1
tp7140
a(S'uni'
p7141
I1
tp7142
a(S'QVectorI'
p7143
I1
tp7144
a(S'CERTIFICATE'
p7145
I1
tp7146
a(S'updateDeviceList'
p7147
I1
tp7148
a(S'loaded'
p7149
I1
tp7150
a(S'QDateTime'
p7151
I1
tp7152
a(S'QShortcutMap'
p7153
I1
tp7154
a(S'puts'
p7155
I1
tp7156
a(S'etherx'
p7157
I1
tp7158
a(S'renegotiation'
p7159
I1
tp7160
a(S'PKEY'
p7161
I1
tp7162
a(S'deeper'
p7163
I1
tp7164
a(S'CB'
p7165
I1
tp7166
a(S'CA'
p7167
I1
tp7168
a(S'CE'
p7169
I1
tp7170
a(S'argument'
p7171
I1
tp7172
a(S'EncryptedData'
p7173
I1
tp7174
a(S'CW'
p7175
I1
tp7176
a(S'Cc'
p7177
I1
tp7178
a(S'privatekey'
p7179
I1
tp7180
a(S'QDataStream'
p7181
I1
tp7182
a(S'savecookies'
p7183
I1
tp7184
a(S'ip'
p7185
I1
tp7186
a(S'iu'
p7187
I1
tp7188
a(S'iv'
p7189
I1
tp7190
a(S'ih'
p7191
I1
tp7192
a(S'io'
p7193
I1
tp7194
a(S'mouse'
p7195
I1
tp7196
a(S'ComponentFormattingOptionEE'
p7197
I1
tp7198
a(S'recognizedEP'
p7199
I1
tp7200
a(S'CREATE'
p7201
I1
tp7202
a(S'iI'
p7203
I1
tp7204
a(S'iH'
p7205
I1
tp7206
a(S'iJ'
p7207
I1
tp7208
a(S'iN'
p7209
I1
tp7210
a(S'entryListERK'
p7211
I1
tp7212
a(S'QModelIndexiiS'
p7213
I1
tp7214
a(S'isHorizontal'
p7215
I1
tp7216
a(S'Owner'
p7217
I1
tp7218
a(S'Values'
p7219
I1
tp7220
a(S'VY'
p7221
I1
tp7222
a(S'Va'
p7223
I1
tp7224
a(S'PHcB'
p7225
I1
tp7226
a(S'timeouts'
p7227
I1
tp7228
a(S'QHostAddressED'
p7229
I1
tp7230
a(S'serverresponse'
p7231
I1
tp7232
a(S'endif'
p7233
I1
tp7234
a(S'intervalEv'
p7235
I1
tp7236
a(S'claims'
p7237
I1
tp7238
a(S'left'
p7239
I1
tp7240
a(S'sourceModelEv'
p7241
I1
tp7242
a(S'rowsMoved'
p7243
I1
tp7244
a(S'textureProviderEv'
p7245
I1
tp7246
a(S'tCI'
p7247
I1
tp7248
a(S'rootPathEv'
p7249
I1
tp7250
a(S'ZYI'
p7251
I1
tp7252
a(S'bandwidth'
p7253
I1
tp7254
a(S'notifyInternalEP'
p7255
I1
tp7256
a(S'QJSValue'
p7257
I1
tp7258
a(S'registerTypesEPKc'
p7259
I1
tp7260
a(S'candidate'
p7261
I1
tp7262
a(S'tCUSH'
p7263
I1
tp7264
a(S'ZYt'
p7265
I1
tp7266
a(S'opt'
p7267
I1
tp7268
a(S'LimitProxyModelLi'
p7269
I1
tp7270
a(S'LimitProxyModelLb'
p7271
I1
tp7272
a(S'registerConverterFunctionEPKN'
p7273
I1
tp7274
a(S'background'
p7275
I1
tp7276
a(S'HistoryModel'
p7277
I1
tp7278
a(S'peerform'
p7279
I1
tp7280
a(S'freopen'
p7281
I1
tp7282
a(S'columnCountERK'
p7283
I1
tp7284
a(S'DOMAIN'
p7285
I1
tp7286
a(S'folderChangedEv'
p7287
I1
tp7288
a(S'WINDOWS'
p7289
I1
tp7290
a(S'libQt'
p7291
I1
tp7292
a(S'helperERKS'
p7293
I1
tp7294
a(S'onModelChanged'
p7295
I1
tp7296
a(S'intern'
p7297
I1
tp7298
a(S'Valid'
p7299
I1
tp7300
a(S'lastVisit'
p7301
I1
tp7302
a(S'Safe'
p7303
I1
tp7304
a(S'touchY'
p7305
I1
tp7306
a(S'sigsetjmp'
p7307
I1
tp7308
a(S'localhost'
p7309
I1
tp7310
a(S'uncompress'
p7311
I1
tp7312
a(S'tVL'
p7313
I1
tp7314
a(S'TouchGate'
p7315
I1
tp7316
a(S'PatternSyntaxE'
p7317
I1
tp7318
a(S'ftpsfallbacktoftp'
p7319
I1
tp7320
a(S'mouseMoveEventEP'
p7321
I1
tp7322
a(S'commit'
p7323
I1
tp7324
a(S'Parsed'
p7325
I1
tp7326
a(S'down'
p7327
I1
tp7328
a(S'NOTHTTPS'
p7329
I1
tp7330
a(S'subj'
p7331
I1
tp7332
a(S'filterAcceptsRowEiRK'
p7333
I1
tp7334
a(S'initial'
p7335
I1
tp7336
a(S'Ubuntu'
p7337
I1
tp7338
a(S'QFutureWatcherBaseC'
p7339
I1
tp7340
a(S'DNO'
p7341
I1
tp7342
a(S'DNS'
p7343
I1
tp7344
a(S'QMimeTypeD'
p7345
I1
tp7346
a(S'removeColumnsEiiRK'
p7347
I1
tp7348
a(S'infoE'
p7349
I1
tp7350
a(S'bounds'
p7351
I1
tp7352
a(S'unref'
p7353
I1
tp7354
a(S'benchmarks'
p7355
I1
tp7356
a(S'constDataEv'
p7357
I1
tp7358
a(S'setRectERK'
p7359
I1
tp7360
a(S'pCpCL'
p7361
I1
tp7362
a(S'DIST'
p7363
I1
tp7364
a(S'classic'
p7365
I1
tp7366
a(S'existsERK'
p7367
I1
tp7368
a(S'pCpCZ'
p7369
I1
tp7370
a(S'canFetchMoreERK'
p7371
I1
tp7372
a(S'appendEPKci'
p7373
I1
tp7374
a(S'Description'
p7375
I1
tp7376
a(S'connectEPKS'
p7377
I1
tp7378
a(S'matchERK'
p7379
I1
tp7380
a(S'TouchRegistry'
p7381
I1
tp7382
a(S'Enqueuing'
p7383
I1
tp7384
a(S'nointern'
p7385
I1
tp7386
a(S'exporter'
p7387
I1
tp7388
a(S'VariantDataEPKPvij'
p7389
I1
tp7390
a(S'Responder'
p7391
I1
tp7392
a(S'FaviconFetcherEEvPv'
p7393
I1
tp7394
a(S'DNDEBUG'
p7395
I1
tp7396
a(S'ZTIN'
p7397
I1
tp7398
a(S'Timer'
p7399
I1
tp7400
a(S'vAH'
p7401
I1
tp7402
a(S'growEii'
p7403
I1
tp7404
a(S'assume'
p7405
I1
tp7406
a(S'pseudo'
p7407
I1
tp7408
a(S'gzclose'
p7409
I1
tp7410
a(S'RecursionModeE'
p7411
I1
tp7412
a(S'QListIiE'
p7413
I1
tp7414
a(S'revoke'
p7415
I1
tp7416
a(S'skip'
p7417
I1
tp7418
a(S'Nonce'
p7419
I1
tp7420
a(S'SearchEngineEE'
p7421
I1
tp7422
a(S'SearchEngineED'
p7423
I1
tp7424
a(S'dYiN'
p7425
I1
tp7426
a(S'Exactly'
p7427
I1
tp7428
a(S'netpreserve'
p7429
I1
tp7430
a(S'elliptic'
p7431
I1
tp7432
a(S'SYST'
p7433
I1
tp7434
a(S'certificateHold'
p7435
I1
tp7436
a(S'Where'
p7437
I1
tp7438
a(S'OCSP'
p7439
I1
tp7440
a(S'Protocol'
p7441
I1
tp7442
a(S'PAUAV'
p7443
I1
tp7444
a(S'dig'
p7445
I1
tp7446
a(S'unexpected'
p7447
I1
tp7448
a(S'QTime'
p7449
I1
tp7450
a(S'removeERKi'
p7451
I1
tp7452
a(S'TOUCHPAD'
p7453
I1
tp7454
a(S'BookmarksFolderListModelLi'
p7455
I1
tp7456
a(S'styleHintsEv'
p7457
I1
tp7458
a(S'BookmarksFolderListModelLb'
p7459
I1
tp7460
a(S'deduplication'
p7461
I1
tp7462
a(S'FaviconFetcher'
p7463
I1
tp7464
a(S'removeERKS'
p7465
I1
tp7466
a(S'DSS'
p7467
I1
tp7468
a(S'QSqlDatabaseaSERKS'
p7469
I1
tp7470
a(S'absoluteFilePathEv'
p7471
I1
tp7472
a(S'DSA'
p7473
I1
tp7474
a(S'shift'
p7475
I1
tp7476
a(S'numtries'
p7477
I1
tp7478
a(S'Session'
p7479
I1
tp7480
a(S'refuses'
p7481
I1
tp7482
a(S'CIPHER'
p7483
I1
tp7484
a(S'lockEv'
p7485
I1
tp7486
a(S'RANDFILE'
p7487
I1
tp7488
a(S'stylesheet'
p7489
I1
tp7490
a(S'sceneRectEv'
p7491
I1
tp7492
a(S'Allowing'
p7493
I1
tp7494
a(S'AUE'
p7495
I1
tp7496
a(S'appending'
p7497
I1
tp7498
a(S'AUX'
p7499
I1
tp7500
a(S'srpuserseed'
p7501
I1
tp7502
a(S'ListIJiS'
p7503
I1
tp7504
a(S'addedDevice'
p7505
I1
tp7506
a(S'quoting'
p7507
I1
tp7508
a(S'mimeTypeForFileERK'
p7509
I1
tp7510
a(S'completeSuffixEv'
p7511
I1
tp7512
a(S'QPointerI'
p7513
I1
tp7514
a(S'making'
p7515
I1
tp7516
a(S'agent'
p7517
I1
tp7518
a(S'clearerr'
p7519
I1
tp7520
a(S'charset'
p7521
I1
tp7522
a(S'till'
p7523
I1
tp7524
a(S'pure'
p7525
I1
tp7526
a(S'processFilteredTouchBeginEP'
p7527
I1
tp7528
a(S'connectNotifyERK'
p7529
I1
tp7530
a(S'Curve'
p7531
I1
tp7532
a(S'mac'
p7533
I1
tp7534
a(S'TouchDispatcher'
p7535
I1
tp7536
a(S'QDateE'
p7537
I1
tp7538
a(S'movingInRightDirectionEv'
p7539
I1
tp7540
a(S'QDateP'
p7541
I1
tp7542
a(S'switch'
p7543
I1
tp7544
a(S'SearchEngineEEvPv'
p7545
I1
tp7546
a(S'xwLc'
p7547
I1
tp7548
a(S'protocoldirectories'
p7549
I1
tp7550
a(S'draggingChanged'
p7551
I1
tp7552
a(S'PPvS'
p7553
I1
tp7554
a(S'pointer'
p7555
I1
tp7556
a(S'equiv'
p7557
I1
tp7558
a(S'group'
p7559
I1
tp7560
a(S'monitor'
p7561
I1
tp7562
a(S'BookmarksFolderListModel'
p7563
I1
tp7564
a(S'WTF'
p7565
I1
tp7566
a(S'keyout'
p7567
I1
tp7568
a(S'UnownedTouchEventC'
p7569
I1
tp7570
a(S'UnownedTouchEventD'
p7571
I1
tp7572
a(S'CfC'
p7573
I1
tp7574
a(S'canConvertEi'
p7575
I1
tp7576
a(S'Closing'
p7577
I1
tp7578
a(S'notext'
p7579
I1
tp7580
a(S'ABCDEFGHIJKLMNOPQRSTUVWXYZabcdefghijklmnopqrstuvwxyzpasswd'
p7581
I1
tp7582
a(S'HistoryDomainModelLb'
p7583
I1
tp7584
a(S'canonicalPathEv'
p7585
I1
tp7586
a(S'HTTPMethod'
p7587
I1
tp7588
a(S'HistoryDomainModelLi'
p7589
I1
tp7590
a(S'ntlm'
p7591
I1
tp7592
a(S'crypto'
p7593
I1
tp7594
a(S'Stored'
p7595
I1
tp7596
a(S'encdata'
p7597
I1
tp7598
a(S'unlock'
p7599
I1
tp7600
a(S'libgcc'
p7601
I1
tp7602
a(S'memdup'
p7603
I1
tp7604
a(S'retrieveEv'
p7605
I1
tp7606
a(S'Recipients'
p7607
I1
tp7608
a(S'Key'
p7609
I1
tp7610
a(S'correct'
p7611
I1
tp7612
a(S'goto'
p7613
I1
tp7614
a(S'Options'
p7615
I1
tp7616
a(S'forbids'
p7617
I1
tp7618
a(S'freeTreeEP'
p7619
I1
tp7620
a(S'Deciding'
p7621
I1
tp7622
a(S'nofollow'
p7623
I1
tp7624
a(S'cHt'
p7625
I1
tp7626
a(S'QSQLITE'
p7627
I1
tp7628
a(S'PUBKEY'
p7629
I1
tp7630
a(S'think'
p7631
I1
tp7632
a(S'Authenticate'
p7633
I1
tp7634
a(S'QMatrix'
p7635
I1
tp7636
a(S'removeTouchEi'
p7637
I1
tp7638
a(S'rwrite'
p7639
I1
tp7640
a(S'ISO'
p7641
I1
tp7642
a(S'setPreviousScenePosERK'
p7643
I1
tp7644
a(S'removeEntriesFromDatabaseByDateERK'
p7645
I1
tp7646
a(S'aborting'
p7647
I1
tp7648
a(S'tmHcp'
p7649
I1
tp7650
a(S'workaround'
p7651
I1
tp7652
a(S'Downloaded'
p7653
I1
tp7654
a(S'libpcre'
p7655
I1
tp7656
a(S'pathChangedERK'
p7657
I1
tp7658
a(S'Shortcut'
p7659
I1
tp7660
a(S'cleanse'
p7661
I1
tp7662
a(S'tPM'
p7663
I1
tp7664
a(S'LIST'
p7665
I1
tp7666
a(S'tPH'
p7667
I1
tp7668
a(S'tPV'
p7669
I1
tp7670
a(S'were'
p7671
I1
tp7672
a(S'DN'
p7673
I1
tp7674
a(S'DL'
p7675
I1
tp7676
a(S'DI'
p7677
I1
tp7678
a(S'DD'
p7679
I1
tp7680
a(S'DE'
p7681
I1
tp7682
a(S'DB'
p7683
I1
tp7684
a(S'DC'
p7685
I1
tp7686
a(S'DA'
p7687
I1
tp7688
a(S'DT'
p7689
I1
tp7690
a(S'ATAWH'
p7691
I1
tp7692
a(S'DP'
p7693
I1
tp7694
a(S'Do'
p7695
I1
tp7696
a(S'Dl'
p7697
I1
tp7698
a(S'intervalChangedEv'
p7699
I1
tp7700
a(S'Dv'
p7701
I1
tp7702
a(S'Dt'
p7703
I1
tp7704
a(S'modulus'
p7705
I1
tp7706
a(S'channel'
p7707
I1
tp7708
a(S'createDataEv'
p7709
I1
tp7710
a(S'trace'
p7711
I1
tp7712
a(S'UAVH'
p7713
I1
tp7714
a(S'INTO'
p7715
I1
tp7716
a(S'xUIc'
p7717
I1
tp7718
a(S'synonym'
p7719
I1
tp7720
a(S'QInputDeviceLb'
p7721
I1
tp7722
a(S'QInputDeviceLi'
p7723
I1
tp7724
a(S'order'
p7725
I1
tp7726
a(S'GPLv'
p7727
I1
tp7728
a(S'CRLF'
p7729
I1
tp7730
a(S'canDropMimeDataEPK'
p7731
I1
tp7732
a(S'WQ'
p7733
I1
tp7734
a(S'WP'
p7735
I1
tp7736
a(S'QMapDataBase'
p7737
I1
tp7738
a(S'httppassword'
p7739
I1
tp7740
a(S'We'
p7741
I1
tp7742
a(S'dotsinline'
p7743
I1
tp7744
a(S'Wl'
p7745
I1
tp7746
a(S'black'
p7747
I1
tp7748
a(S'Protocols'
p7749
I1
tp7750
a(S'newkey'
p7751
I1
tp7752
a(S'Turn'
p7753
I1
tp7754
a(S'AUAWL'
p7755
I1
tp7756
a(S'AUAWE'
p7757
I1
tp7758
a(S'qbjs'
p7759
I1
tp7760
a(S'gen'
p7761
I1
tp7762
a(S'secondary'
p7763
I1
tp7764
a(S'TouchOwnershipEventD'
p7765
I1
tp7766
a(S'TouchOwnershipEventC'
p7767
I1
tp7768
a(S'convertEPKNS'
p7769
I1
tp7770
a(S'finishing'
p7771
I1
tp7772
a(S'lastVisitEv'
p7773
I1
tp7774
a(S'deviceMapEv'
p7775
I1
tp7776
a(S'relative'
p7777
I1
tp7778
a(S'passout'
p7779
I1
tp7780
a(S'initializeEv'
p7781
I1
tp7782
a(S'noproxy'
p7783
I1
tp7784
a(S'FOR'
p7785
I1
tp7786
a(S'label'
p7787
I1
tp7788
a(S'Hours'
p7789
I1
tp7790
a(S'enough'
p7791
I1
tp7792
a(S'QMutex'
p7793
I1
tp7794
a(S'checks'
p7795
I1
tp7796
a(S'trackedPositionEv'
p7797
I1
tp7798
a(S'jp'
p7799
I1
tp7800
a(S'InputInfoPlugin'
p7801
I1
tp7802
a(S'capEi'
p7803
I1
tp7804
a(S'dates'
p7805
I1
tp7806
a(S'htmlextension'
p7807
I1
tp7808
a(S'jX'
p7809
I1
tp7810
a(S'DirectionalDragAreaEiRK'
p7811
I1
tp7812
a(S'configuring'
p7813
I1
tp7814
a(S'jV'
p7815
I1
tp7816
a(S'ConnectionTypeEPKiPK'
p7817
I1
tp7818
a(S'QFocusEvent'
p7819
I1
tp7820
a(S'genpkey'
p7821
I1
tp7822
a(S'srppass'
p7823
I1
tp7824
a(S'showalldnsentries'
p7825
I1
tp7826
a(S'among'
p7827
I1
tp7828
a(S'backupconverted'
p7829
I1
tp7830
a(S'findNodeERKS'
p7831
I1
tp7832
a(S'ized'
p7833
I1
tp7834
a(S'toupper'
p7835
I1
tp7836
a(S'considering'
p7837
I1
tp7838
a(S'hexdump'
p7839
I1
tp7840
a(S'capable'
p7841
I1
tp7842
a(S'sourceModelChanged'
p7843
I1
tp7844
a(S'childEventEP'
p7845
I1
tp7846
a(S'certify'
p7847
I1
tp7848
a(S'searchFieldsEv'
p7849
I1
tp7850
a(S'DropActionEiiRK'
p7851
I1
tp7852
a(S'mark'
p7853
I1
tp7854
a(S'CAST'
p7855
I1
tp7856
a(S'dispatchEN'
p7857
I1
tp7858
a(S'nextupdate'
p7859
I1
tp7860
a(S'UpdatePaintNodeDataE'
p7861
I1
tp7862
a(S'searchFields'
p7863
I1
tp7864
a(S'COMP'
p7865
I1
tp7866
a(S'TextSearchFilterModelED'
p7867
I1
tp7868
a(S'TextSearchFilterModelEE'
p7869
I1
tp7870
a(S'iconChanged'
p7871
I1
tp7872
a(S'descriptionChangedEv'
p7873
I1
tp7874
a(S'Pfeo'
p7875
I1
tp7876
a(S'profiles'
p7877
I1
tp7878
a(S'compile'
p7879
I1
tp7880
a(S'qstrcmpPKcS'
p7881
I1
tp7882
a(S'Mimetype'
p7883
I1
tp7884
a(S'HistoryDomainModelD'
p7885
I1
tp7886
a(S'HistoryDomainModelE'
p7887
I1
tp7888
a(S'Transfer'
p7889
I1
tp7890
a(S'Composing'
p7891
I1
tp7892
a(S'QVariantED'
p7893
I1
tp7894
a(S'middle'
p7895
I1
tp7896
a(S'jR'
p7897
I1
tp7898
a(S'different'
p7899
I1
tp7900
a(S'POLICY'
p7901
I1
tp7902
a(S'jI'
p7903
I1
tp7904
a(S'mouseGrabberItemEv'
p7905
I1
tp7906
a(S'extended'
p7907
I1
tp7908
a(S'EXISTS'
p7909
I1
tp7910
a(S'oid'
p7911
I1
tp7912
a(S'dcertform'
p7913
I1
tp7914
a(S'running'
p7915
I1
tp7916
a(S'setSearchPathsERK'
p7917
I1
tp7918
a(S'ZThn'
p7919
I1
tp7920
a(S'DownloadEntryEEC'
p7921
I1
tp7922
a(S'nameForMimetype'
p7923
I1
tp7924
a(S'DownloadEntryEED'
p7925
I1
tp7926
a(S'Reused'
p7927
I1
tp7928
a(S'FaviconFetcherLb'
p7929
I1
tp7930
a(S'Revocation'
p7931
I1
tp7932
a(S'FaviconFetcherLi'
p7933
I1
tp7934
a(S'IcG'
p7935
I1
tp7936
a(S'proxypassword'
p7937
I1
tp7938
a(S'imprint'
p7939
I1
tp7940
a(S'Lookup'
p7941
I1
tp7942
a(S'TO'
p7943
I1
tp7944
a(S'runERK'
p7945
I1
tp7946
a(S'searchPathsChangedEv'
p7947
I1
tp7948
a(S'wideningAngleEv'
p7949
I1
tp7950
a(S'credentials'
p7951
I1
tp7952
a(S'QQuickShortcutEE'
p7953
I1
tp7954
a(S'QQuickShortcutED'
p7955
I1
tp7956
a(S'mod'
p7957
I1
tp7958
a(S'CERTIFICATION'
p7959
I1
tp7960
a(S'Wget'
p7961
I1
tp7962
a(S'smime'
p7963
I1
tp7964
a(S'touchSceneYChangedEd'
p7965
I1
tp7966
a(S'zlz'
p7967
I1
tp7968
a(S'specifies'
p7969
I1
tp7970
a(S'removeCandidateOwnerForTouchEiP'
p7971
I1
tp7972
a(S'resetFormatEv'
p7973
I1
tp7974
a(S'images'
p7975
I1
tp7976
a(S'renameERK'
p7977
I1
tp7978
a(S'critical'
p7979
I1
tp7980
a(S'HistoryLastVisitDateListModel'
p7981
I1
tp7982
a(S'Configuration'
p7983
I1
tp7984
a(S'QDataStreamR'
p7985
I1
tp7986
a(S'visits'
p7987
I1
tp7988
a(S'QDataStreamD'
p7989
I1
tp7990
a(S'QDataStreamC'
p7991
I1
tp7992
a(S'bitstr'
p7993
I1
tp7994
a(S'ansiX'
p7995
I1
tp7996
a(S'sourceModel'
p7997
I1
tp7998
a(S'encryption'
p7999
I1
tp8000
a(S'posEv'
p8001
I1
tp8002
a(S'setLocalUrlERK'
p8003
I1
tp8004
a(S'saveERK'
p8005
I1
tp8006
a(S'Visits'
p8007
I1
tp8008
a(S'MASTER'
p8009
I1
tp8010
a(S'structure'
p8011
I1
tp8012
a(S'QGuiApplicationPrivate'
p8013
I1
tp8014
a(S'onFolderDataChanged'
p8015
I1
tp8016
a(S'useservertimestamps'
p8017
I1
tp8018
a(S'BookmarksModelLb'
p8019
I1
tp8020
a(S'toTimeSpecEN'
p8021
I1
tp8022
a(S'BookmarksModelLi'
p8023
I1
tp8024
a(S'ParsingModeE'
p8025
I1
tp8026
a(S'SRTP'
p8027
I1
tp8028
a(S'SIGHUP'
p8029
I1
tp8030
a(S'QListIPK'
p8031
I1
tp8032
a(S'required'
p8033
I1
tp8034
a(S'AQAPRVRA'
p8035
I1
tp8036
a(S'USI'
p8037
I1
tp8038
a(S'general'
p8039
I1
tp8040
a(S'Lets'
p8041
I1
tp8042
a(S'allocating'
p8043
I1
tp8044
a(S'distanceThresholdChanged'
p8045
I1
tp8046
a(S'separatorEv'
p8047
I1
tp8048
a(S'hybrid'
p8049
I1
tp8050
a(S'mouseDoubleClickEventEP'
p8051
I1
tp8052
a(S'LengthH'
p8053
I1
tp8054
a(S'movedFarEnoughERK'
p8055
I1
tp8056
a(S'STARTTLS'
p8057
I1
tp8058
a(S'removeTouchInfoForEndedTouchesERK'
p8059
I1
tp8060
a(S'QDateTimeD'
p8061
I1
tp8062
a(S'important'
p8063
I1
tp8064
a(S'removeEi'
p8065
I1
tp8066
a(S'emitDataChangedERK'
p8067
I1
tp8068
a(S'unload'
p8069
I1
tp8070
a(S'QDateTimeC'
p8071
I1
tp8072
a(S'unset'
p8073
I1
tp8074
a(S'countChangedEv'
p8075
I1
tp8076
a(S'SIG'
p8077
I1
tp8078
a(S'prefixed'
p8079
I1
tp8080
a(S'QQmlComponent'
p8081
I1
tp8082
a(S'strptime'
p8083
I1
tp8084
a(S'mimeDataERK'
p8085
I1
tp8086
a(S'secretkey'
p8087
I1
tp8088
a(S'mimeTypesEv'
p8089
I1
tp8090
a(S'those'
p8091
I1
tp8092
a(S'Self'
p8093
I1
tp8094
a(S'lastVisitDate'
p8095
I1
tp8096
a(S'Directories'
p8097
I1
tp8098
a(S'blowfish'
p8099
I1
tp8100
a(S'fall'
p8101
I1
tp8102
a(S'Prepended'
p8103
I1
tp8104
a(S'disconnected'
p8105
I1
tp8106
a(S'QPointFS'
p8107
I1
tp8108
a(S'NCONF'
p8109
I1
tp8110
a(S'Omitting'
p8111
I1
tp8112
a(S'QWeakPointerI'
p8113
I1
tp8114
a(S'further'
p8115
I1
tp8116
a(S'QTMETADATA'
p8117
I1
tp8118
a(S'pCpC'
p8119
I1
tp8120
a(S'twopass'
p8121
I1
tp8122
a(S'buttonsEv'
p8123
I1
tp8124
a(S'public'
p8125
I1
tp8126
a(S'compilation'
p8127
I1
tp8128
a(S'component'
p8129
I1
tp8130
a(S'QSlotObjectIM'
p8131
I1
tp8132
a(S'TouchPad'
p8133
I1
tp8134
a(S'vals'
p8135
I1
tp8136
a(S'TMPDIR'
p8137
I1
tp8138
a(S'search'
p8139
I1
tp8140
a(S'Retrieve'
p8141
I1
tp8142
a(S'noiter'
p8143
I1
tp8144
a(S'clearAllEv'
p8145
I1
tp8146
a(S'SIGUSR'
p8147
I1
tp8148
a(S'twE'
p8149
I1
tp8150
a(S'twH'
p8151
I1
tp8152
a(S'roleNamesEv'
p8153
I1
tp8154
a(S'deviceCountChanged'
p8155
I1
tp8156
a(S'establish'
p8157
I1
tp8158
a(S'Core'
p8159
I1
tp8160
a(S'destination'
p8161
I1
tp8162
a(S'ECDH'
p8163
I1
tp8164
a(S'DecryptFinal'
p8165
I1
tp8166
a(S'onModelResetEv'
p8167
I1
tp8168
a(S'hasChildrenERK'
p8169
I1
tp8170
a(S'gO'
p8171
I1
tp8172
a(S'particular'
p8173
I1
tp8174
a(S'sleeping'
p8175
I1
tp8176
a(S'QQuickWindow'
p8177
I1
tp8178
a(S'copyall'
p8179
I1
tp8180
a(S'cacertificate'
p8181
I1
tp8182
a(S'der'
p8183
I1
tp8184
a(S'des'
p8185
I1
tp8186
a(S'SPANNEDHOST'
p8187
I1
tp8188
a(S'dev'
p8189
I1
tp8190
a(S'topLevelDomainE'
p8191
I1
tp8192
a(S'QXmlStreamReader'
p8193
I1
tp8194
a(S'dec'
p8195
I1
tp8196
a(S'def'
p8197
I1
tp8198
a(S'compare'
p8199
I1
tp8200
a(S'numbers'
p8201
I1
tp8202
a(S'warccdxdedup'
p8203
I1
tp8204
a(S'needs'
p8205
I1
tp8206
a(S'Expires'
p8207
I1
tp8208
a(S'deleteDownloadERK'
p8209
I1
tp8210
a(S'modelReset'
p8211
I1
tp8212
a(S'csu'
p8213
I1
tp8214
a(S'Expired'
p8215
I1
tp8216
a(S'css'
p8217
I1
tp8218
a(S'NodeEPvEPFvS'
p8219
I1
tp8220
a(S'Don'
p8221
I1
tp8222
a(S'List'
p8223
I1
tp8224
a(S'coming'
p8225
I1
tp8226
a(S'Collecting'
p8227
I1
tp8228
a(S'QModelIndexi'
p8229
I1
tp8230
a(S'checkcertificate'
p8231
I1
tp8232
a(S'secp'
p8233
I1
tp8234
a(S'secs'
p8235
I1
tp8236
a(S'redirecting'
p8237
I1
tp8238
a(S'alpn'
p8239
I1
tp8240
a(S'defaultpage'
p8241
I1
tp8242
a(S'What'
p8243
I1
tp8244
a(S'ZNK'
p8245
I1
tp8246
a(S'QDir'
p8247
I1
tp8248
a(S'trkd'
p8249
I1
tp8250
a(S'through'
p8251
I1
tp8252
a(S'filters'
p8253
I1
tp8254
a(S'existence'
p8255
I1
tp8256
a(S'LIBEVDEV'
p8257
I1
tp8258
a(S'metacallEN'
p8259
I1
tp8260
a(S'detected'
p8261
I1
tp8262
a(S'EEEvE'
p8263
I1
tp8264
a(S'initializing'
p8265
I1
tp8266
a(S'Implicit'
p8267
I1
tp8268
a(S'ExternalRefCountDataE'
p8269
I1
tp8270
a(S'libidn'
p8271
I1
tp8272
a(S'QTimerD'
p8273
I1
tp8274
a(S'Iteration'
p8275
I1
tp8276
a(S'Bag'
p8277
I1
tp8278
a(S'lastVisitedTitleChanged'
p8279
I1
tp8280
a(S'setTargetItemEP'
p8281
I1
tp8282
a(S'detach'
p8283
I1
tp8284
a(S'HistoryLastVisitDateListModelED'
p8285
I1
tp8286
a(S'HistoryLastVisitDateListModelEE'
p8287
I1
tp8288
a(S'Saving'
p8289
I1
tp8290
a(S'DELETE'
p8291
I1
tp8292
a(S'subsystem'
p8293
I1
tp8294
a(S'another'
p8295
I1
tp8296
a(S'idea'
p8297
I1
tp8298
a(S'Waiting'
p8299
I1
tp8300
a(S'QUrlTwoFlagsINS'
p8301
I1
tp8302
a(S'Enable'
p8303
I1
tp8304
a(S'setsid'
p8305
I1
tp8306
a(S'qHashRK'
p8307
I1
tp8308
a(S'WAVI'
p8309
I1
tp8310
a(S'EA'
p8311
I1
tp8312
a(S'EC'
p8313
I1
tp8314
a(S'Leaving'
p8315
I1
tp8316
a(S'TouchPointEEm'
p8317
I1
tp8318
a(S'disposition'
p8319
I1
tp8320
a(S'ET'
p8321
I1
tp8322
a(S'EP'
p8323
I1
tp8324
a(S'ES'
p8325
I1
tp8326
a(S'Ei'
p8327
I1
tp8328
a(S'Ej'
p8329
I1
tp8330
a(S'Eg'
p8331
I1
tp8332
a(S'TouchPointEEP'
p8333
I1
tp8334
a(S'Eb'
p8335
I1
tp8336
a(S'Ex'
p8337
I1
tp8338
a(S'TouchPointEED'
p8339
I1
tp8340
a(S'Ev'
p8341
I1
tp8342
a(S'TouchPointEEC'
p8343
I1
tp8344
a(S'dont'
p8345
I1
tp8346
a(S'Hostname'
p8347
I1
tp8348
a(S'instances'
p8349
I1
tp8350
a(S'BtKA'
p8351
I1
tp8352
a(S'Renegotiation'
p8353
I1
tp8354
a(S'jabber'
p8355
I1
tp8356
a(S'ZltRK'
p8357
I1
tp8358
a(S'Mcl'
p8359
I1
tp8360
a(S'zj'
p8361
I1
tp8362
a(S'instanceE'
p8363
I1
tp8364
a(S'Mcg'
p8365
I1
tp8366
a(S'least'
p8367
I1
tp8368
a(S'assumption'
p8369
I1
tp8370
a(S'WPH'
p8371
I1
tp8372
a(S'ecdsa'
p8373
I1
tp8374
a(S'XM'
p8375
I1
tp8376
a(S'XA'
p8377
I1
tp8378
a(S'XE'
p8379
I1
tp8380
a(S'part'
p8381
I1
tp8382
a(S'DTD'
p8383
I1
tp8384
a(S'Xf'
p8385
I1
tp8386
a(S'Xd'
p8387
I1
tp8388
a(S'Xr'
p8389
I1
tp8390
a(S'QRegExpD'
p8391
I1
tp8392
a(S'QRegExpC'
p8393
I1
tp8394
a(S'interactive'
p8395
I1
tp8396
a(S'debugging'
p8397
I1
tp8398
a(S'removeShortcutEiP'
p8399
I1
tp8400
a(S'Builtin'
p8401
I1
tp8402
a(S'multivalued'
p8403
I1
tp8404
a(S'ZSt'
p8405
I1
tp8406
a(S'built'
p8407
I1
tp8408
a(S'Power'
p8409
I1
tp8410
a(S'depending'
p8411
I1
tp8412
a(S'toSetEv'
p8413
I1
tp8414
a(S'dotstyle'
p8415
I1
tp8416
a(S'isValidEv'
p8417
I1
tp8418
a(S'RPL'
p8419
I1
tp8420
a(S'folders'
p8421
I1
tp8422
a(S'chars'
p8423
I1
tp8424
a(S'kO'
p8425
I1
tp8426
a(S'directionEv'
p8427
I1
tp8428
a(S'kZ'
p8429
I1
tp8430
a(S'kX'
p8431
I1
tp8432
a(S'crlsec'
p8433
I1
tp8434
a(S'dsaparam'
p8435
I1
tp8436
a(S'AxisVelocityCalculator'
p8437
I1
tp8438
a(S'notBefore'
p8439
I1
tp8440
a(S'Shrouded'
p8441
I1
tp8442
a(S'crlexts'
p8443
I1
tp8444
a(S'rejectedlog'
p8445
I1
tp8446
a(S'twHcT'
p8447
I1
tp8448
a(S'showprogress'
p8449
I1
tp8450
a(S'showbaseR'
p8451
I1
tp8452
a(S'Generate'
p8453
I1
tp8454
a(S'merged'
p8455
I1
tp8456
a(S'insertEP'
p8457
I1
tp8458
a(S'wgetrc'
p8459
I1
tp8460
a(S'keyid'
p8461
I1
tp8462
a(S'QSqlDatabaseD'
p8463
I1
tp8464
a(S'QSqlDatabaseC'
p8465
I1
tp8466
a(S'fromMSecsSinceEpochEx'
p8467
I1
tp8468
a(S'resolve'
p8469
I1
tp8470
a(S'zP'
p8471
I1
tp8472
a(S'insertEi'
p8473
I1
tp8474
a(S'RDNs'
p8475
I1
tp8476
a(S'printout'
p8477
I1
tp8478
a(S'SHcG'
p8479
I1
tp8480
a(S'checksums'
p8481
I1
tp8482
a(S'JPAKE'
p8483
I1
tp8484
a(S'WaitingForTouch'
p8485
I1
tp8486
a(S'ZTISt'
p8487
I1
tp8488
a(S'GET'
p8489
I1
tp8490
a(S'superseded'
p8491
I1
tp8492
a(S'waitretry'
p8493
I1
tp8494
a(S'nextPendingConnectionEv'
p8495
I1
tp8496
a(S'pkcs'
p8497
I1
tp8498
a(S'seeded'
p8499
I1
tp8500
a(S'iAUATI'
p8501
I1
tp8502
a(S'responses'
p8503
I1
tp8504
a(S'proxyuser'
p8505
I1
tp8506
a(S'eventIsFullyOwnedERKNS'
p8507
I1
tp8508
a(S'KeyboardModifierEERK'
p8509
I1
tp8510
a(S'reverse'
p8511
I1
tp8512
a(S'QMapNodeBase'
p8513
I1
tp8514
a(S'setMaxDeviationEd'
p8515
I1
tp8516
a(S'foreign'
p8517
I1
tp8518
a(S'alot'
p8519
I1
tp8520
a(S'Yes'
p8521
I1
tp8522
a(S'responseH'
p8523
I1
tp8524
a(S'candidateDefaulted'
p8525
I1
tp8526
a(S'authz'
p8527
I1
tp8528
a(S'raise'
p8529
I1
tp8530
a(S'wtZVd'
p8531
I1
tp8532
a(S'Processing'
p8533
I1
tp8534
a(S'retr'
p8535
I1
tp8536
a(S'secret'
p8537
I1
tp8538
a(S'QRectF'
p8539
I1
tp8540
a(S'writeEPKcx'
p8541
I1
tp8542
a(S'disconnectOutputInterfaceEb'
p8543
I1
tp8544
a(S'gai'
p8545
I1
tp8546
a(S'activeChangedEv'
p8547
I1
tp8548
a(S'uCH'
p8549
I1
tp8550
a(S'vKH'
p8551
I1
tp8552
a(S'replaced'
p8553
I1
tp8554
a(S'tqA'
p8555
I1
tp8556
a(S'tqH'
p8557
I1
tp8558
a(S'KEYBOARD'
p8559
I1
tp8560
a(S'TERM'
p8561
I1
tp8562
a(S'coreutils'
p8563
I1
tp8564
a(S'QModelIndexS'
p8565
I1
tp8566
a(S'DirectionalDragAreaC'
p8567
I1
tp8568
a(S'keys'
p8569
I1
tp8570
a(S'gzwrite'
p8571
I1
tp8572
a(S'purpose'
p8573
I1
tp8574
a(S'mkpath'
p8575
I1
tp8576
a(S'onNewInstanceConnectedEv'
p8577
I1
tp8578
a(S'Considering'
p8579
I1
tp8580
a(S'QVarianti'
p8581
I1
tp8582
a(S'mapRectERK'
p8583
I1
tp8584
a(S'sourceRowsRemovedERK'
p8585
I1
tp8586
a(S'QGuiApplication'
p8587
I1
tp8588
a(S'errorPKc'
p8589
I1
tp8590
a(S'cut'
p8591
I1
tp8592
a(S'cur'
p8593
I1
tp8594
a(S'QVariantE'
p8595
I1
tp8596
a(S'QVariantD'
p8597
I1
tp8598
a(S'danger'
p8599
I1
tp8600
a(S'QVariantC'
p8601
I1
tp8602
a(S'checkIfDoubleClickedEm'
p8603
I1
tp8604
a(S'Icon'
p8605
I1
tp8606
a(S'bio'
p8607
I1
tp8608
a(S'QTextStreamlsEPKv'
p8609
I1
tp8610
a(S'AUATUSHc'
p8611
I1
tp8612
a(S'QTextStreamlsEPKc'
p8613
I1
tp8614
a(S'bit'
p8615
I1
tp8616
a(S'bis'
p8617
I1
tp8618
a(S'semi'
p8619
I1
tp8620
a(S'follows'
p8621
I1
tp8622
a(S'indication'
p8623
I1
tp8624
a(S'Warcinfo'
p8625
I1
tp8626
a(S'QFileInfo'
p8627
I1
tp8628
a(S'ocspid'
p8629
I1
tp8630
a(S'HistoryModelC'
p8631
I1
tp8632
a(S'HistoryModelD'
p8633
I1
tp8634
a(S'back'
p8635
I1
tp8636
a(S'mirror'
p8637
I1
tp8638
a(S'sizeof'
p8639
I1
tp8640
a(S'Temp'
p8641
I1
tp8642
a(S'Qv'
p8643
I1
tp8644
a(S'pem'
p8645
I1
tp8646
a(S'connecting'
p8647
I1
tp8648
a(S'Nothing'
p8649
I1
tp8650
a(S'PtcA'
p8651
I1
tp8652
a(S'continuing'
p8653
I1
tp8654
a(S'filenameToMimeType'
p8655
I1
tp8656
a(S'Policies'
p8657
I1
tp8658
a(S'onDataChangedEP'
p8659
I1
tp8660
a(S'BookmarksFolderListModelELb'
p8661
I1
tp8662
a(S'EiPKvj'
p8663
I1
tp8664
a(S'Shared'
p8665
I1
tp8666
a(S'bibnum'
p8667
I1
tp8668
a(S'QContainerImplHelper'
p8669
I1
tp8670
a(S'QChildEvent'
p8671
I1
tp8672
a(S'translate'
p8673
I1
tp8674
a(S'DestructEPv'
p8675
I1
tp8676
a(S'ascend'
p8677
I1
tp8678
a(S'adjusting'
p8679
I1
tp8680
a(S'windowChangedEP'
p8681
I1
tp8682
a(S'rejection'
p8683
I1
tp8684
a(S'Doing'
p8685
I1
tp8686
a(S'CacheDeleterC'
p8687
I1
tp8688
a(S'CacheDeleterD'
p8689
I1
tp8690
a(S'BOOL'
p8691
I1
tp8692
a(S'freeNodeAndRebalanceEP'
p8693
I1
tp8694
a(S'touchId'
p8695
I1
tp8696
a(S'QZ'
p8697
I1
tp8698
a(S'QThreadPool'
p8699
I1
tp8700
a(S'nbio'
p8701
I1
tp8702
a(S'dragging'
p8703
I1
tp8704
a(S'cPt'
p8705
I1
tp8706
a(S'QQuickItem'
p8707
I1
tp8708
a(S'ndays'
p8709
I1
tp8710
a(S'QSqlQuery'
p8711
I1
tp8712
a(S'Mar'
p8713
I1
tp8714
a(S'crypt'
p8715
I1
tp8716
a(S'dragEnterEventEP'
p8717
I1
tp8718
a(S'Mac'
p8719
I1
tp8720
a(S'MimeDatabaseC'
p8721
I1
tp8722
a(S'mapSelectionFromSourceERK'
p8723
I1
tp8724
a(S'Proxy'
p8725
I1
tp8726
a(S'tempdir'
p8727
I1
tp8728
a(S'TXT'
p8729
I1
tp8730
a(S'prverify'
p8731
I1
tp8732
a(S'acceptedMouseButtonsEv'
p8733
I1
tp8734
a(S'QSGNodePNS'
p8735
I1
tp8736
a(S'iteratorE'
p8737
I1
tp8738
a(S'Accept'
p8739
I1
tp8740
a(S'badsig'
p8741
I1
tp8742
a(S'removeRowsEiiRK'
p8743
I1
tp8744
a(S'getaddrinfo'
p8745
I1
tp8746
a(S'PLAINFILE'
p8747
I1
tp8748
a(S'strhash'
p8749
I1
tp8750
a(S'CandidateInactivityTimerC'
p8751
I1
tp8752
a(S'CandidateInactivityTimerE'
p8753
I1
tp8754
a(S'CandidateInactivityTimerD'
p8755
I1
tp8756
a(S'Cipher'
p8757
I1
tp8758
a(S'passin'
p8759
I1
tp8760
a(S'False'
p8761
I1
tp8762
a(S'Select'
p8763
I1
tp8764
a(S'toMSecsSinceEpochEv'
p8765
I1
tp8766
a(S'maxSilenceTime'
p8767
I1
tp8768
a(S'numbits'
p8769
I1
tp8770
a(S'isHorizontalENS'
p8771
I1
tp8772
a(S'append'
p8773
I1
tp8774
a(S'VERIFY'
p8775
I1
tp8776
a(S'QImageD'
p8777
I1
tp8778
a(S'dedup'
p8779
I1
tp8780
a(S'dynamicMetaObjectEv'
p8781
I1
tp8782
a(S'EEET'
p8783
I1
tp8784
a(S'exchange'
p8785
I1
tp8786
a(S'sprung'
p8787
I1
tp8788
a(S'EEED'
p8789
I1
tp8790
a(S'objects'
p8791
I1
tp8792
a(S'mbsinit'
p8793
I1
tp8794
a(S'fetchTargetTouchPointEP'
p8795
I1
tp8796
a(S'implicit'
p8797
I1
tp8798
a(S'signame'
p8799
I1
tp8800
a(S'httpsonly'
p8801
I1
tp8802
a(S'eventFilterEPS'
p8803
I1
tp8804
a(S'QSequentialIterableConvertFunctorIS'
p8805
I1
tp8806
a(S'tNE'
p8807
I1
tp8808
a(S'Null'
p8809
I1
tp8810
a(S'honor'
p8811
I1
tp8812
a(S'setAttributeENS'
p8813
I1
tp8814
a(S'metaObjectEv'
p8815
I1
tp8816
a(S'HOME'
p8817
I1
tp8818
a(S'FJ'
p8819
I1
tp8820
a(S'DirectionalDragAreaELb'
p8821
I1
tp8822
a(S'readable'
p8823
I1
tp8824
a(S'sourceRowsInserted'
p8825
I1
tp8826
a(S'Fd'
p8827
I1
tp8828
a(S'QSlotObjectBaseEP'
p8829
I1
tp8830
a(S'KCE'
p8831
I1
tp8832
a(S'Connection'
p8833
I1
tp8834
a(S'FileOperationsD'
p8835
I1
tp8836
a(S'FileOperationsC'
p8837
I1
tp8838
a(S'fsetlocking'
p8839
I1
tp8840
a(S'account'
p8841
I1
tp8842
a(S'chooseconfig'
p8843
I1
tp8844
a(S'closing'
p8845
I1
tp8846
a(S'unpacking'
p8847
I1
tp8848
a(S'YH'
p8849
I1
tp8850
a(S'InputTypeEE'
p8851
I1
tp8852
a(S'YA'
p8853
I1
tp8854
a(S'QByteArrayPFvPvEPFS'
p8855
I1
tp8856
a(S'QException'
p8857
I1
tp8858
a(S'dispatchAsMouseEP'
p8859
I1
tp8860
a(S'dm'
p8861
I1
tp8862
a(S'YV'
p8863
I1
tp8864
a(S'setErrorERK'
p8865
I1
tp8866
a(S'Scheme'
p8867
I1
tp8868
a(S'Ya'
p8869
I1
tp8870
a(S'di'
p8871
I1
tp8872
a(S'gcm'
p8873
I1
tp8874
a(S'Yg'
p8875
I1
tp8876
a(S'Yt'
p8877
I1
tp8878
a(S'noscroll'
p8879
I1
tp8880
a(S'tKH'
p8881
I1
tp8882
a(S'HTTPS'
p8883
I1
tp8884
a(S'addUdevDeviceEP'
p8885
I1
tp8886
a(S'serialNumber'
p8887
I1
tp8888
a(S'lines'
p8889
I1
tp8890
a(S'QDeclarativeInputDeviceModelEE'
p8891
I1
tp8892
a(S'QDeclarativeInputDeviceModelED'
p8893
I1
tp8894
a(S'removeEntryByUrlERK'
p8895
I1
tp8896
a(S'QByteArrayC'
p8897
I1
tp8898
a(S'lE'
p8899
I1
tp8900
a(S'QByteArrayE'
p8901
I1
tp8902
a(S'QByteArrayD'
p8903
I1
tp8904
a(S'lM'
p8905
I1
tp8906
a(S'etaonrishdlcupfm'
p8907
I1
tp8908
a(S'DirectionLb'
p8909
I1
tp8910
a(S'QByteArrayP'
p8911
I1
tp8912
a(S'lP'
p8913
I1
tp8914
a(S'lX'
p8915
I1
tp8916
a(S'lf'
p8917
I1
tp8918
a(S'lc'
p8919
I1
tp8920
a(S'setlocale'
p8921
I1
tp8922
a(S'setShouldCacheEb'
p8923
I1
tp8924
a(S'lh'
p8925
I1
tp8926
a(S'tsa'
p8927
I1
tp8928
a(S'lt'
p8929
I1
tp8930
a(S'tst'
p8931
I1
tp8932
a(S'tsr'
p8933
I1
tp8934
a(S'tsq'
p8935
I1
tp8936
a(S'tKHc'
p8937
I1
tp8938
a(S'dL'
p8939
I1
tp8940
a(S'QItemSelection'
p8941
I1
tp8942
a(S'QVectorIiE'
p8943
I1
tp8944
a(S'day'
p8945
I1
tp8946
a(S'verifying'
p8947
I1
tp8948
a(S'DateFormatE'
p8949
I1
tp8950
a(S'FakeTimer'
p8951
I1
tp8952
a(S'xkey'
p8953
I1
tp8954
a(S'identifier'
p8955
I1
tp8956
a(S'OID'
p8957
I1
tp8958
a(S'From'
p8959
I1
tp8960
a(S'Print'
p8961
I1
tp8962
a(S'setStatusENS'
p8963
I1
tp8964
a(S'ValueTypeIsMetaTypeI'
p8965
I1
tp8966
a(S'retrievals'
p8967
I1
tp8968
a(S'req'
p8969
I1
tp8970
a(S'rev'
p8971
I1
tp8972
a(S'ret'
p8973
I1
tp8974
a(S'rej'
p8975
I1
tp8976
a(S'BIGNUM'
p8977
I1
tp8978
a(S'retrieved'
p8979
I1
tp8980
a(S'QQuickItemD'
p8981
I1
tp8982
a(S'QObjectData'
p8983
I1
tp8984
a(S'reclevel'
p8985
I1
tp8986
a(S'QQuickItemC'
p8987
I1
tp8988
a(S'QPointerIN'
p8989
I1
tp8990
a(S'nooct'
p8991
I1
tp8992
a(S'CSP'
p8993
I1
tp8994
a(S'CSS'
p8995
I1
tp8996
a(S'receipts'
p8997
I1
tp8998
a(S'indent'
p8999
I1
tp9000
a(S'allAddressesEv'
p9001
I1
tp9002
a(S'passiveftp'
p9003
I1
tp9004
a(S'userTypeEv'
p9005
I1
tp9006
a(S'ghash'
p9007
I1
tp9008
a(S'nocrypt'
p9009
I1
tp9010
a(S'rowCountERK'
p9011
I1
tp9012
a(S'restrictfilenames'
p9013
I1
tp9014
a(S'acquire'
p9015
I1
tp9016
a(S'requestActivateEv'
p9017
I1
tp9018
a(S'dcngettext'
p9019
I1
tp9020
a(S'QJSValueaSERKS'
p9021
I1
tp9022
a(S'WHIRLPOOL'
p9023
I1
tp9024
a(S'dgram'
p9025
I1
tp9026
a(S'SplitBehaviorEN'
p9027
I1
tp9028
a(S'moregroups'
p9029
I1
tp9030
a(S'plaintext'
p9031
I1
tp9032
a(S'HeartbeatRequest'
p9033
I1
tp9034
a(S'appendEc'
p9035
I1
tp9036
a(S'deleteNode'
p9037
I1
tp9038
a(S'appendEv'
p9039
I1
tp9040
a(S'rowsAboutToBeInserted'
p9041
I1
tp9042
a(S'Requested'
p9043
I1
tp9044
a(S'mil'
p9045
I1
tp9046
a(S'min'
p9047
I1
tp9048
a(S'AUATLc'
p9049
I1
tp9050
a(S'unless'
p9051
I1
tp9052
a(S'signkey'
p9053
I1
tp9054
a(S'WARC'
p9055
I1
tp9056
a(S'endMoveRowsEv'
p9057
I1
tp9058
a(S'QHostAddressD'
p9059
I1
tp9060
a(S'QHostAddressC'
p9061
I1
tp9062
a(S'FaviconFetcherELb'
p9063
I1
tp9064
a(S'touchSceneXChangedEd'
p9065
I1
tp9066
a(S'dlimit'
p9067
I1
tp9068
a(S'normally'
p9069
I1
tp9070
a(S'AxisVelocityCalculatorC'
p9071
I1
tp9072
a(S'AxisVelocityCalculatorD'
p9073
I1
tp9074
a(S'secureprotocol'
p9075
I1
tp9076
a(S'QQmlExtensionPlugin'
p9077
I1
tp9078
a(S'SESSION'
p9079
I1
tp9080
a(S'endRemoveRowsEv'
p9081
I1
tp9082
a(S'idEvE'
p9083
I1
tp9084
a(S'HelloRequest'
p9085
I1
tp9086
a(S'toBase'
p9087
I1
tp9088
a(S'ROBOTS'
p9089
I1
tp9090
a(S'setActiveEb'
p9091
I1
tp9092
a(S'timing'
p9093
I1
tp9094
a(S'AbstractConverterFunctionEPKvPv'
p9095
I1
tp9096
a(S'rootContextEv'
p9097
I1
tp9098
a(S'cached'
p9099
I1
tp9100
a(S'fixed'
p9101
I1
tp9102
a(S'stateEv'
p9103
I1
tp9104
a(S'RATE'
p9105
I1
tp9106
a(S'doClearERK'
p9107
I1
tp9108
a(S'copyEP'
p9109
I1
tp9110
a(S'pattern'
p9111
I1
tp9112
a(S'setPropertyEPKcRK'
p9113
I1
tp9114
a(S'HistoryLastVisitDateListModelC'
p9115
I1
tp9116
a(S'HistoryLastVisitDateListModelD'
p9117
I1
tp9118
a(S'progress'
p9119
I1
tp9120
a(S'UNIX'
p9121
I1
tp9122
a(S'setVelocityERK'
p9123
I1
tp9124
a(S'reportStartedEv'
p9125
I1
tp9126
a(S'optional'
p9127
I1
tp9128
a(S'revoked'
p9129
I1
tp9130
a(S'plugin'
p9131
I1
tp9132
a(S'beginInsertRowsERK'
p9133
I1
tp9134
a(S'existsEv'
p9135
I1
tp9136
a(S'CLIENT'
p9137
I1
tp9138
a(S'SPKAC'
p9139
I1
tp9140
a(S'attributes'
p9141
I1
tp9142
a(S'strftime'
p9143
I1
tp9144
a(S'QEventP'
p9145
I1
tp9146
a(S'QEventD'
p9147
I1
tp9148
a(S'QEventC'
p9149
I1
tp9150
a(S'removedDeviceERK'
p9151
I1
tp9152
a(S'Keybag'
p9153
I1
tp9154
a(S'SAFEBAG'
p9155
I1
tp9156
a(S'removeTouchPointEi'
p9157
I1
tp9158
a(S'json'
p9159
I1
tp9160
a(S'ah'
p9161
I1
tp9162
a(S'searchPathsEv'
p9163
I1
tp9164
a(S'registerEventTypeEi'
p9165
I1
tp9166
a(S'splitE'
p9167
I1
tp9168
a(S'validChanged'
p9169
I1
tp9170
a(S'DIRECTORY'
p9171
I1
tp9172
a(S'targetItemChangedEP'
p9173
I1
tp9174
a(S'dataChanged'
p9175
I1
tp9176
a(S'multi'
p9177
I1
tp9178
a(S'QElapsedTimer'
p9179
I1
tp9180
a(S'helper'
p9181
I1
tp9182
a(S'inspector'
p9183
I1
tp9184
a(S'emitSignalIfTappedEv'
p9185
I1
tp9186
a(S'langinfo'
p9187
I1
tp9188
a(S'targetItem'
p9189
I1
tp9190
a(S'CXXABI'
p9191
I1
tp9192
a(S'optarg'
p9193
I1
tp9194
a(S'unparse'
p9195
I1
tp9196
a(S'sprime'
p9197
I1
tp9198
a(S'checkend'
p9199
I1
tp9200
a(S'ShortcutContextEPFbS'
p9201
I1
tp9202
a(S'fromLocalFileERK'
p9203
I1
tp9204
a(S'cessationOfOperation'
p9205
I1
tp9206
a(S'position'
p9207
I1
tp9208
a(S'Total'
p9209
I1
tp9210
a(S'deltas'
p9211
I1
tp9212
a(S'OrientationEi'
p9213
I1
tp9214
a(S'ATUHc'
p9215
I1
tp9216
a(S'duWA'
p9217
I1
tp9218
a(S'stored'
p9219
I1
tp9220
a(S'EMAIL'
p9221
I1
tp9222
a(S'initializeERK'
p9223
I1
tp9224
a(S'cleanup'
p9225
I1
tp9226
a(S'adj'
p9227
I1
tp9228
a(S'removeEntryFromHiddenDatabaseByUrlERK'
p9229
I1
tp9230
a(S'helperEPKci'
p9231
I1
tp9232
a(S'trackedPosition'
p9233
I1
tp9234
a(S'CAkey'
p9235
I1
tp9236
a(S'TimeSourceEE'
p9237
I1
tp9238
a(S'removeEntriesByDateERK'
p9239
I1
tp9240
a(S'resolves'
p9241
I1
tp9242
a(S'TouchPointD'
p9243
I1
tp9244
a(S'TouchPointE'
p9245
I1
tp9246
a(S'like'
p9247
I1
tp9248
a(S'TouchPointC'
p9249
I1
tp9250
a(S'pkeyopt'
p9251
I1
tp9252
a(S'alive'
p9253
I1
tp9254
a(S'mousePressEventEP'
p9255
I1
tp9256
a(S'proper'
p9257
I1
tp9258
a(S'freeDataEPS'
p9259
I1
tp9260
a(S'QRunnable'
p9261
I1
tp9262
a(S'ess'
p9263
I1
tp9264
a(S'esc'
p9265
I1
tp9266
a(S'assuming'
p9267
I1
tp9268
a(S'chains'
p9269
I1
tp9270
a(S'transformTouchPointsER'
p9271
I1
tp9272
a(S'QDataStreamRK'
p9273
I1
tp9274
a(S'indexOf'
p9275
I1
tp9276
a(S'revertEv'
p9277
I1
tp9278
a(S'expire'
p9279
I1
tp9280
a(S'eroxL'
p9281
I1
tp9282
a(S'BXEA'
p9283
I1
tp9284
a(S'PressedOutsideNotifier'
p9285
I1
tp9286
a(S'RESPONSE'
p9287
I1
tp9288
a(S'about'
p9289
I1
tp9290
a(S'toLocalFileEv'
p9291
I1
tp9292
a(S'onCleared'
p9293
I1
tp9294
a(S'netrc'
p9295
I1
tp9296
a(S'saveEP'
p9297
I1
tp9298
a(S'urlpos'
p9299
I1
tp9300
a(S'EncryptInit'
p9301
I1
tp9302
a(S'Camellia'
p9303
I1
tp9304
a(S'LastVisitDateString'
p9305
I1
tp9306
a(S'guard'
p9307
I1
tp9308
a(S'QDebug'
p9309
I1
tp9310
a(S'clocale'
p9311
I1
tp9312
a(S'localUrl'
p9313
I1
tp9314
a(S'removeServerERK'
p9315
I1
tp9316
a(S'touchXChanged'
p9317
I1
tp9318
a(S'partially'
p9319
I1
tp9320
a(S'Wall'
p9321
I1
tp9322
a(S'dangerous'
p9323
I1
tp9324
a(S'contentonerror'
p9325
I1
tp9326
a(S'minutes'
p9327
I1
tp9328
a(S'QListIiEEiRK'
p9329
I1
tp9330
a(S'bindaddress'
p9331
I1
tp9332
a(S'exceeded'
p9333
I1
tp9334
a(S'disallow'
p9335
I1
tp9336
a(S'pie'
p9337
I1
tp9338
a(S'webbrowserWindowProxy'
p9339
I1
tp9340
a(S'moveEii'
p9341
I1
tp9342
a(S'insertNewHistoryEntryEP'
p9343
I1
tp9344
a(S'termsEv'
p9345
I1
tp9346
a(S'revocation'
p9347
I1
tp9348
a(S'virtual'
p9349
I1
tp9350
a(S'newConnection'
p9351
I1
tp9352
a(S'deleterEPNS'
p9353
I1
tp9354
a(S'TouchInfoEE'
p9355
I1
tp9356
a(S'showMaximizedEv'
p9357
I1
tp9358
a(S'bundle'
p9359
I1
tp9360
a(S'dispatchPointsToItemEPK'
p9361
I1
tp9362
a(S'readlink'
p9363
I1
tp9364
a(S'prexit'
p9365
I1
tp9366
a(S'remoteencoding'
p9367
I1
tp9368
a(S'DESCRIPTION'
p9369
I1
tp9370
a(S'Private'
p9371
I1
tp9372
a(S'QQuickItemENS'
p9373
I1
tp9374
a(S'ubH'
p9375
I1
tp9376
a(S'pHcH'
p9377
I1
tp9378
a(S'FaviconFetcherEiPKciiS'
p9379
I1
tp9380
a(S'focusWindowEv'
p9381
I1
tp9382
a(S'undef'
p9383
I1
tp9384
a(S'QXmlStreamReaderC'
p9385
I1
tp9386
a(S'ecdh'
p9387
I1
tp9388
a(S'QXmlStreamReaderD'
p9389
I1
tp9390
a(S'localtime'
p9391
I1
tp9392
a(S'tRHcK'
p9393
I1
tp9394
a(S'GS'
p9395
I1
tp9396
a(S'risk'
p9397
I1
tp9398
a(S'platformNameEv'
p9399
I1
tp9400
a(S'QInputDevice'
p9401
I1
tp9402
a(S'setLastScreenPosERK'
p9403
I1
tp9404
a(S'GD'
p9405
I1
tp9406
a(S'every'
p9407
I1
tp9408
a(S'GB'
p9409
I1
tp9410
a(S'createIntoI'
p9411
I1
tp9412
a(S'IsBuiltInEE'
p9413
I1
tp9414
a(S'AXAY'
p9415
I1
tp9416
a(S'tM'
p9417
I1
tp9418
a(S'Gb'
p9419
I1
tp9420
a(S'QQmlListL'
p9421
I1
tp9422
a(S'QQmlListH'
p9423
I1
tp9424
a(S'ZNSt'
p9425
I1
tp9426
a(S'ActiveTouchInfoEE'
p9427
I1
tp9428
a(S'runningConfined'
p9429
I1
tp9430
a(S'sourceRowsAboutToBeInserted'
p9431
I1
tp9432
a(S'QStringENS'
p9433
I1
tp9434
a(S'hide'
p9435
I1
tp9436
a(S'specification'
p9437
I1
tp9438
a(S'QMetaEnum'
p9439
I1
tp9440
a(S'supplied'
p9441
I1
tp9442
a(S'launch'
p9443
I1
tp9444
a(S'QDeclarativeInputDeviceModelD'
p9445
I1
tp9446
a(S'QDeclarativeInputDeviceModelC'
p9447
I1
tp9448
a(S'QQmlEnginePKc'
p9449
I1
tp9450
a(S'ZL'
p9451
I1
tp9452
a(S'ZM'
p9453
I1
tp9454
a(S'ZN'
p9455
I1
tp9456
a(S'ZH'
p9457
I1
tp9458
a(S'addTouchPointEi'
p9459
I1
tp9460
a(S'AWAVAUATM'
p9461
I1
tp9462
a(S'ZY'
p9463
I1
tp9464
a(S'ZZ'
p9465
I1
tp9466
a(S'digits'
p9467
I1
tp9468
a(S'property'
p9469
I1
tp9470
a(S'sourceRowsRemoved'
p9471
I1
tp9472
a(S'PUBLIC'
p9473
I1
tp9474
a(S'NodeEE'
p9475
I1
tp9476
a(S'DigestFinal'
p9477
I1
tp9478
a(S'BFBOBXBaBjBsB'
p9479
I1
tp9480
a(S'tt'
p9481
I1
tp9482
a(S'prints'
p9483
I1
tp9484
a(S'Giving'
p9485
I1
tp9486
a(S'would'
p9487
I1
tp9488
a(S'reallocDataEjb'
p9489
I1
tp9490
a(S'setShortcutEnabledEbiP'
p9491
I1
tp9492
a(S'uZH'
p9493
I1
tp9494
a(S'mT'
p9495
I1
tp9496
a(S'mP'
p9497
I1
tp9498
a(S'moveToBeginImplI'
p9499
I1
tp9500
a(S'errorStringEv'
p9501
I1
tp9502
a(S'supplemental'
p9503
I1
tp9504
a(S'md'
p9505
I1
tp9506
a(S'mb'
p9507
I1
tp9508
a(S'mm'
p9509
I1
tp9510
a(S'createOrAlterDatabaseSchemaEv'
p9511
I1
tp9512
a(S'InputType'
p9513
I1
tp9514
a(S'mu'
p9515
I1
tp9516
a(S'ftpsresumessl'
p9517
I1
tp9518
a(S'mp'
p9519
I1
tp9520
a(S'ms'
p9521
I1
tp9522
a(S'mr'
p9523
I1
tp9524
a(S'tokenTypeEv'
p9525
I1
tp9526
a(S'tJH'
p9527
I1
tp9528
a(S'countEv'
p9529
I1
tp9530
a(S'execEv'
p9531
I1
tp9532
a(S'typeFlagsEi'
p9533
I1
tp9534
a(S'keep'
p9535
I1
tp9536
a(S'currentTabChangedEv'
p9537
I1
tp9538
a(S'enc'
p9539
I1
tp9540
a(S'IIS'
p9541
I1
tp9542
a(S'HostName'
p9543
I1
tp9544
a(S'writableLocationENS'
p9545
I1
tp9546
a(S'Verifying'
p9547
I1
tp9548
a(S'touchYEv'
p9549
I1
tp9550
a(S'urlChangedEv'
p9551
I1
tp9552
a(S'runFunctorEv'
p9553
I1
tp9554
a(S'previousNodeEv'
p9555
I1
tp9556
a(S'insecure'
p9557
I1
tp9558
a(S'parallel'
p9559
I1
tp9560
a(S'macopt'
p9561
I1
tp9562
a(S'eraseEPPv'
p9563
I1
tp9564
a(S'SingleInstanceManagerD'
p9565
I1
tp9566
a(S'guKH'
p9567
I1
tp9568
a(S'BookmarksFolderModelC'
p9569
I1
tp9570
a(S'qdeclarativeelement'
p9571
I1
tp9572
a(S'enter'
p9573
I1
tp9574
a(S'QTouchEvent'
p9575
I1
tp9576
a(S'lockedChangedEv'
p9577
I1
tp9578
a(S'touchStartTimeEi'
p9579
I1
tp9580
a(S'expects'
p9581
I1
tp9582
a(S'QQuickShortcut'
p9583
I1
tp9584
a(S'openEv'
p9585
I1
tp9586
a(S'wbio'
p9587
I1
tp9588
a(S'ncbc'
p9589
I1
tp9590
a(S'classNameEv'
p9591
I1
tp9592
a(S'CacheDeleterEiRK'
p9593
I1
tp9594
a(S'Io'
p9595
I1
tp9596
a(S'callERK'
p9597
I1
tp9598
a(S'newSession'
p9599
I1
tp9600
a(S'hasPendingConnectionsEv'
p9601
I1
tp9602
a(S'Anon'
p9603
I1
tp9604
a(S'FaviconFetcherEiRK'
p9605
I1
tp9606
a(S'setSourceModelEP'
p9607
I1
tp9608
a(S'each'
p9609
I1
tp9610
a(S'Transport'
p9611
I1
tp9612
a(S'Adding'
p9613
I1
tp9614
a(S'signing'
p9615
I1
tp9616
a(S'QCharNS'
p9617
I1
tp9618
a(S'AQAVL'
p9619
I1
tp9620
a(S'combining'
p9621
I1
tp9622
a(S'reqin'
p9623
I1
tp9624
a(S'httpproxy'
p9625
I1
tp9626
a(S'atEndEv'
p9627
I1
tp9628
a(S'PressedOutsideNotifierFvvENS'
p9629
I1
tp9630
a(S'touchSceneYEv'
p9631
I1
tp9632
a(S'gov'
p9633
I1
tp9634
a(S'GCC'
p9635
I1
tp9636
a(S'strcspn'
p9637
I1
tp9638
a(S'cmpERKS'
p9639
I1
tp9640
a(S'CandidateInactivityTimer'
p9641
I1
tp9642
a(S'Chain'
p9643
I1
tp9644
a(S'PROT'
p9645
I1
tp9646
a(S'days'
p9647
I1
tp9648
a(S'filter'
p9649
I1
tp9650
a(S'TIME'
p9651
I1
tp9652
a(S'rand'
p9653
I1
tp9654
a(S'QVectorIP'
p9655
I1
tp9656
a(S'restrict'
p9657
I1
tp9658
a(S'toH'
p9659
I1
tp9660
a(S'QVectorIN'
p9661
I1
tp9662
a(S'candidateDefaultedEiP'
p9663
I1
tp9664
a(S'resumeDownloadERK'
p9665
I1
tp9666
a(S'QInputDeviceEiRK'
p9667
I1
tp9668
a(S'Receipts'
p9669
I1
tp9670
a(S'touchOwnershipEventEP'
p9671
I1
tp9672
a(S'WAIT'
p9673
I1
tp9674
a(S'HistoryModelEiRK'
p9675
I1
tp9676
a(S'QHashDummyValueED'
p9677
I1
tp9678
a(S'DIFFERENTIAL'
p9679
I1
tp9680
a(S'reponse'
p9681
I1
tp9682
a(S'raw'
p9683
I1
tp9684
a(S'QUrl'
p9685
I1
tp9686
a(S'CallEiPPv'
p9687
I1
tp9688
a(S'AttributeERK'
p9689
I1
tp9690
a(S'limitrate'
p9691
I1
tp9692
a(S'kXt'
p9693
I1
tp9694
a(S'addtrust'
p9695
I1
tp9696
a(S'glob'
p9697
I1
tp9698
a(S'bodydata'
p9699
I1
tp9700
a(S'CWD'
p9701
I1
tp9702
a(S'netlink'
p9703
I1
tp9704
a(S'mimeTypeForNameERK'
p9705
I1
tp9706
a(S'FORTIFY'
p9707
I1
tp9708
a(S'peerkey'
p9709
I1
tp9710
a(S'onDomainDataChangedEv'
p9711
I1
tp9712
a(S'setvbuf'
p9713
I1
tp9714
a(S'statusChanged'
p9715
I1
tp9716
a(S'qRegisterNormalizedMetaTypeI'
p9717
I1
tp9718
a(S'OAEP'
p9719
I1
tp9720
a(S'getres'
p9721
I1
tp9722
a(S'setRecognitionTimerEPN'
p9723
I1
tp9724
a(S'privatekeytype'
p9725
I1
tp9726
a(S'QPersistentModelIndexED'
p9727
I1
tp9728
a(S'shutting'
p9729
I1
tp9730
a(S'report'
p9731
I1
tp9732
a(S'reloadEv'
p9733
I1
tp9734
a(S'QHashI'
p9735
I1
tp9736
a(S'followftp'
p9737
I1
tp9738
a(S'ListIIS'
p9739
I1
tp9740
a(S'XtbH'
p9741
I1
tp9742
a(S'MetaTypeDefinedHelperIS'
p9743
I1
tp9744
a(S'insertNewFolderInDatabaseERK'
p9745
I1
tp9746
a(S'corrupt'
p9747
I1
tp9748
a(S'cofactor'
p9749
I1
tp9750
a(S'QFlagsIS'
p9751
I1
tp9752
a(S'SECONDS'
p9753
I1
tp9754
a(S'QFlagsIN'
p9755
I1
tp9756
a(S'bookmarked'
p9757
I1
tp9758
a(S'weak'
p9759
I1
tp9760
a(S'UrlFormattingOptionENS'
p9761
I1
tp9762
a(S'onNewInstanceLaunchedERK'
p9763
I1
tp9764
a(S'nseq'
p9765
I1
tp9766
a(S'Malloc'
p9767
I1
tp9768
a(S'urlTemplateEv'
p9769
I1
tp9770
a(S'descriptionChanged'
p9771
I1
tp9772
a(S'OpenSSLDie'
p9773
I1
tp9774
a(S'QIODevicePKci'
p9775
I1
tp9776
a(S'tappedEv'
p9777
I1
tp9778
a(S'QLockFile'
p9779
I1
tp9780
a(S'inspectorHostEv'
p9781
I1
tp9782
a(S'DefinedTypeE'
p9783
I1
tp9784
a(S'genstr'
p9785
I1
tp9786
a(S'currentIndexChanged'
p9787
I1
tp9788
a(S'tabs'
p9789
I1
tp9790
a(S'mult'
p9791
I1
tp9792
a(S'expected'
p9793
I1
tp9794
a(S'setContextPropertyERK'
p9795
I1
tp9796
a(S'Vx'
p9797
I1
tp9798
a(S'wfL'
p9799
I1
tp9800
a(S'absentEP'
p9801
I1
tp9802
a(S'shouldCacheChangedEv'
p9803
I1
tp9804
a(S'nopad'
p9805
I1
tp9806
a(S'catch'
p9807
I1
tp9808
a(S'Receipt'
p9809
I1
tp9810
a(S'IteratorOwnerCommonIN'
p9811
I1
tp9812
a(S'QFileC'
p9813
I1
tp9814
a(S'lastPosEv'
p9815
I1
tp9816
a(S'QListIiELb'
p9817
I1
tp9818
a(S'chunked'
p9819
I1
tp9820
a(S'addERK'
p9821
I1
tp9822
a(S'iconNameEv'
p9823
I1
tp9824
a(S'MIME'
p9825
I1
tp9826
a(S'genkey'
p9827
I1
tp9828
a(S'INSERT'
p9829
I1
tp9830
a(S'recursion'
p9831
I1
tp9832
a(S'camellia'
p9833
I1
tp9834
a(S'unrecognized'
p9835
I1
tp9836
a(S'hasRegisteredConverterFunctionEii'
p9837
I1
tp9838
a(S'MetaData'
p9839
I1
tp9840
a(S'vvv'
p9841
I1
tp9842
a(S'characters'
p9843
I1
tp9844
a(S'maxSilenceTimeChanged'
p9845
I1
tp9846
a(S'clearDomainsEv'
p9847
I1
tp9848
a(S'helperEi'
p9849
I1
tp9850
a(S'helperEv'
p9851
I1
tp9852
a(S'onDisconnected'
p9853
I1
tp9854
a(S'setupEventFilteringEv'
p9855
I1
tp9856
a(S'tDH'
p9857
I1
tp9858
a(S'gendh'
p9859
I1
tp9860
a(S'sequenceEv'
p9861
I1
tp9862
a(S'ECDSA'
p9863
I1
tp9864
a(S'sequenceChanged'
p9865
I1
tp9866
a(S'AVATSH'
p9867
I1
tp9868
a(S'keyset'
p9869
I1
tp9870
a(S'excludedirectories'
p9871
I1
tp9872
a(S'descending'
p9873
I1
tp9874
a(S'xemacs'
p9875
I1
tp9876
a(S'specific'
p9877
I1
tp9878
a(S'STLS'
p9879
I1
tp9880
a(S'HZ'
p9881
I1
tp9882
a(S'successfully'
p9883
I1
tp9884
a(S'QSortFilterProxyModelC'
p9885
I1
tp9886
a(S'HI'
p9887
I1
tp9888
a(S'HM'
p9889
I1
tp9890
a(S'HB'
p9891
I1
tp9892
a(S'advertise'
p9893
I1
tp9894
a(S'onNewInstanceLaunched'
p9895
I1
tp9896
a(S'Hx'
p9897
I1
tp9898
a(S'xEc'
p9899
I1
tp9900
a(S'Hs'
p9901
I1
tp9902
a(S'Ht'
p9903
I1
tp9904
a(S'cnf'
p9905
I1
tp9906
a(S'Hi'
p9907
I1
tp9908
a(S'CONNECT'
p9909
I1
tp9910
a(S'Accepted'
p9911
I1
tp9912
a(S'directories'
p9913
I1
tp9914
a(S'deleted'
p9915
I1
tp9916
a(S'PBE'
p9917
I1
tp9918
a(S'TouchPointStateEERK'
p9919
I1
tp9920
a(S'permitted'
p9921
I1
tp9922
a(S'ensure'
p9923
I1
tp9924
a(S'algo'
p9925
I1
tp9926
a(S'runtime'
p9927
I1
tp9928
a(S'deletedERK'
p9929
I1
tp9930
a(S'wildcards'
p9931
I1
tp9932
a(S'two'
p9933
I1
tp9934
a(S'QDebugStateSaverC'
p9935
I1
tp9936
a(S'switchesEv'
p9937
I1
tp9938
a(S'QDebugStateSaverD'
p9939
I1
tp9940
a(S'HEARTBEATING'
p9941
I1
tp9942
a(S'IETF'
p9943
I1
tp9944
a(S'ohdH'
p9945
I1
tp9946
a(S'serverinfo'
p9947
I1
tp9948
a(S'head'
p9949
I1
tp9950
a(S'GMH'
p9951
I1
tp9952
a(S'QListI'
p9953
I1
tp9954
a(S'attempted'
p9955
I1
tp9956
a(S'ADD'
p9957
I1
tp9958
a(S'completeChangedERK'
p9959
I1
tp9960
a(S'GMT'
p9961
I1
tp9962
a(S'destructorEP'
p9963
I1
tp9964
a(S'attr'
p9965
I1
tp9966
a(S'nofname'
p9967
I1
tp9968
a(S'nistk'
p9969
I1
tp9970
a(S'nosalt'
p9971
I1
tp9972
a(S'nistb'
p9973
I1
tp9974
a(S'decrypt'
p9975
I1
tp9976
a(S'DirectionalDragAreaD'
p9977
I1
tp9978
a(S'QQmlEngine'
p9979
I1
tp9980
a(S'nR'
p9981
I1
tp9982
a(S'nistp'
p9983
I1
tp9984
a(S'endInsertRowsEv'
p9985
I1
tp9986
a(S'nl'
p9987
I1
tp9988
a(S'nm'
p9989
I1
tp9990
a(S'nc'
p9991
I1
tp9992
a(S'addhostdir'
p9993
I1
tp9994
a(S'descriptionEv'
p9995
I1
tp9996
a(S'np'
p9997
I1
tp9998
a(S'ns'
p9999
I1
tp10000
a(S'nu'
p10001
I1
tp10002
a(S'nv'
p10003
I1
tp10004
a(S'node'
p10005
I1
tp10006
a(S'tcsetattr'
p10007
I1
tp10008
a(S'econtent'
p10009
I1
tp10010
a(S'giveUpIfDisabledOrInvisibleEv'
p10011
I1
tp10012
a(S'setFilenameERK'
p10013
I1
tp10014
a(S'CRLfile'
p10015
I1
tp10016
a(S'randomwait'
p10017
I1
tp10018
a(S'iterator'
p10019
I1
tp10020
a(S'Title'
p10021
I1
tp10022
a(S'AfAoAxA'
p10023
I1
tp10024
a(S'rsautl'
p10025
I1
tp10026
a(S'GtfH'
p10027
I1
tp10028
a(S'QTouchDevice'
p10029
I1
tp10030
a(S'enabledChangedEv'
p10031
I1
tp10032
a(S'Standard'
p10033
I1
tp10034
a(S'OrientationERK'
p10035
I1
tp10036
a(S'allocate'
p10037
I1
tp10038
a(S'mapFromSceneERK'
p10039
I1
tp10040
a(S'dragMoveEventEP'
p10041
I1
tp10042
a(S'sourceRowsAboutToBeRemoved'
p10043
I1
tp10044
a(S'enqueue'
p10045
I1
tp10046
a(S'Secure'
p10047
I1
tp10048
a(S'level'
p10049
I1
tp10050
a(S'onRowsMovedERK'
p10051
I1
tp10052
a(S'createERmm'
p10053
I1
tp10054
a(S'QPersistentModelIndexE'
p10055
I1
tp10056
a(S'WebBrowserWindowD'
p10057
I1
tp10058
a(S'QPersistentModelIndexC'
p10059
I1
tp10060
a(S'QPersistentModelIndexb'
p10061
I1
tp10062
a(S'Checking'
p10063
I1
tp10064
a(S'recognitionIsDisabledEv'
p10065
I1
tp10066
a(S'goes'
p10067
I1
tp10068
a(S'sigopt'
p10069
I1
tp10070
a(S'cmsout'
p10071
I1
tp10072
a(S'QNetworkRequest'
p10073
I1
tp10074
a(S'QATI'
p10075
I1
tp10076
a(S'addDaysEx'
p10077
I1
tp10078
a(S'parentERK'
p10079
I1
tp10080
a(S'raiseEv'
p10081
I1
tp10082
a(S'freeEv'
p10083
I1
tp10084
a(S'overrides'
p10085
I1
tp10086
a(S'weird'
p10087
I1
tp10088
a(S'registerNormalizedTypedefERK'
p10089
I1
tp10090
a(S'globbing'
p10091
I1
tp10092
a(S'maciter'
p10093
I1
tp10094
a(S'Import'
p10095
I1
tp10096
a(S'ReceiptRequest'
p10097
I1
tp10098
a(S'checkValidTabIndexEi'
p10099
I1
tp10100
a(S'activateEP'
p10101
I1
tp10102
a(S'msg'
p10103
I1
tp10104
a(S'msb'
p10105
I1
tp10106
a(S'today'
p10107
I1
tp10108
a(S'verifyCAfile'
p10109
I1
tp10110
a(S'sessions'
p10111
I1
tp10112
a(S'pathconf'
p10113
I1
tp10114
a(S'randomfile'
p10115
I1
tp10116
a(S'qRegisterMetaTypeIP'
p10117
I1
tp10118
a(S'modified'
p10119
I1
tp10120
a(S'CONNECTED'
p10121
I1
tp10122
a(S'dnstimeout'
p10123
I1
tp10124
a(S'lZL'
p10125
I1
tp10126
a(S'corrupted'
p10127
I1
tp10128
a(S'CANCELED'
p10129
I1
tp10130
a(S'SessionStorageLi'
p10131
I1
tp10132
a(S'SessionStorageLb'
p10133
I1
tp10134
a(S'inspectorPortEv'
p10135
I1
tp10136
a(S'revalidate'
p10137
I1
tp10138
a(S'geometryChangedERK'
p10139
I1
tp10140
a(S'plus'
p10141
I1
tp10142
a(S'REGEX'
p10143
I1
tp10144
a(S'RESP'
p10145
I1
tp10146
a(S'REST'
p10147
I1
tp10148
a(S'tSM'
p10149
I1
tp10150
a(S'beginResetModelEv'
p10151
I1
tp10152
a(S'indexEiiRK'
p10153
I1
tp10154
a(S'inform'
p10155
I1
tp10156
a(S'xzI'
p10157
I1
tp10158
a(S'clearFoldersEv'
p10159
I1
tp10160
a(S'HistoryEntryEED'
p10161
I1
tp10162
a(S'ZYxBH'
p10163
I1
tp10164
a(S'spanhosts'
p10165
I1
tp10166
a(S'setCompleteERK'
p10167
I1
tp10168
a(S'whirlpool'
p10169
I1
tp10170
a(S'FAMILY'
p10171
I1
tp10172
a(S'RSAPrivateKey'
p10173
I1
tp10174
a(S'QListIiEC'
p10175
I1
tp10176
a(S'QListIiEE'
p10177
I1
tp10178
a(S'QListIiED'
p10179
I1
tp10180
a(S'QListData'
p10181
I1
tp10182
a(S'permissions'
p10183
I1
tp10184
a(S'BookmarksFolderListModelC'
p10185
I1
tp10186
a(S'onFolderAddedERK'
p10187
I1
tp10188
a(S'execute'
p10189
I1
tp10190
a(S'BookmarksFolderListModelD'
p10191
I1
tp10192
a(S'PRINTABLE'
p10193
I1
tp10194
a(S'useproxy'
p10195
I1
tp10196
a(S'Updating'
p10197
I1
tp10198
a(S'tFH'
p10199
I1
tp10200
a(S'strlcpy'
p10201
I1
tp10202
a(S'dispatchTouchBeginEP'
p10203
I1
tp10204
a(S'touchOwnershipTypeE'
p10205
I1
tp10206
a(S'FAILED'
p10207
I1
tp10208
a(S'ServerHelloDone'
p10209
I1
tp10210
a(S'SGML'
p10211
I1
tp10212
a(S'ENC'
p10213
I1
tp10214
a(S'ferror'
p10215
I1
tp10216
a(S'RFC'
p10217
I1
tp10218
a(S'Record'
p10219
I1
tp10220
a(S'ENS'
p10221
I1
tp10222
a(S'Security'
p10223
I1
tp10224
a(S'LimitProxyModelEiPKciiS'
p10225
I1
tp10226
a(S'Sign'
p10227
I1
tp10228
a(S'QMapNodeIiN'
p10229
I1
tp10230
a(S'QQuickShortcutEiRK'
p10231
I1
tp10232
a(S'addSwitchEi'
p10233
I1
tp10234
a(S'fetched'
p10235
I1
tp10236
a(S'QHostAddressEC'
p10237
I1
tp10238
a(S'COLUMN'
p10239
I1
tp10240
a(S'BookmarkEntryEEC'
p10241
I1
tp10242
a(S'zPLR'
p10243
I1
tp10244
a(S'BookmarkEntryEED'
p10245
I1
tp10246
a(S'Date'
p10247
I1
tp10248
a(S'QObjectED'
p10249
I1
tp10250
a(S'unobtainable'
p10251
I1
tp10252
a(S'QLocalServerC'
p10253
I1
tp10254
a(S'QLocalServerD'
p10255
I1
tp10256
a(S'released'
p10257
I1
tp10258
a(S'CApath'
p10259
I1
tp10260
a(S'xkeyform'
p10261
I1
tp10262
a(S'copy'
p10263
I1
tp10264
a(S'require'
p10265
I1
tp10266
a(S'wGH'
p10267
I1
tp10268
a(S'posix'
p10269
I1
tp10270
a(S'onModelChangedEv'
p10271
I1
tp10272
a(S'limitChangedEv'
p10273
I1
tp10274
a(S'warctempdir'
p10275
I1
tp10276
a(S'trustout'
p10277
I1
tp10278
a(S'prf'
p10279
I1
tp10280
a(S'QNetworkAccessManagerC'
p10281
I1
tp10282
a(S'RealTimeSourceD'
p10283
I1
tp10284
a(S'isWithinTouchCompositionWindowEv'
p10285
I1
tp10286
a(S'QGenericArgumentS'
p10287
I1
tp10288
a(S'DirectionEiRK'
p10289
I1
tp10290
a(S'EPRT'
p10291
I1
tp10292
a(S'SearchEngineELb'
p10293
I1
tp10294
a(S'sure'
p10295
I1
tp10296
a(S'Didn'
p10297
I1
tp10298
a(S'loadcookies'
p10299
I1
tp10300
a(S'sceneDistanceChanged'
p10301
I1
tp10302
a(S'Heartbeat'
p10303
I1
tp10304
a(S'toVector'
p10305
I1
tp10306
a(S'FakeTimerD'
p10307
I1
tp10308
a(S'FakeTimerE'
p10309
I1
tp10310
a(S'later'
p10311
I1
tp10312
a(S'retrieval'
p10313
I1
tp10314
a(S'onereq'
p10315
I1
tp10316
a(S'unlimitedCountChangedEv'
p10317
I1
tp10318
a(S'onReadyRead'
p10319
I1
tp10320
a(S'timegm'
p10321
I1
tp10322
a(S'Authentication'
p10323
I1
tp10324
a(S'ignoretags'
p10325
I1
tp10326
a(S'hack'
p10327
I1
tp10328
a(S'HistoryLastVisitDateListModelEiPKciiS'
p10329
I1
tp10330
a(S'httpuser'
p10331
I1
tp10332
a(S'QInputDeviceManagerFvRK'
p10333
I1
tp10334
a(S'TabsModelLi'
p10335
I1
tp10336
a(S'NodeE'
p10337
I1
tp10338
a(S'TabsModelLb'
p10339
I1
tp10340
a(S'requestTouchOwnershipEiP'
p10341
I1
tp10342
a(S'keyform'
p10343
I1
tp10344
a(S'Concurrent'
p10345
I1
tp10346
a(S'explicitly'
p10347
I1
tp10348
a(S'LayoutChangeHint'
p10349
I1
tp10350
a(S'checkSpeed'
p10351
I1
tp10352
a(S'Zls'
p10353
I1
tp10354
a(S'Discarded'
p10355
I1
tp10356
a(S'PASS'
p10357
I1
tp10358
a(S'installed'
p10359
I1
tp10360
a(S'QFutureInterfaceBaseD'
p10361
I1
tp10362
a(S'QFutureInterfaceBaseC'
p10363
I1
tp10364
a(S'QTransform'
p10365
I1
tp10366
a(S'currentIndex'
p10367
I1
tp10368
a(S'bodyfile'
p10369
I1
tp10370
a(S'ocsp'
p10371
I1
tp10372
a(S'overwriting'
p10373
I1
tp10374
a(S'SPKI'
p10375
I1
tp10376
a(S'favicons'
p10377
I1
tp10378
a(S'yxxxL'
p10379
I1
tp10380
a(S'setIntervalEi'
p10381
I1
tp10382
a(S'nH'
p10383
I1
tp10384
a(S'PASV'
p10385
I1
tp10386
a(S'colons'
p10387
I1
tp10388
a(S'yyout'
p10389
I1
tp10390
a(S'ftppasswd'
p10391
I1
tp10392
a(S'colon'
p10393
I1
tp10394
a(S'setHeaderDataEiN'
p10395
I1
tp10396
a(S'QRunnablei'
p10397
I1
tp10398
a(S'VUUUH'
p10399
I1
tp10400
a(S'cacheLocationEv'
p10401
I1
tp10402
a(S'engine'
p10403
I1
tp10404
a(S'direction'
p10405
I1
tp10406
a(S'ATUStW'
p10407
I1
tp10408
a(S'recalcMostLeftNodeEv'
p10409
I1
tp10410
a(S'alwaysrest'
p10411
I1
tp10412
a(S'protocols'
p10413
I1
tp10414
a(S'case'
p10415
I1
tp10416
a(S'TimerE'
p10417
I1
tp10418
a(S'TimerD'
p10419
I1
tp10420
a(S'Mandatory'
p10421
I1
tp10422
a(S'stopEv'
p10423
I1
tp10424
a(S'cast'
p10425
I1
tp10426
a(S'tunneling'
p10427
I1
tp10428
a(S'addRelativeAxisEi'
p10429
I1
tp10430
a(S'verifyCApath'
p10431
I1
tp10432
a(S'excludedomains'
p10433
I1
tp10434
a(S'discrepancy'
p10435
I1
tp10436
a(S'Hidden'
p10437
I1
tp10438
a(S'abcdef'
p10439
I1
tp10440
a(S'toUrlEv'
p10441
I1
tp10442
a(S'Format'
p10443
I1
tp10444
a(S'XXX'
p10445
I1
tp10446
a(S'ContenH'
p10447
I1
tp10448
a(S'QTimerC'
p10449
I1
tp10450
a(S'IA'
p10451
I1
tp10452
a(S'isOwnedEv'
p10453
I1
tp10454
a(S'IF'
p10455
I1
tp10456
a(S'Iz'
p10457
I1
tp10458
a(S'SortFlagEE'
p10459
I1
tp10460
a(S'SearchEngineC'
p10461
I1
tp10462
a(S'contextChanged'
p10463
I1
tp10464
a(S'SEDz'
p10465
I1
tp10466
a(S'SearchEngineD'
p10467
I1
tp10468
a(S'Ih'
p10469
I1
tp10470
a(S'NEXTPROTO'
p10471
I1
tp10472
a(S'model'
p10473
I1
tp10474
a(S'setalias'
p10475
I1
tp10476
a(S'nd'
p10477
I1
tp10478
a(S'emitTimeoutEv'
p10479
I1
tp10480
a(S'unicode'
p10481
I1
tp10482
a(S'hint'
p10483
I1
tp10484
a(S'except'
p10485
I1
tp10486
a(S'DTLSv'
p10487
I1
tp10488
a(S'wall'
p10489
I1
tp10490
a(S'decompression'
p10491
I1
tp10492
a(S'blob'
p10493
I1
tp10494
a(S'samples'
p10495
I1
tp10496
a(S'errorChanged'
p10497
I1
tp10498
a(S'getAndRefEPK'
p10499
I1
tp10500
a(S'QUrlC'
p10501
I1
tp10502
a(S'QUrlE'
p10503
I1
tp10504
a(S'QUrlD'
p10505
I1
tp10506
a(S'QUrlN'
p10507
I1
tp10508
a(S'QUrlS'
p10509
I1
tp10510
a(S'accepted'
p10511
I1
tp10512
a(S'Talk'
p10513
I1
tp10514
a(S'UUID'
p10515
I1
tp10516
a(S'QUrlj'
p10517
I1
tp10518
a(S'lastVisitDateString'
p10519
I1
tp10520
a(S'Something'
p10521
I1
tp10522
a(S'addAbsoluteAxisEi'
p10523
I1
tp10524
a(S'xchain'
p10525
I1
tp10526
a(S'Since'
p10527
I1
tp10528
a(S'TabsModelELb'
p10529
I1
tp10530
a(S'urlTemplateChangedEv'
p10531
I1
tp10532
a(S'Authority'
p10533
I1
tp10534
a(S'QChariPKciN'
p10535
I1
tp10536
a(S'provided'
p10537
I1
tp10538
a(S'reqout'
p10539
I1
tp10540
a(S'ATUSI'
p10541
I1
tp10542
a(S'ATUSD'
p10543
I1
tp10544
a(S'revocationDate'
p10545
I1
tp10546
a(S'nameChangedEv'
p10547
I1
tp10548
a(S'Edit'
p10549
I1
tp10550
a(S'htmlify'
p10551
I1
tp10552
a(S'MEDIUM'
p10553
I1
tp10554
a(S'visibleChangedEv'
p10555
I1
tp10556
a(S'ok'
p10557
I1
tp10558
a(S'multibyte'
p10559
I1
tp10560
a(S'ou'
p10561
I1
tp10562
a(S'op'
p10563
I1
tp10564
a(S'deviceListOfTypeEN'
p10565
I1
tp10566
a(S'certbag'
p10567
I1
tp10568
a(S'Verified'
p10569
I1
tp10570
a(S'determine'
p10571
I1
tp10572
a(S'dhparam'
p10573
I1
tp10574
a(S'Widgets'
p10575
I1
tp10576
a(S'initialised'
p10577
I1
tp10578
a(S'compositionTimeChangedEi'
p10579
I1
tp10580
a(S'QtPrivate'
p10581
I1
tp10582
a(S'numeric'
p10583
I1
tp10584
a(S'Formats'
p10585
I1
tp10586
a(S'DirectionalDragAreaEiPKciiS'
p10587
I1
tp10588
a(S'readtimeout'
p10589
I1
tp10590
a(S'KeyboardModifierEE'
p10591
I1
tp10592
a(S'Truncated'
p10593
I1
tp10594
a(S'Startup'
p10595
I1
tp10596
a(S'showcerts'
p10597
I1
tp10598
a(S'startsWithERKS'
p10599
I1
tp10600
a(S'CACompromise'
p10601
I1
tp10602
a(S'reusing'
p10603
I1
tp10604
a(S'cbc'
p10605
I1
tp10606
a(S'nameopt'
p10607
I1
tp10608
a(S'HistoryDomainModelC'
p10609
I1
tp10610
a(S'Elliptic'
p10611
I1
tp10612
a(S'QKeySequenceaSERKS'
p10613
I1
tp10614
a(S'QByteArrayED'
p10615
I1
tp10616
a(S'ige'
p10617
I1
tp10618
a(S'ign'
p10619
I1
tp10620
a(S'SGC'
p10621
I1
tp10622
a(S'requested'
p10623
I1
tp10624
a(S'gfffffff'
p10625
I1
tp10626
a(S'separate'
p10627
I1
tp10628
a(S'fxstat'
p10629
I1
tp10630
a(S'calls'
p10631
I1
tp10632
a(S'curve'
p10633
I1
tp10634
a(S'PFS'
p10635
I1
tp10636
a(S'alg'
p10637
I1
tp10638
a(S'AUATUStOL'
p10639
I1
tp10640
a(S'follow'
p10641
I1
tp10642
a(S'alt'
p10643
I1
tp10644
a(S'PRIV'
p10645
I1
tp10646
a(S'ptM'
p10647
I1
tp10648
a(S'QUnhandledException'
p10649
I1
tp10650
a(S'NUMERIC'
p10651
I1
tp10652
a(S'egdfile'
p10653
I1
tp10654
a(S'program'
p10655
I1
tp10656
a(S'setNameERK'
p10657
I1
tp10658
a(S'Couldn'
p10659
I1
tp10660
a(S'searchEnginesSearchPaths'
p10661
I1
tp10662
a(S'timestamping'
p10663
I1
tp10664
a(S'ticket'
p10665
I1
tp10666
a(S'utime'
p10667
I1
tp10668
a(S'NPN'
p10669
I1
tp10670
a(S'BookmarksModelEiRK'
p10671
I1
tp10672
a(S'destroySubTreeEv'
p10673
I1
tp10674
a(S'QQuickWindowLb'
p10675
I1
tp10676
a(S'ApplicationAttributeEb'
p10677
I1
tp10678
a(S'ZYuRM'
p10679
I1
tp10680
a(S'deviceCount'
p10681
I1
tp10682
a(S'rate'
p10683
I1
tp10684
a(S'warcheader'
p10685
I1
tp10686
a(S'startEP'
p10687
I1
tp10688
a(S'what'
p10689
I1
tp10690
a(S'teA'
p10691
I1
tp10692
a(S'brief'
p10693
I1
tp10694
a(S'beginRemoveRowsERK'
p10695
I1
tp10696
a(S'insertNewDomainERK'
p10697
I1
tp10698
a(S'startEv'
p10699
I1
tp10700
a(S'LOAD'
p10701
I1
tp10702
a(S'distanceChanged'
p10703
I1
tp10704
a(S'tags'
p10705
I1
tp10706
a(S'hoverMoveEventEP'
p10707
I1
tp10708
a(S'eraseENS'
p10709
I1
tp10710
a(S'isListeningEv'
p10711
I1
tp10712
a(S'sizeImplI'
p10713
I1
tp10714
a(S'TextSearchFilterModelEiRK'
p10715
I1
tp10716
a(S'compressed'
p10717
I1
tp10718
a(S'BookmarksModelC'
p10719
I1
tp10720
a(S'BookmarksModelD'
p10721
I1
tp10722
a(S'SessionStorageELb'
p10723
I1
tp10724
a(S'allows'
p10725
I1
tp10726
a(S'setDeviceFilterEN'
p10727
I1
tp10728
a(S'velocityEv'
p10729
I1
tp10730
a(S'EHLO'
p10731
I1
tp10732
a(S'Certificate'
p10733
I1
tp10734
a(S'tvSH'
p10735
I1
tp10736
a(S'endedEv'
p10737
I1
tp10738
a(S'uQIcD'
p10739
I1
tp10740
a(S'proceed'
p10741
I1
tp10742
a(S'Overall'
p10743
I1
tp10744
a(S'QMapI'
p10745
I1
tp10746
a(S'HistoryLastVisitDateListModelEEvPv'
p10747
I1
tp10748
a(S'updateVelocityCalculatorERK'
p10749
I1
tp10750
a(S'authentification'
p10751
I1
tp10752
a(S'Recognized'
p10753
I1
tp10754
a(S'flag'
p10755
I1
tp10756
a(S'DHAVE'
p10757
I1
tp10758
a(S'TouchInfo'
p10759
I1
tp10760
a(S'QNetworkReply'
p10761
I1
tp10762
a(S'BytesToKey'
p10763
I1
tp10764
a(S'ftruncate'
p10765
I1
tp10766
a(S'ShortName'
p10767
I1
tp10768
a(S'mapSelectionToSourceERK'
p10769
I1
tp10770
a(S'readNextEv'
p10771
I1
tp10772
a(S'QQmlElementI'
p10773
I1
tp10774
a(S'QMapIi'
p10775
I1
tp10776
a(S'Modulus'
p10777
I1
tp10778
a(S'recursive'
p10779
I1
tp10780
a(S'QMapIP'
p10781
I1
tp10782
a(S'locateAndParseDescriptionEv'
p10783
I1
tp10784
a(S'Explicity'
p10785
I1
tp10786
a(S'QVector'
p10787
I1
tp10788
a(S'rowCountChanged'
p10789
I1
tp10790
a(S'ignorelength'
p10791
I1
tp10792
a(S'getservbyname'
p10793
I1
tp10794
a(S'xmpp'
p10795
I1
tp10796
a(S'QRectFS'
p10797
I1
tp10798
a(S'disabled'
p10799
I1
tp10800
a(S'Afffff'
p10801
I1
tp10802
a(S'reconnect'
p10803
I1
tp10804
a(S'CacheDeleterLb'
p10805
I1
tp10806
a(S'CacheDeleterLi'
p10807
I1
tp10808
a(S'Hash'
p10809
I1
tp10810
a(S'SignerInfos'
p10811
I1
tp10812
a(S'XZY'
p10813
I1
tp10814
a(S'clashes'
p10815
I1
tp10816
a(S'XZM'
p10817
I1
tp10818
a(S'might'
p10819
I1
tp10820
a(S'return'
p10821
I1
tp10822
a(S'ActiveTouchesInfo'
p10823
I1
tp10824
a(S'TabsModelEEvPv'
p10825
I1
tp10826
a(S'QDeclarativeInputDeviceModel'
p10827
I1
tp10828
a(S'notifyEP'
p10829
I1
tp10830
a(S'setCurrentIndexEi'
p10831
I1
tp10832
a(S'refresh'
p10833
I1
tp10834
a(S'unconfined'
p10835
I1
tp10836
a(S'ABCDEFGHIJKLMNOPQRSTUVWXYZabcdefghijklmnopqrstuvwxyz'
p10837
I1
tp10838
a(S'ungrabMouseEv'
p10839
I1
tp10840
a(S'generation'
p10841
I1
tp10842
a(S'expect'
p10843
I1
tp10844
a(S'exactMatchERK'
p10845
I1
tp10846
a(S'removeERK'
p10847
I1
tp10848
a(S'setUrlERK'
p10849
I1
tp10850
a(S'Netscape'
p10851
I1
tp10852
a(S'QMetaTypeIdQObjectIP'
p10853
I1
tp10854
a(S'Block'
p10855
I1
tp10856
a(S'QQmlContext'
p10857
I1
tp10858
a(S'putchar'
p10859
I1
tp10860
a(S'thread'
p10861
I1
tp10862
a(S'freeEndedTouchInfosEv'
p10863
I1
tp10864
a(S'maxDeviationChangedEd'
p10865
I1
tp10866
a(S'Pass'
p10867
I1
tp10868
a(S'mimetypeString'
p10869
I1
tp10870
a(S'notify'
p10871
I1
tp10872
a(S'WebBrowserWindowC'
p10873
I1
tp10874
a(S'gpl'
p10875
I1
tp10876
a(S'script'
p10877
I1
tp10878
a(S'Deleting'
p10879
I1
tp10880
a(S'BITS'
p10881
I1
tp10882
a(S'sigfile'
p10883
I1
tp10884
a(S'yyensure'
p10885
I1
tp10886
a(S'rowCountChangedEv'
p10887
I1
tp10888
a(S'Wrote'
p10889
I1
tp10890
a(S'autoRepeatChangedEv'
p10891
I1
tp10892
a(S'instruction'
p10893
I1
tp10894
a(S'uRH'
p10895
I1
tp10896
a(S'timeoutEv'
p10897
I1
tp10898
a(S'onFolderAdded'
p10899
I1
tp10900
a(S'layoutChanged'
p10901
I1
tp10902
a(S'ServerKeyExchange'
p10903
I1
tp10904
a(S'tBH'
p10905
I1
tp10906
a(S'QFlags'
p10907
I1
tp10908
a(S'sourceRowsAboutToBeRemovedERK'
p10909
I1
tp10910
a(S'Finished'
p10911
I1
tp10912
a(S'unlimitedCountChanged'
p10913
I1
tp10914
a(S'connrefused'
p10915
I1
tp10916
a(S'QDeclarativeInputDeviceModelEiRK'
p10917
I1
tp10918
a(S'checkemail'
p10919
I1
tp10920
a(S'isRunningEv'
p10921
I1
tp10922
a(S'dispatchTouchEventToTargetEP'
p10923
I1
tp10924
a(S'warnings'
p10925
I1
tp10926
a(S'nothing'
p10927
I1
tp10928
a(S'lcrypto'
p10929
I1
tp10930
a(S'warcdigests'
p10931
I1
tp10932
a(S'loadUrlERK'
p10933
I1
tp10934
a(S'windows'
p10935
I1
tp10936
a(S'QObjectPKcN'
p10937
I1
tp10938
a(S'NodeEPv'
p10939
I1
tp10940
a(S'caching'
p10941
I1
tp10942
a(S'HMAC'
p10943
I1
tp10944
a(S'strncasecmp'
p10945
I1
tp10946
a(S'restore'
p10947
I1
tp10948
a(S'cdm'
p10949
I1
tp10950
a(S'getcon'
p10951
I1
tp10952
a(S'setSourceModelE'
p10953
I1
tp10954
a(S'nomacver'
p10955
I1
tp10956
a(S'Unrecognized'
p10957
I1
tp10958
a(S'Suite'
p10959
I1
tp10960
a(S'cdx'
p10961
I1
tp10962
a(S'REALTIME'
p10963
I1
tp10964
a(S'Znwm'
p10965
I1
tp10966
a(S'Ji'
p10967
I1
tp10968
a(S'Passpharse'
p10969
I1
tp10970
a(S'BN'
p10971
I1
tp10972
a(S'hit'
p10973
I1
tp10974
a(S'compiled'
p10975
I1
tp10976
a(S'QStringEC'
p10977
I1
tp10978
a(S'QStringED'
p10979
I1
tp10980
a(S'DecryptInit'
p10981
I1
tp10982
a(S'warcfile'
p10983
I1
tp10984
a(S'srtp'
p10985
I1
tp10986
a(S'investigate'
p10987
I1
tp10988
a(S'wCD'
p10989
I1
tp10990
a(S'wrote'
p10991
I1
tp10992
a(S'dump'
p10993
I1
tp10994
a(S'certin'
p10995
I1
tp10996
a(S'advertised'
p10997
I1
tp10998
a(S'termsChangedEv'
p10999
I1
tp11000
a(S'atexit'
p11001
I1
tp11002
a(S'setMaxSilenceTimeEi'
p11003
I1
tp11004
a(S'arg'
p11005
I1
tp11006
a(S'touchEventEv'
p11007
I1
tp11008
a(S'fullscreen'
p11009
I1
tp11010
a(S'valueEi'
p11011
I1
tp11012
a(S'various'
p11013
I1
tp11014
a(S'touchEventEP'
p11015
I1
tp11016
a(S'corruption'
p11017
I1
tp11018
a(S'QQuickItemRNS'
p11019
I1
tp11020
a(S'creating'
p11021
I1
tp11022
a(S'rowsInserted'
p11023
I1
tp11024
a(S'outfile'
p11025
I1
tp11026
a(S'eHxC'
p11027
I1
tp11028
a(S'downloaded'
p11029
I1
tp11030
a(S'ANY'
p11031
I1
tp11032
a(S'pR'
p11033
I1
tp11034
a(S'TabsModel'
p11035
I1
tp11036
a(S'setTypeE'
p11037
I1
tp11038
a(S'pZ'
p11039
I1
tp11040
a(S'pB'
p11041
I1
tp11042
a(S'pC'
p11043
I1
tp11044
a(S'pD'
p11045
I1
tp11046
a(S'clrext'
p11047
I1
tp11048
a(S'pM'
p11049
I1
tp11050
a(S'pw'
p11051
I1
tp11052
a(S'pt'
p11053
I1
tp11054
a(S'pu'
p11055
I1
tp11056
a(S'AbstractTimerFactoryEP'
p11057
I1
tp11058
a(S'Updates'
p11059
I1
tp11060
a(S'tgE'
p11061
I1
tp11062
a(S'dup'
p11063
I1
tp11064
a(S'pk'
p11065
I1
tp11066
a(S'QDeclarativeInputDeviceModelFvRK'
p11067
I1
tp11068
a(S'lastIndexOfERKS'
p11069
I1
tp11070
a(S'Eiiii'
p11071
I1
tp11072
a(S'precision'
p11073
I1
tp11074
a(S'referer'
p11075
I1
tp11076
a(S'Emz'
p11077
I1
tp11078
a(S'batch'
p11079
I1
tp11080
a(S'QMapDataIiS'
p11081
I1
tp11082
a(S'httppasswd'
p11083
I1
tp11084
a(S'InputInfo'
p11085
I1
tp11086
a(S'Logged'
p11087
I1
tp11088
a(S'fatalEPKcz'
p11089
I1
tp11090
a(S'createQTouchEventEN'
p11091
I1
tp11092
a(S'isLocalFileEv'
p11093
I1
tp11094
a(S'Sql'
p11095
I1
tp11096
a(S'dataFile'
p11097
I1
tp11098
a(S'toBoolEv'
p11099
I1
tp11100
a(S'SessionStorageEiPKciiS'
p11101
I1
tp11102
a(S'Iter'
p11103
I1
tp11104
a(S'domains'
p11105
I1
tp11106
a(S'moving'
p11107
I1
tp11108
a(S'QDragLeaveEvent'
p11109
I1
tp11110
a(S'DESC'
p11111
I1
tp11112
a(S'clearLastVisitDatesEv'
p11113
I1
tp11114
a(S'webbrowserapp'
p11115
I1
tp11116
a(S'SpecialValueE'
p11117
I1
tp11118
a(S'caname'
p11119
I1
tp11120
a(S'ORDER'
p11121
I1
tp11122
a(S'loading'
p11123
I1
tp11124
a(S'LimitProxyModelED'
p11125
I1
tp11126
a(S'LimitProxyModelEE'
p11127
I1
tp11128
a(S'Last'
p11129
I1
tp11130
a(S'unlimited'
p11131
I1
tp11132
a(S'marked'
p11133
I1
tp11134
a(S'currentDateTimeEv'
p11135
I1
tp11136
a(S'modifications'
p11137
I1
tp11138
a(S'rotate'
p11139
I1
tp11140
a(S'collect'
p11141
I1
tp11142
a(S'NODE'
p11143
I1
tp11144
a(S'moveRowsERK'
p11145
I1
tp11146
a(S'Email'
p11147
I1
tp11148
a(S'luuid'
p11149
I1
tp11150
a(S'scenePosEv'
p11151
I1
tp11152
a(S'prot'
p11153
I1
tp11154
a(S'removeEntriesByDomain'
p11155
I1
tp11156
a(S'prop'
p11157
I1
tp11158
a(S'hsts'
p11159
I1
tp11160
a(S'QFutureInterfaceIvED'
p11161
I1
tp11162
a(S'advanceEPPvi'
p11163
I1
tp11164
a(S'saveheaders'
p11165
I1
tp11166
a(S'PARENT'
p11167
I1
tp11168
a(S'Epu'
p11169
I1
tp11170
a(S'Signed'
p11171
I1
tp11172
a(S'refused'
p11173
I1
tp11174
a(S'QMutexC'
p11175
I1
tp11176
a(S'QMutexD'
p11177
I1
tp11178
a(S'Signer'
p11179
I1
tp11180
a(S'Turtle'
p11181
I1
tp11182
a(S'senderEv'
p11183
I1
tp11184
a(S'siblingEiiRK'
p11185
I1
tp11186
a(S'installEventFilterEPS'
p11187
I1
tp11188
a(S'Everything'
p11189
I1
tp11190
a(S'HistoryDomainListModelEE'
p11191
I1
tp11192
a(S'DirectionalDragAreaLi'
p11193
I1
tp11194
a(S'DirectionalDragAreaLb'
p11195
I1
tp11196
a(S'SERVERINFO'
p11197
I1
tp11198
a(S'mapToSourceERK'
p11199
I1
tp11200
a(S'etc'
p11201
I1
tp11202
a(S'qmlEngineCreatedEP'
p11203
I1
tp11204
a(S'criteria'
p11205
I1
tp11206
a(S'filenameChangedEv'
p11207
I1
tp11208
a(S'BGCOLOR'
p11209
I1
tp11210
a(S'unlockEv'
p11211
I1
tp11212
a(S'delta'
p11213
I1
tp11214
a(S'mouseReleaseEventEP'
p11215
I1
tp11216
a(S'invokeMethodEP'
p11217
I1
tp11218
a(S'Revoke'
p11219
I1
tp11220
a(S'lowsrc'
p11221
I1
tp11222
a(S'ServerHello'
p11223
I1
tp11224
a(S'preservepermissions'
p11225
I1
tp11226
a(S'DownloadsModelEiRK'
p11227
I1
tp11228
a(S'USVH'
p11229
I1
tp11230
a(S'called'
p11231
I1
tp11232
a(S'associated'
p11233
I1
tp11234
a(S'urlsEv'
p11235
I1
tp11236
a(S'fread'
p11237
I1
tp11238
a(S'stringIcSt'
p11239
I1
tp11240
a(S'misconfigured'
p11241
I1
tp11242
a(S'filterAcceptsColumnEiRK'
p11243
I1
tp11244
a(S'AllocationOptionEE'
p11245
I1
tp11246
a(S'TabsModelC'
p11247
I1
tp11248
a(S'TabsModelD'
p11249
I1
tp11250
a(S'HistoryModelLb'
p11251
I1
tp11252
a(S'HistoryModelLi'
p11253
I1
tp11254
a(S'QInputDeviceManagerC'
p11255
I1
tp11256
a(S'users'
p11257
I1
tp11258
a(S'QInputDeviceManagerD'
p11259
I1
tp11260
a(S'problems'
p11261
I1
tp11262
a(S'generated'
p11263
I1
tp11264
a(S'Sequence'
p11265
I1
tp11266
a(S'EncryptFinal'
p11267
I1
tp11268
a(S'RunFunctionTaskIvEE'
p11269
I1
tp11270
a(S'dotbytes'
p11271
I1
tp11272
a(S'ede'
p11273
I1
tp11274
a(S'TypeERK'
p11275
I1
tp11276
a(S'edu'
p11277
I1
tp11278
a(S'onReadyReadEv'
p11279
I1
tp11280
a(S'RENEGOTIATING'
p11281
I1
tp11282
a(S'searchPaths'
p11283
I1
tp11284
a(S'TouchRegistryFviP'
p11285
I1
tp11286
a(S'ttPH'
p11287
I1
tp11288
a(S'AEAD'
p11289
I1
tp11290
a(S'ecparam'
p11291
I1
tp11292
a(S'lastVisitedTitle'
p11293
I1
tp11294
a(S'sigdump'
p11295
I1
tp11296
a(S'PKcS'
p11297
I1
tp11298
a(S'redistribute'
p11299
I1
tp11300
a(S'valIS'
p11301
I1
tp11302
a(S'Disable'
p11303
I1
tp11304
a(S'strictcomments'
p11305
I1
tp11306
a(S'metatype'
p11307
I1
tp11308
a(S'unownedTouchEventTypeE'
p11309
I1
tp11310
a(S'cfb'
p11311
I1
tp11312
a(S'procession'
p11313
I1
tp11314
a(S'dcert'
p11315
I1
tp11316
a(S'DTP'
p11317
I1
tp11318
a(S'TextSearchFilterModelEiPKciiS'
p11319
I1
tp11320
a(S'unavailable'
p11321
I1
tp11322
a(S'shouldCacheChanged'
p11323
I1
tp11324
a(S'waiting'
p11325
I1
tp11326
a(S'MimeDatabase'
p11327
I1
tp11328
a(S'Link'
p11329
I1
tp11330
a(S'QListIiEEENS'
p11331
I1
tp11332
a(S'degree'
p11333
I1
tp11334
a(S'filenameChanged'
p11335
I1
tp11336
a(S'setTimeSourceERK'
p11337
I1
tp11338
a(S'leaving'
p11339
I1
tp11340
a(S'currentTabEv'
p11341
I1
tp11342
a(S'Payload'
p11343
I1
tp11344
a(S'apr'
p11345
I1
tp11346
a(S'QCharm'
p11347
I1
tp11348
a(S'QChari'
p11349
I1
tp11350
a(S'onDomainRowsRemovedERK'
p11351
I1
tp11352
a(S'Digests'
p11353
I1
tp11354
a(S'ZTSN'
p11355
I1
tp11356
a(S'chopEi'
p11357
I1
tp11358
a(S'databasePathChanged'
p11359
I1
tp11360
a(S'maxSilenceTimeChangedEi'
p11361
I1
tp11362
a(S'few'
p11363
I1
tp11364
a(S'Base'
p11365
I1
tp11366
a(S'inet'
p11367
I1
tp11368
a(S'sort'
p11369
I1
tp11370
a(S'Gui'
p11371
I1
tp11372
a(S'QInputDeviceEiPKciiS'
p11373
I1
tp11374
a(S'QStandardPaths'
p11375
I1
tp11376
a(S'ZdlPv'
p11377
I1
tp11378
a(S'perms'
p11379
I1
tp11380
a(S'ConstructEPvPKv'
p11381
I1
tp11382
a(S'Rewriting'
p11383
I1
tp11384
a(S'Details'
p11385
I1
tp11386
a(S'getERK'
p11387
I1
tp11388
a(S'serial'
p11389
I1
tp11390
a(S'locking'
p11391
I1
tp11392
a(S'initializeEngineEP'
p11393
I1
tp11394
a(S'FilterEES'
p11395
I1
tp11396
a(S'sig'
p11397
I1
tp11398
a(S'ERK'
p11399
I1
tp11400
a(S'sendreq'
p11401
I1
tp11402
a(S'vasprintf'
p11403
I1
tp11404
a(S'Wformat'
p11405
I1
tp11406
a(S'ENGINEs'
p11407
I1
tp11408
a(S'subdomains'
p11409
I1
tp11410
a(S'newInstanceLaunched'
p11411
I1
tp11412
a(S'MatchFlagEE'
p11413
I1
tp11414
a(S'ecdhp'
p11415
I1
tp11416
a(S'setDatabasePathERK'
p11417
I1
tp11418
a(S'ecdhk'
p11419
I1
tp11420
a(S'ecdhe'
p11421
I1
tp11422
a(S'tmpprt'
p11423
I1
tp11424
a(S'unchecked'
p11425
I1
tp11426
a(S'ecdhb'
p11427
I1
tp11428
a(S'Resume'
p11429
I1
tp11430
a(S'permanent'
p11431
I1
tp11432
a(S'choose'
p11433
I1
tp11434
a(S'flex'
p11435
I1
tp11436
a(S'FaviconFetcherED'
p11437
I1
tp11438
a(S'FaviconFetcherEE'
p11439
I1
tp11440
a(S'crash'
p11441
I1
tp11442
a(S'downloadId'
p11443
I1
tp11444
a(S'FileOperationsEiRK'
p11445
I1
tp11446
a(S'material'
p11447
I1
tp11448
a(S'fingerprint'
p11449
I1
tp11450
a(S'ClientHello'
p11451
I1
tp11452
a(S'checkip'
p11453
I1
tp11454
a(S'Ignored'
p11455
I1
tp11456
a(S'processMovementEd'
p11457
I1
tp11458
a(S'Decided'
p11459
I1
tp11460
a(S'QXmlStreamAttributeED'
p11461
I1
tp11462
a(S'Subject'
p11463
I1
tp11464
a(S'servername'
p11465
I1
tp11466
a(S'Octet'
p11467
I1
tp11468
a(S'Next'
p11469
I1
tp11470
a(S'ous'
p11471
I1
tp11472
a(S'memrchr'
p11473
I1
tp11474
a(S'clearDatabaseEv'
p11475
I1
tp11476
a(S'gethostbyaddr'
p11477
I1
tp11478
a(S'fromAscii'
p11479
I1
tp11480
a(S'updateExistingEntryInDatabaseERKNS'
p11481
I1
tp11482
a(S'Verification'
p11483
I1
tp11484
a(S'noemailDN'
p11485
I1
tp11486
a(S'Successfully'
p11487
I1
tp11488
a(S'reallocEi'
p11489
I1
tp11490
a(S'dirstruct'
p11491
I1
tp11492
a(S'searchengines'
p11493
I1
tp11494
a(S'Local'
p11495
I1
tp11496
a(S'xcertform'
p11497
I1
tp11498
a(S'watchPressedTouchPointsERK'
p11499
I1
tp11500
a(S'Tier'
p11501
I1
tp11502
a(S'Kb'
p11503
I1
tp11504
a(S'shell'
p11505
I1
tp11506
a(S'Success'
p11507
I1
tp11508
a(S'Database'
p11509
I1
tp11510
a(S'Ku'
p11511
I1
tp11512
a(S'KB'
p11513
I1
tp11514
a(S'KA'
p11515
I1
tp11516
a(S'startPosEv'
p11517
I1
tp11518
a(S'onTitleChanged'
p11519
I1
tp11520
a(S'conaddr'
p11521
I1
tp11522
a(S'KS'
p11523
I1
tp11524
a(S'containsEPK'
p11525
I1
tp11526
a(S'DPATD'
p11527
I1
tp11528
a(S'closeEv'
p11529
I1
tp11530
a(S'EXTENSION'
p11531
I1
tp11532
a(S'QMapNodeIP'
p11533
I1
tp11534
a(S'qRegisterMetaTypeI'
p11535
I1
tp11536
a(S'Folder'
p11537
I1
tp11538
a(S'linked'
p11539
I1
tp11540
a(S'addDetailsEP'
p11541
I1
tp11542
a(S'VARCHAR'
p11543
I1
tp11544
a(S'autoRepeat'
p11545
I1
tp11546
a(S'After'
p11547
I1
tp11548
a(S'ipaddr'
p11549
I1
tp11550
a(S'QObjectPN'
p11551
I1
tp11552
a(S'includeSubDomains'
p11553
I1
tp11554
a(S'class'
p11555
I1
tp11556
a(S'Salted'
p11557
I1
tp11558
a(S'untrusted'
p11559
I1
tp11560
a(S'populateModelEv'
p11561
I1
tp11562
a(S'pipe'
p11563
I1
tp11564
a(S'nmin'
p11565
I1
tp11566
a(S'lz'
p11567
I1
tp11568
a(S'BASICRESP'
p11569
I1
tp11570
a(S'strtok'
p11571
I1
tp11572
a(S'strtod'
p11573
I1
tp11574
a(S'hf'
p11575
I1
tp11576
a(S'Failure'
p11577
I1
tp11578
a(S'GPL'
p11579
I1
tp11580
a(S'QInputDeviceC'
p11581
I1
tp11582
a(S'QInputDeviceD'
p11583
I1
tp11584
a(S'QInputDeviceE'
p11585
I1
tp11586
a(S'LIBIDN'
p11587
I1
tp11588
a(S'absolutePathEv'
p11589
I1
tp11590
a(S'ones'
p11591
I1
tp11592
a(S'qL'
p11593
I1
tp11594
a(S'keyCompromise'
p11595
I1
tp11596
a(S'MemInfo'
p11597
I1
tp11598
a(S'qt'
p11599
I1
tp11600
a(S'differential'
p11601
I1
tp11602
a(S'qd'
p11603
I1
tp11604
a(S'Rejecting'
p11605
I1
tp11606
a(S'Unity'
p11607
I1
tp11608
a(S'truncating'
p11609
I1
tp11610
a(S'convertfileonly'
p11611
I1
tp11612
a(S'stpcpy'
p11613
I1
tp11614
a(S'rctform'
p11615
I1
tp11616
a(S'closer'
p11617
I1
tp11618
a(S'converted'
p11619
I1
tp11620
a(S'XXyk'
p11621
I1
tp11622
a(S'strspn'
p11623
I1
tp11624
a(S'urlChanged'
p11625
I1
tp11626
a(S'MatchModeE'
p11627
I1
tp11628
a(S'dateEv'
p11629
I1
tp11630
a(S'completeChanged'
p11631
I1
tp11632
a(S'SortOrderE'
p11633
I1
tp11634
a(S'filesInDirectoryERK'
p11635
I1
tp11636
a(S'commands'
p11637
I1
tp11638
a(S'folderChanged'
p11639
I1
tp11640
a(S'sslv'
p11641
I1
tp11642
a(S'cxx'
p11643
I1
tp11644
a(S'chmod'
p11645
I1
tp11646
a(S'removeTouchFromStoredEventsEi'
p11647
I1
tp11648
a(S'respout'
p11649
I1
tp11650
a(S'setSequenceERK'
p11651
I1
tp11652
a(S'occured'
p11653
I1
tp11654
a(S'isCallableEv'
p11655
I1
tp11656
a(S'Timestamp'
p11657
I1
tp11658
a(S'nanosleep'
p11659
I1
tp11660
a(S'DecryptUpdate'
p11661
I1
tp11662
a(S'validating'
p11663
I1
tp11664
a(S'literal'
p11665
I1
tp11666
a(S'Referer'
p11667
I1
tp11668
a(S'OBJ'
p11669
I1
tp11670
a(S'PARAMS'
p11671
I1
tp11672
a(S'BETWEEN'
p11673
I1
tp11674
a(S'setupOrTearDownEventFiltering'
p11675
I1
tp11676
a(S'abandoned'
p11677
I1
tp11678
a(S'align'
p11679
I1
tp11680
a(S'modifiy'
p11681
I1
tp11682
a(S'multivalue'
p11683
I1
tp11684
a(S'CDX'
p11685
I1
tp11686
a(S'uqH'
p11687
I1
tp11688
a(S'decryption'
p11689
I1
tp11690
a(S'AWAVATUI'
p11691
I1
tp11692
a(S'notifyCandidatesOfOwnershipResolutionEv'
p11693
I1
tp11694
a(S'crlnumber'
p11695
I1
tp11696
a(S'oPF'
p11697
I1
tp11698
a(S'HistoryLastVisitDateListModelLi'
p11699
I1
tp11700
a(S'avg'
p11701
I1
tp11702
a(S'HistoryLastVisitDateListModelLb'
p11703
I1
tp11704
a(S'LIBSSL'
p11705
I1
tp11706
a(S'tRLc'
p11707
I1
tp11708
a(S'getc'
p11709
I1
tp11710
a(S'removeDatabaseERK'
p11711
I1
tp11712
a(S'ifndef'
p11713
I1
tp11714
a(S'gets'
p11715
I1
tp11716
a(S'incl'
p11717
I1
tp11718
a(S'QQuickItemLb'
p11719
I1
tp11720
a(S'StateE'
p11721
I1
tp11722
a(S'TouchPointReleased'
p11723
I1
tp11724
a(S'MTU'
p11725
I1
tp11726
a(S'certfile'
p11727
I1
tp11728
a(S'numberExi'
p11729
I1
tp11730
a(S'MEMORY'
p11731
I1
tp11732
a(S'outform'
p11733
I1
tp11734
a(S'QQmlEngineP'
p11735
I1
tp11736
a(S'STRENGTH'
p11737
I1
tp11738
a(S'starttls'
p11739
I1
tp11740
a(S'unsigned'
p11741
I1
tp11742
a(S'capabilities'
p11743
I1
tp11744
a(S'QQmlEngineC'
p11745
I1
tp11746
a(S'updateEPK'
p11747
I1
tp11748
a(S'usage'
p11749
I1
tp11750
a(S'makeRunningTimersTimeoutEv'
p11751
I1
tp11752
a(S'rejectCandidateOwnerForTouch'
p11753
I1
tp11754
a(S'splitERKS'
p11755
I1
tp11756
a(S'tcA'
p11757
I1
tp11758
a(S'identical'
p11759
I1
tp11760
a(S'hostE'
p11761
I1
tp11762
a(S'QDropEvent'
p11763
I1
tp11764
a(S'iswcntrl'
p11765
I1
tp11766
a(S'Eib'
p11767
I1
tp11768
a(S'deviceFilterChangedEN'
p11769
I1
tp11770
a(S'know'
p11771
I1
tp11772
a(S'Eii'
p11773
I1
tp11774
a(S'EiP'
p11775
I1
tp11776
a(S'Encoding'
p11777
I1
tp11778
a(S'hosts'
p11779
I1
tp11780
a(S'Converting'
p11781
I1
tp11782
a(S'isSingleShotEv'
p11783
I1
tp11784
a(S'isVertical'
p11785
I1
tp11786
a(S'currentTab'
p11787
I1
tp11788
a(S'equalEPKPvS'
p11789
I1
tp11790
a(S'parity'
p11791
I1
tp11792
a(S'Parameters'
p11793
I1
tp11794
a(S'ACCEPT'
p11795
I1
tp11796
a(S'export'
p11797
I1
tp11798
a(S'disconnectFromServerEv'
p11799
I1
tp11800
a(S'endlR'
p11801
I1
tp11802
a(S'Parse'
p11803
I1
tp11804
a(S'kdH'
p11805
I1
tp11806
a(S'TouchRegistryD'
p11807
I1
tp11808
a(S'pathChanged'
p11809
I1
tp11810
a(S'TouchRegistryC'
p11811
I1
tp11812
a(S'QJSValueED'
p11813
I1
tp11814
a(S'Algorithm'
p11815
I1
tp11816
a(S'KnownHeadersERK'
p11817
I1
tp11818
a(S'LimitProxyModelELb'
p11819
I1
tp11820
a(S'Range'
p11821
I1
tp11822
a(S'Scanning'
p11823
I1
tp11824
a(S'domainEv'
p11825
I1
tp11826
a(S'column'
p11827
I1
tp11828
a(S'Ptd'
p11829
I1
tp11830
a(S'SttH'
p11831
I1
tp11832
a(S'searchFieldsChanged'
p11833
I1
tp11834
a(S'own'
p11835
I1
tp11836
a(S'DEFAULT'
p11837
I1
tp11838
a(S'Writing'
p11839
I1
tp11840
a(S'DEVTOOLS'
p11841
I1
tp11842
a(S'transfer'
p11843
I1
tp11844
a(S'apps'
p11845
I1
tp11846
a(S'ZZN'
p11847
I1
tp11848
a(S'CLOSE'
p11849
I1
tp11850
a(S'SCHEME'
p11851
I1
tp11852
a(S'OCTET'
p11853
I1
tp11854
a(S'naccept'
p11855
I1
tp11856
a(S'tab'
p11857
I1
tp11858
a(S'Alive'
p11859
I1
tp11860
a(S'keyopt'
p11861
I1
tp11862
a(S'forcehtml'
p11863
I1
tp11864
a(S'DONE'
p11865
I1
tp11866
a(S'containsERK'
p11867
I1
tp11868
a(S'strndup'
p11869
I1
tp11870
a(S'ConverterFunctorI'
p11871
I1
tp11872
a(S'resumption'
p11873
I1
tp11874
a(S'oneline'
p11875
I1
tp11876
a(S'QAbstractProxyModel'
p11877
I1
tp11878
a(S'trailing'
p11879
I1
tp11880
a(S'midEii'
p11881
I1
tp11882
a(S'Temporary'
p11883
I1
tp11884
a(S'iconForMimetype'
p11885
I1
tp11886
a(S'QKeySequenceN'
p11887
I1
tp11888
a(S'QKeySequenceD'
p11889
I1
tp11890
a(S'QKeySequenceC'
p11891
I1
tp11892
a(S'libgnu'
p11893
I1
tp11894
a(S'ExNS'
p11895
I1
tp11896
a(S'BookmarkEntryD'
p11897
I1
tp11898
a(S'BookmarkEntryE'
p11899
I1
tp11900
a(S'activatedEv'
p11901
I1
tp11902
a(S'DataE'
p11903
I1
tp11904
a(S'understand'
p11905
I1
tp11906
a.